(dp1
S'output'
p2
S"<class 'bdb.BdbQuit'> "
p3
sS'layer'
p4
S'/home/leo/Dropbox/web2py/applications/SEACAT_ingresos/controllers/default.py'
p5
sS'code'
p6
S'#-*- coding: utf-8 -*-\n# this file is released under public domain and you can use without limitations\n\n#########################################################################\n## This is a sample controller\n## - index is the default action of any application\n## - user is required for authentication and authorization\n## - download is for downloading files uploaded in the db (does streaming)\n## - call exposes all registered services (none by default)\n#########################################################################\n\ndef index():\n    """\n    example action using the internationalization operator T and flash\n    rendered by views/default/index.html or views/generic.html\n\n    if you need a simple wiki simple replace the two lines below with:\n    return auth.wiki()\n    """\n    if not auth.is_logged_in():\n        form = auth()\n    else:\n        ## If the user is successfully logged in we store the timestamp in the \'auth_user\' table.\n        db.auth_user[auth.user.id]=dict(last_login=request.now)\n        #usernameid = {\'uid\': auth.user.id, \'first_name\': auth.user.first_name, \'last_name\': auth.user.last_name}\n        #auth.log_event(description=T("User %(uid)s - %(last_name)s, %(first_name)s - logged in" % usernameid))\n        ## Then we redirect to the "Start Page"\n        redirect(URL(\'start\'))\n    return dict(message=T("Registration System"), form=form)\n\n@auth.requires_login()\n@auth.requires_permission(\'not allowed\', db.auth_user)\ndef set_up():\n    ########################################################\n    # No funciona, preguntarle a Mariano o a la Comunidad!\n    ########################################################\n#    if not SETTED_UP:\n#    setting_up()\n#    else:\n#        redirect(URL(\'index\'))\n    db.auth_group.insert(role=\'root\', description=\'Superadministrador\')\n    db.auth_group.insert(role=\'empleado\', description=\'Empleado de la Casa\')\n    db.auth_group.insert(role=\'soporte\', description=\'Soporte T\xc3\xa9cnico\')\n    db.auth_group.insert(role=\'directivo\', description=\'Directivo\')\n    db.auth_group.insert(role=\'director\', description=\'Director General\')\n    db.auth_group.insert(role=\'rector\', description=\'Rector del Colegio\')\n    db.auth_group.insert(role=\'secretaria\', description=\'Secretar\xc3\xada\')\n    db.auth_group.insert(role=\'secretario\', description=\'Secretario\')\n    db.auth_group.insert(role=\'derivaciones\', description=\'Oficina de Derivaciones\')\n    db.auth_group.insert(role=\'eoe\', description=\'Equipo de Orientaci\xc3\xb3n Escolar\')\n    db.auth_group.insert(role=\'administracion\', description=\'Administraci\xc3\xb3n\')\n    db.auth_group.insert(role=\'administrador\', description=\'Administrador\')\n    db.auth_group.insert(role=\'caja\', description=\'Caja\')\n    db.auth_group.insert(role=\'padre\', description=\'Padre o Madre\')\n    db.auth_group.insert(role=\'candidato\', description=\'Ingresante\')\n    ## And then the membership on root Group to First User:\n    auth.add_membership(1,1)\n    ## Later we add permissions:\n    auth.add_permission(db.auth_group(role=\'root\').id, \'create\', db.auth_user, 0)\n    auth.add_permission(db.auth_group(role=\'root\').id, \'read\', db.auth_user, 0)\n    auth.add_permission(db.auth_group(role=\'root\').id, \'update\', db.auth_user, 0)\n    auth.add_permission(db.auth_group(role=\'root\').id, \'delete\', db.auth_user, 0)\n\n    auth.add_permission(db.auth_group(role="derivaciones").id, \'create new father\', db.auth_user, 0)\n    auth.add_permission(db.auth_group(role="derivaciones").id, \'view fathers list\', db.auth_user, 0)\n    return dict(message="SETTED_UP")\n\ndef info():\n    logo = db.image(name="Logo P\xc3\xado IX Nuevo 250x245").file\n    closing_date = db.general_date(type=GENERAL_DATE_TYPE[1]).date\n    openning_date = db.general_date(type=GENERAL_DATE_TYPE[0]).date\n    return dict(logo=logo, closing_date=closing_date, openning_date=openning_date)\n\n@auth.requires_login()\ndef start():\n    return dict()\n\ndef user():\n    """\n    exposes:\n    http://..../[app]/default/user/login\n    http://..../[app]/default/user/logout\n    http://..../[app]/default/user/register\n    http://..../[app]/default/user/profile\n    http://..../[app]/default/user/retrieve_password\n    http://..../[app]/default/user/change_password\n    http://..../[app]/default/user/manage_users (requires membership in\n    use @auth.requires_login()\n        @auth.requires_membership(\'group name\')\n        @auth.requires_permission(\'read\',\'table name\',record_id)\n    to decorate functions that need access control\n    """\n    ## Deactivating the user group creation on registration\n    auth.settings.create_user_groups = None\n    ## The line below is commented because is effective on admin/setting_up controller.\n    #auth.settings.actions_disabled.append(\'register\')\n    return dict(form=auth())\n\n@cache.action()\ndef download():\n    """\n    allows downloading of uploaded files\n    http://..../[app]/default/download/[filename]\n    """\n    return response.download(request, db)\n\n\ndef call():\n    """\n    exposes services. for example:\n    http://..../[app]/default/call/jsonrpc\n    decorate with @services.jsonrpc the functions to expose\n    supports xml, json, xmlrpc, jsonrpc, amfrpc, rss, csv\n    """\n    return service()\n\n@auth.requires_signature()\ndef data():\n    """\n    http://..../[app]/default/data/tables\n    http://..../[app]/default/data/create/[table]\n    http://..../[app]/default/data/read/[table]/[id]\n    http://..../[app]/default/data/update/[table]/[id]\n    http://..../[app]/default/data/delete/[table]/[id]\n    http://..../[app]/default/data/select/[table]\n    http://..../[app]/default/data/search/[table]\n    but URLs must be signed, i.e. linked with\n      A(\'table\',_href=URL(\'data/tables\',user_signature=True))\n    or with the signed load operator\n      LOAD(\'default\',\'data.load\',args=\'tables\',ajax=True,user_signature=True)\n    """\n    return dict(form=crud())\n\n@auth.requires_permission(\'create new father\', db.auth_user)\ndef new_father():\n    form = SQLFORM.factory(db.auth_user.first_name,\n                           db.auth_user.middle_name,\n                           db.auth_user.last_name,\n                           db.auth_user.gender,\n                           db.auth_user.email,\n                           Field(\'password\', required=True, requires=[IS_MATCH(\'\\d{8}\'), CRYPT()], label=T("Document")),\n                           db.father.children_in_school,\n                           db.father.children_name,\n                           db.father.student_network,\n                           db.father.student_school\n                           )\n    if form.process().accepted:\n        new_user_id = db.auth_user.insert(**db.auth_user._filter_fields(form.vars))\n        db.auth_membership.insert(user_id=new_user_id,\n                                  group_id=db.auth_group(role=\'padre\').id)\n        db.father.insert(father_id=new_user_id,\n                         is_alive=True,\n                         state=FATHER_STATE[0],\n                         **db.father._filter_fields(form.vars)\n                         )\n        db.auth_user[new_user_id]=dict(created_on=request.now)\n        response.flash = T("new record inserted")\n        redirect(URL(\'start\'))\n    elif form.errors:\n        response.flash = T("Form has errors")\n    return dict(form=form)\n\ndef new_personal_data():\n    username = auth.user.last_name + ", " + auth.user.first_name + " " + auth.user.middle_name\n    form = SQLFORM.factory(db.personal_data.dob,\n                           db.personal_data.doc_type,\n                           db.personal_data.doc,\n                           db.personal_data.nac,\n                           db.personal_data.cuil,\n                           db.personal_data.mail2,\n                           db.personal_data.tel1_type,\n                           db.personal_data.tel1,\n                           db.personal_data.tel2_type,\n                           db.personal_data.tel2,\n                           db.address.street,\n                           db.address.building,\n                           db.address.floor,\n                           db.address.door,\n                           db.address.apartment,\n                           db.address.street1,\n                           db.address.street2,\n                           db.address.zip_code,\n                           db.address.loc,\n                           db.address.prov,\n                           db.personal_data.obs,\n                           db.personal_data.photo,\n                           db.personal_data.avatar,\n                           db.personal_data.twitter,\n                           db.personal_data.facebook,\n                          )\n    if form.process().accepted:\n        data_id = db.personal_data.insert(**db.personal_data._filter_fields(form.vars))\n        addr_id = db.address.insert(**db.address._filter_fields(form.vars))\n        db.auth_user[auth.user.id]=dict(personal_data_id=data_id, address_id=addr_id)\n        response.flash = T("Record inserted")\n    return dict(form=form, user=username)\n\n@auth.requires(auth.has_permission(\'view fathers list\', db.auth_user) or auth.has_permission(\'view users list\', db.auth_user))\ndef fathers_list():\n    query = (db.auth_membership.group_id==db.auth_group.id)&(db.auth_membership.user_id==db.auth_user.id)&(db.auth_group.role==\'padre\')\n    fields = [db.auth_user.id,\n              db.auth_user.first_name,\n              db.auth_user.middle_name,\n              db.auth_user.last_name,\n              db.auth_user.email,\n              db.auth_user.created_on,\n              db.auth_user.last_login,\n              db.auth_group.description]\n    #rows = db(query).select()\n    grid = SQLFORM.grid(query,\n                        fields=fields,\n                        maxtextlengths={\'auth_user.id\': 5,\n                                        \'auth_user.first_name\': 20,\n                                        \'auth_user.middle_name\': 20,\n                                        \'auth_user.last_name\': 20,\n                                        \'auth_user.email\': 50,\n                                        \'auth_user.created_on\': 20,\n                                        \'auth_user.last_login\': 20},\n                        create=False,\n                        deletable=False,\n                        details=False,\n                        editable=False,\n                        searchable=False,\n                        csv=False,\n                        paginate=50)\n    return dict(grid=grid)\n\n@auth.requires_permission(\'create\', db.personal_data)\ndef father_data():\n    \n    return locals()\n\n@auth.requires_permission(\'create\', db.date)\ndef new_turn():\n    form = SQLFORM(db.date)\n    if form.process().accepted:\n        #db.date.insert(**db.date._filter_fields(form.vars))\n        response.flash = T("Record inserted")\n    return dict(form=form)\n\ndef validate_gral_dates(form):\n    if form.vars.selected_year not in form.vars[GENERAL_DATE_TYPE[0]+\'_date\']:\n    #    form.errors.form.vars[GENERAL_DATE_TYPE[0]+\'_date\'] = T("The date must equals the year selected")\n        pass\n\n@auth.requires_permission(\'create\', db.date)\ndef new_dates():\n    ## Falta hacer andar el script de la vista, para recargar el formulario con el cambio del a\xc3\xb1o.\n    ## Sino convertimos el formulario a la propuesta de Julio, un primer formulario de b\xc3\xbasqueda y\n    ## un segundo formulario de modificaci\xc3\xb3n.\n\n    #########################################################################################################\n    ## Faltar\xc3\xada hacer la validaci\xc3\xb3n de la entrada de datos, con jQuery? o armo un validador?\n    ## Estar\xc3\xada bueno ocultar el campo "selected_year" y trabajar con el valor elegido sin poder modificarlo\n    ##    (No se puede agregar el atributo/argumento "hidden" y ah\xc3\xad definimos que selected_year es hidden\n    ##     o de alguna manera seleccionar form.element y poner selected_year como tipo hidden).\n    ## Preguntarle a Mariano c\xc3\xb3mo es que funciona el tema de las variables enviadas/aceptadas!!!!!\n    #########################################################################################################\n\n    find_form = SQLFORM.factory(db.general_date.year)\n    if request.vars != None:\n        find_form.vars.year = request.vars.year\n    ## Oculta el bot\xc3\xb3n submit\n    submit = find_form.element(\'input\',_type=\'submit\')\n    submit[\'_style\'] = \'display:none;\'\n    find_form.attributes[\'_id\'] = \'find_form\'\n    find_form.element(\'select\').attributes[\'_id\'] = \'filter\'\n\n#    if find_form.process(formname=\'find_form\').accepted:\n#        response.flash = ""\n#        year = find_form.vars.year\n\n    ## Crea el formulario para insertar o modificar los datos\n    form = SQLFORM.factory(Field(\'selected_year\', label=T("Selected Year")))\n    form.vars.selected_year = request.vars.year\n\n    for date_type in GENERAL_DATE_TYPE:\n        fila = TR(LABEL(B(date_type)))\n        fila += TR(LABEL(T("Date")+":"), INPUT(_name=date_type.replace(\' \',\'_\')+\'_date\', _class="date", requires=IS_EMPTY_OR(IS_DATE(DATE_FORMAT))), _id=date_type.replace(\' \',\'_\')+"_date__row")\n        fila += TR(LABEL(T("Start Time")+":"), INPUT(_name=date_type.replace(\' \',\'_\')+\'_start_time\', _class="time", requires=IS_EMPTY_OR(IS_TIME())), _id=date_type.replace(\' \',\'_\')+"_start_time__row")\n        fila += TR(LABEL(T("End Time")+":"), INPUT(_name=date_type.replace(\' \',\'_\')+\'_end_time\', _class="time", requires=IS_EMPTY_OR(IS_TIME())), _id=date_type.replace(\' \',\'_\')+"_end_time__row")\n        form[0].insert(-1, fila)\n\n    data = db(db.general_date.year==find_form.vars.year).select(\n                                                 db.general_date.type,\n                                                 db.general_date.date,\n                                                 db.general_date.start_time,\n                                                 db.general_date.end_time\n                                                 )\n    for row in data:\n        fieldtype = row.type\n        fieldtype = fieldtype.replace(\' \', \'_\')\n        form.vars[fieldtype+\'_date\'] = row.date.strftime(DATE_FORMAT)\n        #if not row.start_time:\n        form.vars[fieldtype+\'_start_time\'] = row.start_time\n        #if not row.end_time:\n        form.vars[fieldtype+\'_end_time\'] = row.end_time\n\n    if form.process(formname=\'form\', onvalidation=validate_gral_dates).accepted:\n        for field, value in form.vars.items():\n            fieldtype = ""\n            date = ""\n            start_time = ""\n            end_time = ""\n            if not value:\n                continue\n            elif "_date" in field:\n                fieldname = field.split("_date")\n                fieldtype = fieldname[0].replace(\'_\', \' \')\n                date = value\n                start_time = form.vars[fieldname[0]+"_start_time"]\n                end_time = form.vars[fieldname[0]+"_end_time"]\n            elif "_start_time" in field:\n                continue\n            elif "_end_time" in field:\n                continue\n            elif "year" in field:\n                continue\n            else:\n                pass\n            db.general_date.update_or_insert((db.general_date.type==fieldtype)&(db.general_date.year==form.vars.selected_year), type=fieldtype, year=form.vars.selected_year, date=date, start_time=start_time, end_time=end_time)\n        response.flash = T("new record inserted")\n    return dict(find_form=find_form, form=form)\n\nresponse._vars=response._caller(new_dates)\n'
p7
sS'snapshot'
p8
(dp9
S'exception'
p10
(dp11
S'__module__'
p12
S"'bdb'"
p13
sS'__getslice__'
p14
S"<method-wrapper '__getslice__' of BdbQuit object>"
p15
sS'__str__'
p16
S"<method-wrapper '__str__' of BdbQuit object>"
p17
sS'__reduce__'
p18
S'<built-in method __reduce__ of BdbQuit object>'
p19
sS'__dict__'
p20
S'{}'
p21
sS'__sizeof__'
p22
S'<built-in method __sizeof__ of BdbQuit object>'
p23
sS'__weakref__'
p24
S'None'
p25
sS'__init__'
p26
S"<method-wrapper '__init__' of BdbQuit object>"
p27
sS'__setattr__'
p28
S"<method-wrapper '__setattr__' of BdbQuit object>"
p29
sS'__reduce_ex__'
p30
S'<built-in method __reduce_ex__ of BdbQuit object>'
p31
sS'__new__'
p32
S'<built-in method __new__ of type object>'
p33
sS'__format__'
p34
S'<built-in method __format__ of BdbQuit object>'
p35
sS'__class__'
p36
S"<class 'bdb.BdbQuit'>"
p37
sS'__doc__'
p38
S"'Exception to give up completely'"
p39
sS'__getitem__'
p40
S"<method-wrapper '__getitem__' of BdbQuit object>"
p41
sS'__setstate__'
p42
S'<built-in method __setstate__ of BdbQuit object>'
p43
sS'__getattribute__'
p44
S"<method-wrapper '__getattribute__' of BdbQuit object>"
p45
sS'args'
p46
S'()'
p47
sS'__subclasshook__'
p48
S'<built-in method __subclasshook__ of type object>'
p49
sS'__unicode__'
p50
S'<built-in method __unicode__ of BdbQuit object>'
p51
sS'__delattr__'
p52
S"<method-wrapper '__delattr__' of BdbQuit object>"
p53
sS'__repr__'
p54
S"<method-wrapper '__repr__' of BdbQuit object>"
p55
sS'__hash__'
p56
S"<method-wrapper '__hash__' of BdbQuit object>"
p57
ssS'evalue'
p58
S''
sS'request'
p59
cgluon.html
XML_unpickle
p60
(S's\xbfd\x00\x00<div><table><tr><td style="font-weight:bold;vertical-align:top;">ajax</td><td style="vertical-align:top;">:</td><td><div>False</div></td></tr><tr><td style="font-weight:bold;vertical-align:top;">application</td><td style="vertical-align:top;">:</td><td><div>SEACAT_ingresos</div></td></tr><tr><td style="font-weight:bold;vertical-align:top;">args</td><td style="vertical-align:top;">:</td><td><div><table></table></div></td></tr><tr><td style="font-weight:bold;vertical-align:top;">cid</td><td style="vertical-align:top;">:</td><td><div>None</div></td></tr><tr><td style="font-weight:bold;vertical-align:top;">client</td><td style="vertical-align:top;">:</td><td><div>10.0.0.13</div></td></tr><tr><td style="font-weight:bold;vertical-align:top;">controller</td><td style="vertical-align:top;">:</td><td><div>default</div></td></tr><tr><td style="font-weight:bold;vertical-align:top;">cookies</td><td style="vertical-align:top;">:</td><td><div><table><tr><td style="font-weight:bold;vertical-align:top;">session_id_admin</td><td style="vertical-align:top;">:</td><td><div>10.0.0.13-3afd0670-6b36-4cff-8b12-7c84235d906b<table><tr><td style="font-weight:bold;vertical-align:top;">comment</td><td style="vertical-align:top;">:</td><td><div></div></td></tr><tr><td style="font-weight:bold;vertical-align:top;">domain</td><td style="vertical-align:top;">:</td><td><div></div></td></tr><tr><td style="font-weight:bold;vertical-align:top;">expires</td><td style="vertical-align:top;">:</td><td><div></div></td></tr><tr><td style="font-weight:bold;vertical-align:top;">httponly</td><td style="vertical-align:top;">:</td><td><div></div></td></tr><tr><td style="font-weight:bold;vertical-align:top;">max-age</td><td style="vertical-align:top;">:</td><td><div></div></td></tr><tr><td style="font-weight:bold;vertical-align:top;">path</td><td style="vertical-align:top;">:</td><td><div></div></td></tr><tr><td style="font-weight:bold;vertical-align:top;">secure</td><td style="vertical-align:top;">:</td><td><div></div></td></tr><tr><td style="font-weight:bold;vertical-align:top;">version</td><td style="vertical-align:top;">:</td><td><div></div></td></tr></table></div></td></tr><tr><td style="font-weight:bold;vertical-align:top;">session_id_seacat_ingresos</td><td style="vertical-align:top;">:</td><td><div>10.0.0.13-e5d16dd4-141b-47ec-a9c9-ef9cfe583647<table><tr><td style="font-weight:bold;vertical-align:top;">comment</td><td style="vertical-align:top;">:</td><td><div></div></td></tr><tr><td style="font-weight:bold;vertical-align:top;">domain</td><td style="vertical-align:top;">:</td><td><div></div></td></tr><tr><td style="font-weight:bold;vertical-align:top;">expires</td><td style="vertical-align:top;">:</td><td><div></div></td></tr><tr><td style="font-weight:bold;vertical-align:top;">httponly</td><td style="vertical-align:top;">:</td><td><div></div></td></tr><tr><td style="font-weight:bold;vertical-align:top;">max-age</td><td style="vertical-align:top;">:</td><td><div></div></td></tr><tr><td style="font-weight:bold;vertical-align:top;">path</td><td style="vertical-align:top;">:</td><td><div></div></td></tr><tr><td style="font-weight:bold;vertical-align:top;">secure</td><td style="vertical-align:top;">:</td><td><div></div></td></tr><tr><td style="font-weight:bold;vertical-align:top;">version</td><td style="vertical-align:top;">:</td><td><div></div></td></tr></table></div></td></tr><tr><td style="font-weight:bold;vertical-align:top;">session_id_welcome</td><td style="vertical-align:top;">:</td><td><div>10.0.0.13-1adda671-aaf8-4471-b24b-6697d3a5524b<table><tr><td style="font-weight:bold;vertical-align:top;">comment</td><td style="vertical-align:top;">:</td><td><div></div></td></tr><tr><td style="font-weight:bold;vertical-align:top;">domain</td><td style="vertical-align:top;">:</td><td><div></div></td></tr><tr><td style="font-weight:bold;vertical-align:top;">expires</td><td style="vertical-align:top;">:</td><td><div></div></td></tr><tr><td style="font-weight:bold;vertical-align:top;">httponly</td><td style="vertical-align:top;">:</td><td><div></div></td></tr><tr><td style="font-weight:bold;vertical-align:top;">max-age</td><td style="vertical-align:top;">:</td><td><div></div></td></tr><tr><td style="font-weight:bold;vertical-align:top;">path</td><td style="vertical-align:top;">:</td><td><div></div></td></tr><tr><td style="font-weight:bold;vertical-align:top;">secure</td><td style="vertical-align:top;">:</td><td><div></div></td></tr><tr><td style="font-weight:bold;vertical-align:top;">version</td><td style="vertical-align:top;">:</td><td><div></div></td></tr></table></div></td></tr></table></div></td></tr><tr><td style="font-weight:bold;vertical-align:top;">env</td><td style="vertical-align:top;">:</td><td><div><table><tr><td style="font-weight:bold;vertical-align:top;">CONTENT_LENGTH</td><td style="vertical-align:top;">:</td><td><div>3891</div></td></tr><tr><td style="font-weight:bold;vertical-align:top;">CONTENT_TYPE</td><td style="vertical-align:top;">:</td><td><div>multipart/form-data; boundary=----WebKitFormBoundary9hzFABlLY5echXMS</div></td></tr><tr><td style="font-weight:bold;vertical-align:top;">HTTPS</td><td style="vertical-align:top;">:</td><td><div>on</div></td></tr><tr><td style="font-weight:bold;vertical-align:top;">HTTP_ACCEPT</td><td style="vertical-align:top;">:</td><td><div>text/html,application/xhtml+xml,application/xml;q=0.9,image/webp,*/*;q=0.8</div></td></tr><tr><td style="font-weight:bold;vertical-align:top;">HTTP_ACCEPT_ENCODING</td><td style="vertical-align:top;">:</td><td><div>gzip,deflate,sdch</div></td></tr><tr><td style="font-weight:bold;vertical-align:top;">HTTP_ACCEPT_LANGUAGE</td><td style="vertical-align:top;">:</td><td><div>es,es-419;q=0.8,en-US;q=0.6,en;q=0.4</div></td></tr><tr><td style="font-weight:bold;vertical-align:top;">HTTP_CACHE_CONTROL</td><td style="vertical-align:top;">:</td><td><div>max-age=0</div></td></tr><tr><td style="font-weight:bold;vertical-align:top;">HTTP_CONNECTION</td><td style="vertical-align:top;">:</td><td><div>keep-alive</div></td></tr><tr><td style="font-weight:bold;vertical-align:top;">HTTP_CONTENT_LENGTH</td><td style="vertical-align:top;">:</td><td><div>3891</div></td></tr><tr><td style="font-weight:bold;vertical-align:top;">HTTP_CONTENT_TYPE</td><td style="vertical-align:top;">:</td><td><div>multipart/form-data; boundary=----WebKitFormBoundary9hzFABlLY5echXMS</div></td></tr><tr><td style="font-weight:bold;vertical-align:top;">HTTP_COOKIE</td><td style="vertical-align:top;">:</td><td><div>session_id_welcome=10.0.0.13-1adda671-aaf8-4471-b24b-6697d3a5524b; session_id_seacat_ingresos=10.0.0.13-e5d16dd4-141b-47ec-a9c9-ef9cfe583647; session_id_admin=10.0.0.13-3afd0670-6b36-4cff-8b12-7c84235d906b</div></td></tr><tr><td style="font-weight:bold;vertical-align:top;">HTTP_HOST</td><td style="vertical-align:top;">:</td><td><div>10.0.0.12:8000</div></td></tr><tr><td style="font-weight:bold;vertical-align:top;">HTTP_ORIGIN</td><td style="vertical-align:top;">:</td><td><div>https://10.0.0.12:8000</div></td></tr><tr><td style="font-weight:bold;vertical-align:top;">HTTP_REFERER</td><td style="vertical-align:top;">:</td><td><div>https://10.0.0.12:8000/SEACAT_ingresos/default/new_dates</div></td></tr><tr><td style="font-weight:bold;vertical-align:top;">HTTP_USER_AGENT</td><td style="vertical-align:top;">:</td><td><div>Mozilla/5.0 (Windows NT 6.1; WOW64) AppleWebKit/537.36 (KHTML, like Gecko) Chrome/32.0.1700.107 Safari/537.36</div></td></tr><tr><td style="font-weight:bold;vertical-align:top;">PATH_INFO</td><td style="vertical-align:top;">:</td><td><div>/SEACAT_ingresos/default/new_dates</div></td></tr><tr><td style="font-weight:bold;vertical-align:top;">QUERY_STRING</td><td style="vertical-align:top;">:</td><td><div></div></td></tr><tr><td style="font-weight:bold;vertical-align:top;">REMOTE_ADDR</td><td style="vertical-align:top;">:</td><td><div>10.0.0.13</div></td></tr><tr><td style="font-weight:bold;vertical-align:top;">REMOTE_PORT</td><td style="vertical-align:top;">:</td><td><div>50033</div></td></tr><tr><td style="font-weight:bold;vertical-align:top;">REQUEST_METHOD</td><td style="vertical-align:top;">:</td><td><div>POST</div></td></tr><tr><td style="font-weight:bold;vertical-align:top;">SCRIPT_NAME</td><td style="vertical-align:top;">:</td><td><div></div></td></tr><tr><td style="font-weight:bold;vertical-align:top;">SERVER_NAME</td><td style="vertical-align:top;">:</td><td><div>Leo-XPS-Debian</div></td></tr><tr><td style="font-weight:bold;vertical-align:top;">SERVER_PORT</td><td style="vertical-align:top;">:</td><td><div>8000</div></td></tr><tr><td style="font-weight:bold;vertical-align:top;">SERVER_PROTOCOL</td><td style="vertical-align:top;">:</td><td><div>HTTP/1.1</div></td></tr><tr><td style="font-weight:bold;vertical-align:top;">SERVER_SOFTWARE</td><td style="vertical-align:top;">:</td><td><div>Rocket 1.2.6</div></td></tr><tr><td style="font-weight:bold;vertical-align:top;">SSL_CLIENT_RAW_CERT</td><td style="vertical-align:top;">:</td><td><div>None</div></td></tr><tr><td style="font-weight:bold;vertical-align:top;">app_folders</td><td style="vertical-align:top;">:</td><td><div>set([&#x27;/home/leo/Dropbox/web2py/applications/SEACAT_ingresos/&#x27;, &#x27;/home/leo/Dropbox/web2py/applications/admin/&#x27;, &#x27;/home/leo/Dropbox/web2py/applications/welcome/&#x27;])</div></td></tr><tr><td style="font-weight:bold;vertical-align:top;">applications_parent</td><td style="vertical-align:top;">:</td><td><div>/home/leo/Dropbox/web2py</div></td></tr><tr><td style="font-weight:bold;vertical-align:top;">cmd_args</td><td style="vertical-align:top;">:</td><td><div><table></table></div></td></tr><tr><td style="font-weight:bold;vertical-align:top;">cmd_options</td><td style="vertical-align:top;">:</td><td><div>&lt;Values at 0x33b9ab8: {&#x27;verbose&#x27;: False, &#x27;ip&#x27;: &#x27;127.0.0.1&#x27;, &#x27;debuglevel&#x27;: 30, &#x27;with_scheduler&#x27;: False, &#x27;ips&#x27;: [&#x27;127.0.1.1&#x27;], &#x27;shutdown_timeout&#x27;: 5, &#x27;taskbar&#x27;: False, &#x27;with_coverage&#x27;: False, &#x27;port&#x27;: 8000, &#x27;maxthreads&#x27;: None, &#x27;softcron&#x27;: False, &#x27;server_name&#x27;: &#x27;Leo-XPS-Debian&#x27;, &#x27;bpython&#x27;: False, &#x27;nogui&#x27;: False, &#x27;pid_filename&#x27;: &#x27;httpserver.pid&#x27;, &#x27;extcron&#x27;: False, &#x27;runcron&#x27;: False, &#x27;run_system_tests&#x27;: False, &#x27;test&#x27;: None, &#x27;folder&#x27;: &#x27;/home/leo/Dropbox/web2py&#x27;, &#x27;config&#x27;: &#x27;&#x27;, &#x27;minthreads&#x27;: None, &#x27;shell&#x27;: None, &#x27;run&#x27;: &#x27;&#x27;, &#x27;log_filename&#x27;: &#x27;httpserver.log&#x27;, &#x27;profiler_dir&#x27;: None, &#x27;args&#x27;: [&#x27;&#x27;], &#x27;socket_timeout&#x27;: 5, &#x27;ssl_ca_certificate&#x27;: None, &#x27;scheduler&#x27;: None, &#x27;interfaces&#x27;: None, &#x27;ssl_private_key&#x27;: &#x27;server.key&#x27;, &#x27;scheduler_groups&#x27;: None, &#x27;password&#x27;: &#x27;&lt;ask&gt;&#x27;, &#x27;request_queue_size&#x27;: 5, &#x27;ssl_certificate&#x27;: &#x27;server.crt&#x27;, &#x27;cronjob&#x27;: False, &#x27;numthreads&#x27;: None, &#x27;quiet&#x27;: False, &#x27;import_models&#x27;: False, &#x27;timeout&#x27;: 10, &#x27;plain&#x27;: False, &#x27;nobanner&#x27;: False}&gt;</div></td></tr><tr><td style="font-weight:bold;vertical-align:top;">content_length</td><td style="vertical-align:top;">:</td><td><div>3891</div></td></tr><tr><td style="font-weight:bold;vertical-align:top;">content_type</td><td style="vertical-align:top;">:</td><td><div>multipart/form-data; boundary=----WebKitFormBoundary9hzFABlLY5echXMS</div></td></tr><tr><td style="font-weight:bold;vertical-align:top;">db_sessions</td><td style="vertical-align:top;">:</td><td><div>set([])</div></td></tr><tr><td style="font-weight:bold;vertical-align:top;">debugging</td><td style="vertical-align:top;">:</td><td><div>True</div></td></tr><tr><td style="font-weight:bold;vertical-align:top;">gluon_parent</td><td style="vertical-align:top;">:</td><td><div>/home/leo/Dropbox/web2py</div></td></tr><tr><td style="font-weight:bold;vertical-align:top;">http_accept</td><td style="vertical-align:top;">:</td><td><div>text/html,application/xhtml+xml,application/xml;q=0.9,image/webp,*/*;q=0.8</div></td></tr><tr><td style="font-weight:bold;vertical-align:top;">http_accept_encoding</td><td style="vertical-align:top;">:</td><td><div>gzip,deflate,sdch</div></td></tr><tr><td style="font-weight:bold;vertical-align:top;">http_accept_language</td><td style="vertical-align:top;">:</td><td><div>es,es-419;q=0.8,en-US;q=0.6,en;q=0.4</div></td></tr><tr><td style="font-weight:bold;vertical-align:top;">http_cache_control</td><td style="vertical-align:top;">:</td><td><div>max-age=0</div></td></tr><tr><td style="font-weight:bold;vertical-align:top;">http_connection</td><td style="vertical-align:top;">:</td><td><div>keep-alive</div></td></tr><tr><td style="font-weight:bold;vertical-align:top;">http_content_length</td><td style="vertical-align:top;">:</td><td><div>3891</div></td></tr><tr><td style="font-weight:bold;vertical-align:top;">http_content_type</td><td style="vertical-align:top;">:</td><td><div>multipart/form-data; boundary=----WebKitFormBoundary9hzFABlLY5echXMS</div></td></tr><tr><td style="font-weight:bold;vertical-align:top;">http_cookie</td><td style="vertical-align:top;">:</td><td><div>session_id_welcome=10.0.0.13-1adda671-aaf8-4471-b24b-6697d3a5524b; session_id_seacat_ingresos=10.0.0.13-e5d16dd4-141b-47ec-a9c9-ef9cfe583647; session_id_admin=10.0.0.13-3afd0670-6b36-4cff-8b12-7c84235d906b</div></td></tr><tr><td style="font-weight:bold;vertical-align:top;">http_host</td><td style="vertical-align:top;">:</td><td><div>10.0.0.12:8000</div></td></tr><tr><td style="font-weight:bold;vertical-align:top;">http_origin</td><td style="vertical-align:top;">:</td><td><div>https://10.0.0.12:8000</div></td></tr><tr><td style="font-weight:bold;vertical-align:top;">http_referer</td><td style="vertical-align:top;">:</td><td><div>https://10.0.0.12:8000/SEACAT_ingresos/default/new_dates</div></td></tr><tr><td style="font-weight:bold;vertical-align:top;">http_user_agent</td><td style="vertical-align:top;">:</td><td><div>Mozilla/5.0 (Windows NT 6.1; WOW64) AppleWebKit/537.36 (KHTML, like Gecko) Chrome/32.0.1700.107 Safari/537.36</div></td></tr><tr><td style="font-weight:bold;vertical-align:top;">https</td><td style="vertical-align:top;">:</td><td><div>on</div></td></tr><tr><td style="font-weight:bold;vertical-align:top;">is_jython</td><td style="vertical-align:top;">:</td><td><div>False</div></td></tr><tr><td style="font-weight:bold;vertical-align:top;">is_pypy</td><td style="vertical-align:top;">:</td><td><div>False</div></td></tr><tr><td style="font-weight:bold;vertical-align:top;">is_source</td><td style="vertical-align:top;">:</td><td><div>True</div></td></tr><tr><td style="font-weight:bold;vertical-align:top;">local_hosts</td><td style="vertical-align:top;">:</td><td><div><table><tr><td><div>Leo-XPS-Debian</div></td></tr><tr><td><div>::1</div></td></tr><tr><td><div>127.0.1.1</div></td></tr><tr><td><div>::ffff:127.0.0.1</div></td></tr><tr><td><div>127.0.0.1</div></td></tr></table></div></td></tr><tr><td style="font-weight:bold;vertical-align:top;">path_info</td><td style="vertical-align:top;">:</td><td><div>/SEACAT_ingresos/default/new_dates</div></td></tr><tr><td style="font-weight:bold;vertical-align:top;">query_string</td><td style="vertical-align:top;">:</td><td><div></div></td></tr><tr><td style="font-weight:bold;vertical-align:top;">remote_addr</td><td style="vertical-align:top;">:</td><td><div>10.0.0.13</div></td></tr><tr><td style="font-weight:bold;vertical-align:top;">remote_port</td><td style="vertical-align:top;">:</td><td><div>50033</div></td></tr><tr><td style="font-weight:bold;vertical-align:top;">request_method</td><td style="vertical-align:top;">:</td><td><div>POST</div></td></tr><tr><td style="font-weight:bold;vertical-align:top;">request_uri</td><td style="vertical-align:top;">:</td><td><div>/SEACAT_ingresos/default/new_dates</div></td></tr><tr><td style="font-weight:bold;vertical-align:top;">script_name</td><td style="vertical-align:top;">:</td><td><div></div></td></tr><tr><td style="font-weight:bold;vertical-align:top;">server_name</td><td style="vertical-align:top;">:</td><td><div>Leo-XPS-Debian</div></td></tr><tr><td style="font-weight:bold;vertical-align:top;">server_port</td><td style="vertical-align:top;">:</td><td><div>8000</div></td></tr><tr><td style="font-weight:bold;vertical-align:top;">server_protocol</td><td style="vertical-align:top;">:</td><td><div>HTTP/1.1</div></td></tr><tr><td style="font-weight:bold;vertical-align:top;">server_software</td><td style="vertical-align:top;">:</td><td><div>Rocket 1.2.6</div></td></tr><tr><td style="font-weight:bold;vertical-align:top;">ssl_client_raw_cert</td><td style="vertical-align:top;">:</td><td><div>None</div></td></tr><tr><td style="font-weight:bold;vertical-align:top;">web2py_path</td><td style="vertical-align:top;">:</td><td><div>/home/leo/Dropbox/web2py</div></td></tr><tr><td style="font-weight:bold;vertical-align:top;">web2py_version</td><td style="vertical-align:top;">:</td><td><div>2.8.2-stable+timestamp.2013.11.28.13.54.07</div></td></tr><tr><td style="font-weight:bold;vertical-align:top;">wsgi.errors</td><td style="vertical-align:top;">:</td><td><div>&lt;open file &#x27;&lt;stderr&gt;&#x27;, mode &#x27;w&#x27; at 0x7fafd827f270&gt;</div></td></tr><tr><td style="font-weight:bold;vertical-align:top;">wsgi.file_wrapper</td><td style="vertical-align:top;">:</td><td><div>&lt;class wsgiref.util.FileWrapper at 0x32fc0b8&gt;</div></td></tr><tr><td style="font-weight:bold;vertical-align:top;">wsgi.input</td><td style="vertical-align:top;">:</td><td><div>&lt;socket._fileobject object at 0x4aba150&gt;</div></td></tr><tr><td style="font-weight:bold;vertical-align:top;">wsgi.multiprocess</td><td style="vertical-align:top;">:</td><td><div>False</div></td></tr><tr><td style="font-weight:bold;vertical-align:top;">wsgi.multithread</td><td style="vertical-align:top;">:</td><td><div>True</div></td></tr><tr><td style="font-weight:bold;vertical-align:top;">wsgi.run_once</td><td style="vertical-align:top;">:</td><td><div>False</div></td></tr><tr><td style="font-weight:bold;vertical-align:top;">wsgi.url_scheme</td><td style="vertical-align:top;">:</td><td><div>https</div></td></tr><tr><td style="font-weight:bold;vertical-align:top;">wsgi.version</td><td style="vertical-align:top;">:</td><td><div><table><tr><td><div>1</div></td></tr><tr><td><div>0</div></td></tr></table></div></td></tr><tr><td style="font-weight:bold;vertical-align:top;">wsgi_errors</td><td style="vertical-align:top;">:</td><td><div>&lt;open file &#x27;&lt;stderr&gt;&#x27;, mode &#x27;w&#x27; at 0x7fafd827f270&gt;</div></td></tr><tr><td style="font-weight:bold;vertical-align:top;">wsgi_file_wrapper</td><td style="vertical-align:top;">:</td><td><div>&lt;class wsgiref.util.FileWrapper at 0x32fc0b8&gt;</div></td></tr><tr><td style="font-weight:bold;vertical-align:top;">wsgi_input</td><td style="vertical-align:top;">:</td><td><div>&lt;socket._fileobject object at 0x4aba150&gt;</div></td></tr><tr><td style="font-weight:bold;vertical-align:top;">wsgi_multiprocess</td><td style="vertical-align:top;">:</td><td><div>False</div></td></tr><tr><td style="font-weight:bold;vertical-align:top;">wsgi_multithread</td><td style="vertical-align:top;">:</td><td><div>True</div></td></tr><tr><td style="font-weight:bold;vertical-align:top;">wsgi_run_once</td><td style="vertical-align:top;">:</td><td><div>False</div></td></tr><tr><td style="font-weight:bold;vertical-align:top;">wsgi_url_scheme</td><td style="vertical-align:top;">:</td><td><div>https</div></td></tr><tr><td style="font-weight:bold;vertical-align:top;">wsgi_version</td><td style="vertical-align:top;">:</td><td><div><table><tr><td><div>1</div></td></tr><tr><td><div>0</div></td></tr></table></div></td></tr></table></div></td></tr><tr><td style="font-weight:bold;vertical-align:top;">extension</td><td style="vertical-align:top;">:</td><td><div>html</div></td></tr><tr><td style="font-weight:bold;vertical-align:top;">folder</td><td style="vertical-align:top;">:</td><td><div>/home/leo/Dropbox/web2py/applications/SEACAT_ingresos/</div></td></tr><tr><td style="font-weight:bold;vertical-align:top;">function</td><td style="vertical-align:top;">:</td><td><div>new_dates</div></td></tr><tr><td style="font-weight:bold;vertical-align:top;">global_settings</td><td style="vertical-align:top;">:</td><td><div><table><tr><td style="font-weight:bold;vertical-align:top;">app_folders</td><td style="vertical-align:top;">:</td><td><div>set([&#x27;/home/leo/Dropbox/web2py/applications/SEACAT_ingresos/&#x27;, &#x27;/home/leo/Dropbox/web2py/applications/admin/&#x27;, &#x27;/home/leo/Dropbox/web2py/applications/welcome/&#x27;])</div></td></tr><tr><td style="font-weight:bold;vertical-align:top;">applications_parent</td><td style="vertical-align:top;">:</td><td><div>/home/leo/Dropbox/web2py</div></td></tr><tr><td style="font-weight:bold;vertical-align:top;">cmd_args</td><td style="vertical-align:top;">:</td><td><div><table></table></div></td></tr><tr><td style="font-weight:bold;vertical-align:top;">cmd_options</td><td style="vertical-align:top;">:</td><td><div>&lt;Values at 0x33b9ab8: {&#x27;verbose&#x27;: False, &#x27;ip&#x27;: &#x27;127.0.0.1&#x27;, &#x27;debuglevel&#x27;: 30, &#x27;with_scheduler&#x27;: False, &#x27;ips&#x27;: [&#x27;127.0.1.1&#x27;], &#x27;shutdown_timeout&#x27;: 5, &#x27;taskbar&#x27;: False, &#x27;with_coverage&#x27;: False, &#x27;port&#x27;: 8000, &#x27;maxthreads&#x27;: None, &#x27;softcron&#x27;: False, &#x27;server_name&#x27;: &#x27;Leo-XPS-Debian&#x27;, &#x27;bpython&#x27;: False, &#x27;nogui&#x27;: False, &#x27;pid_filename&#x27;: &#x27;httpserver.pid&#x27;, &#x27;extcron&#x27;: False, &#x27;runcron&#x27;: False, &#x27;run_system_tests&#x27;: False, &#x27;test&#x27;: None, &#x27;folder&#x27;: &#x27;/home/leo/Dropbox/web2py&#x27;, &#x27;config&#x27;: &#x27;&#x27;, &#x27;minthreads&#x27;: None, &#x27;shell&#x27;: None, &#x27;run&#x27;: &#x27;&#x27;, &#x27;log_filename&#x27;: &#x27;httpserver.log&#x27;, &#x27;profiler_dir&#x27;: None, &#x27;args&#x27;: [&#x27;&#x27;], &#x27;socket_timeout&#x27;: 5, &#x27;ssl_ca_certificate&#x27;: None, &#x27;scheduler&#x27;: None, &#x27;interfaces&#x27;: None, &#x27;ssl_private_key&#x27;: &#x27;server.key&#x27;, &#x27;scheduler_groups&#x27;: None, &#x27;password&#x27;: &#x27;&lt;ask&gt;&#x27;, &#x27;request_queue_size&#x27;: 5, &#x27;ssl_certificate&#x27;: &#x27;server.crt&#x27;, &#x27;cronjob&#x27;: False, &#x27;numthreads&#x27;: None, &#x27;quiet&#x27;: False, &#x27;import_models&#x27;: False, &#x27;timeout&#x27;: 10, &#x27;plain&#x27;: False, &#x27;nobanner&#x27;: False}&gt;</div></td></tr><tr><td style="font-weight:bold;vertical-align:top;">db_sessions</td><td style="vertical-align:top;">:</td><td><div>set([])</div></td></tr><tr><td style="font-weight:bold;vertical-align:top;">debugging</td><td style="vertical-align:top;">:</td><td><div>True</div></td></tr><tr><td style="font-weight:bold;vertical-align:top;">gluon_parent</td><td style="vertical-align:top;">:</td><td><div>/home/leo/Dropbox/web2py</div></td></tr><tr><td style="font-weight:bold;vertical-align:top;">is_jython</td><td style="vertical-align:top;">:</td><td><div>False</div></td></tr><tr><td style="font-weight:bold;vertical-align:top;">is_pypy</td><td style="vertical-align:top;">:</td><td><div>False</div></td></tr><tr><td style="font-weight:bold;vertical-align:top;">is_source</td><td style="vertical-align:top;">:</td><td><div>True</div></td></tr><tr><td style="font-weight:bold;vertical-align:top;">local_hosts</td><td style="vertical-align:top;">:</td><td><div><table><tr><td><div>Leo-XPS-Debian</div></td></tr><tr><td><div>::1</div></td></tr><tr><td><div>127.0.1.1</div></td></tr><tr><td><div>::ffff:127.0.0.1</div></td></tr><tr><td><div>127.0.0.1</div></td></tr></table></div></td></tr><tr><td style="font-weight:bold;vertical-align:top;">web2py_version</td><td style="vertical-align:top;">:</td><td><div>2.8.2-stable+timestamp.2013.11.28.13.54.07</div></td></tr></table></div></td></tr><tr><td style="font-weight:bold;vertical-align:top;">is_https</td><td style="vertical-align:top;">:</td><td><div>True</div></td></tr><tr><td style="font-weight:bold;vertical-align:top;">is_local</td><td style="vertical-align:top;">:</td><td><div>False</div></td></tr><tr><td style="font-weight:bold;vertical-align:top;">is_restful</td><td style="vertical-align:top;">:</td><td><div>False</div></td></tr><tr><td style="font-weight:bold;vertical-align:top;">now</td><td style="vertical-align:top;">:</td><td><div>datetime.datetime(2014, 2, 12, 12, 51, 2, 372458)</div></td></tr><tr><td style="font-weight:bold;vertical-align:top;">raw_args</td><td style="vertical-align:top;">:</td><td><div></div></td></tr><tr><td style="font-weight:bold;vertical-align:top;">raw_extension</td><td style="vertical-align:top;">:</td><td><div>None</div></td></tr><tr><td style="font-weight:bold;vertical-align:top;">url</td><td style="vertical-align:top;">:</td><td><div>/SEACAT_ingresos/default/new_dates</div></td></tr><tr><td style="font-weight:bold;vertical-align:top;">utcnow</td><td style="vertical-align:top;">:</td><td><div>datetime.datetime(2014, 2, 12, 15, 51, 2, 372499)</div></td></tr><tr><td style="font-weight:bold;vertical-align:top;">uuid</td><td style="vertical-align:top;">:</td><td><div>SEACAT_ingresos/10.0.0.13.2014-02-12.12-51-02.913701fb-9d68-43bb-a81d-41cb772ca919</div></td></tr><tr><td style="font-weight:bold;vertical-align:top;">wsgi</td><td style="vertical-align:top;">:</td><td><div>&lt;gluon.main.LazyWSGI object at 0x50cb550&gt;</div></td></tr></table></div>'
tRp61
sS'frames'
p62
(lp63
(dp64
S'file'
p65
S'/home/leo/Dropbox/web2py/gluon/restricted.py'
p66
sS'dump'
p67
(dp68
S'environment'
p69
S"{'A': <class 'gluon.html.A'>, 'ANY_OF': <class 'gluon.validators.ANY_OF'>, 'Auth': <class 'gluon.tools.Auth'>, 'B': <class 'gluon.html.B'>, 'BEAUTIFY': <class 'gluon.html.BEAUTIFY'>, 'BODY': <class 'gluon.html.BODY'>, 'BR': <class 'gluon.html.BR'>, 'BUTTON': <class 'gluon.html.BUTTON'>, 'CAT': <class 'gluon.html.CAT'>, 'CENTER': <class 'gluon.html.CENTER'>, ...}"
p70
sS'ccode'
p71
S'<code object <module> at 0x4c0ff30, file "/home/...SEACAT_ingresos/controllers/default.py", line 12>'
p72
ssS'lnum'
p73
I217
sS'lines'
p74
(dp75
I212
S'    try:'
p76
sI213
S'        if isinstance(code, types.CodeType):'
p77
sI214
S'            ccode = code'
p78
sI215
S'        else:'
p79
sI216
S'            ccode = compile2(code, layer)'
p80
sI217
S'        exec ccode in environment'
p81
sI218
S'    except HTTP:'
p82
sI219
S'        raise'
p83
sI220
S'    except RestrictedError:'
p84
sI221
S'        # do not encapsulate (obfuscate) the original RestrictedError'
p85
ssS'call'
p86
S"(code='#-*- coding: utf-8 -*-\\n# this file is released u...orm)\\n\\nresponse._vars=response._caller(new_dates)\\n', environment={'A': <class 'gluon.html.A'>, 'ANY_OF': <class 'gluon.validators.ANY_OF'>, 'Auth': <class 'gluon.tools.Auth'>, 'B': <class 'gluon.html.B'>, 'BEAUTIFY': <class 'gluon.html.BEAUTIFY'>, 'BODY': <class 'gluon.html.BODY'>, 'BR': <class 'gluon.html.BR'>, 'BUTTON': <class 'gluon.html.BUTTON'>, 'CAT': <class 'gluon.html.CAT'>, 'CENTER': <class 'gluon.html.CENTER'>, ...}, layer='/home/leo/Dropbox/web2py/applications/SEACAT_ingresos/controllers/default.py')"
p87
sS'func'
p88
S'restricted'
p89
sa(dp90
g65
S'/home/leo/Dropbox/web2py/applications/SEACAT_ingresos/controllers/default.py'
p91
sg67
(dp92
sg73
I325
sg74
(dp93
I320
S'                pass'
p94
sI321
S'            db.general_date.update_or_insert((db.general_date.type==fieldtype)&(db.general_date.year==form.vars.selected_year), type=fieldtype, year=form.vars.selected_year, date=date, start_time=start_time, end_time=end_time)'
p95
sI322
S'        response.flash = T("new record inserted")'
p96
sI323
S'    return dict(find_form=find_form, form=form)'
p97
sI314
S'                continue'
p98
sI315
S'            elif "_end_time" in field:'
p99
sI316
S'                continue'
p100
sI317
S'            elif "year" in field:'
p101
sI318
S'                continue'
p102
sI319
S'            else:'
p103
ssg86
S'()'
p104
sg88
S'<module>'
p105
sa(dp106
g65
S'/home/leo/Dropbox/web2py/gluon/globals.py'
p107
sg67
(dp108
S'self'
p109
S'undefined'
p110
sS'f'
S'<function new_dates>'
p111
ssg73
I372
sg74
(dp112
I367
S'        self.menu = []             # used by the default view layout'
p113
sI368
S'        self.files = []            # used by web2py_ajax.html'
p114
sI369
S'        self.generic_patterns = []  # patterns to allow generic views'
p115
sI370
S"        self.delimiters = ('{{', '}}')"
p116
sI371
S'        self._vars = None'
p117
sI372
S'        self._caller = lambda f: f()'
p118
sI373
S'        self._view_environment = None'
p119
sI374
S'        self._custom_commit = None'
p120
sI375
S'        self._custom_rollback = None'
p121
sI376
S''
ssg86
S'(f=<function new_dates>)'
p122
sg88
S'<lambda>'
p123
sa(dp124
g65
S'/home/leo/Dropbox/web2py/gluon/tools.py'
p125
sg67
(dp126
S'action'
p127
S'<function new_dates>'
p128
sS'a'
S'()'
p129
sS'b'
g21
ssg73
I3239
sg74
(dp130
I3234
S'                    flag = condition'
p131
sI3235
S'                if not flag:'
p132
sI3236
S'                    current.session.flash = self.messages.access_denied'
p133
sI3237
S'                    return call_or_redirect('
p134
sI3238
S'                        self.settings.on_failed_authorization)'
p135
sI3239
S'                return action(*a, **b)'
p136
sI3240
S'            f.__doc__ = action.__doc__'
p137
sI3241
S'            f.__name__ = action.__name__'
p138
sI3242
S'            f.__dict__.update(action.__dict__)'
p139
sI3243
S'            return f'
p140
ssg86
S'(*a=(), **b={})'
p141
sg88
S'f'
sa(dp142
g65
S'/home/leo/Dropbox/web2py/applications/SEACAT_ingresos/controllers/default.py'
p143
sg67
(dp144
S'form'
p145
S'<gluon.sqlhtml.SQLFORM object>'
p146
sS'global validate_gral_dates'
p147
S'<function validate_gral_dates>'
p148
sS'onvalidation'
p149
g110
sS'form.process'
p150
S'<bound method SQLFORM.process of <gluon.sqlhtml.SQLFORM object>>'
p151
sS').accepted'
p152
g110
sS'formname'
p153
g110
ssg73
I299
sg74
(dp154
I294
S'        #if not row.start_time:'
p155
sI295
S"        form.vars[fieldtype+'_start_time'] = row.start_time"
p156
sI296
S'        #if not row.end_time:'
p157
sI297
S"        form.vars[fieldtype+'_end_time'] = row.end_time"
p158
sI298
S''
sI299
S"    if form.process(formname='form', onvalidation=validate_gral_dates).accepted:"
p159
sI300
S'        for field, value in form.vars.items():'
p160
sI301
S'            fieldtype = ""'
p161
sI302
S'            date = ""'
p162
sI303
S'            start_time = ""'
p163
ssg86
S'()'
p164
sg88
S'new_dates'
p165
sa(dp166
g65
S'/home/leo/Dropbox/web2py/gluon/html.py'
p167
sg67
(dp168
S'self'
p169
S'<gluon.sqlhtml.SQLFORM object>'
p170
sS'self.validate'
p171
S'<bound method SQLFORM.validate of <gluon.sqlhtml.SQLFORM object>>'
p172
sS'kwargs'
p173
S"{'dbio': True, 'formname': 'form', 'onvalidation': <function validate_gral_dates>}"
p174
ssg73
I2215
sg74
(dp175
I2210
S'        def action():'
p176
sI2211
S'            return dict(form=SQLFORM(db.table).process(onsuccess=my_callback)'
p177
sI2212
S'        """'
p178
sI2213
S"        kwargs['dbio'] = kwargs.get('dbio', True)"
p179
sI2214
S'                                    # necessary for SQLHTML forms'
p180
sI2215
S'        self.validate(**kwargs)'
p181
sI2216
S'        return self'
p182
sI2217
S''
sI2218
S'    REDIRECT_JS = "window.location=\'%s\';return false"'
p183
sI2219
S''
ssg86
S"(self=<gluon.sqlhtml.SQLFORM object>, **kwargs={'dbio': True, 'formname': 'form', 'onvalidation': <function validate_gral_dates>})"
p184
sg88
S'process'
p185
sa(dp186
g65
S'/home/leo/Dropbox/web2py/gluon/html.py'
p187
sg67
(dp188
S'self'
p189
S'<gluon.sqlhtml.SQLFORM object>'
p190
sS'self.accepts'
p191
S'<bound method SQLFORM.accepts of <gluon.sqlhtml.SQLFORM object>>'
p192
sS'kwargs'
p193
S"{'dbio': True, 'formname': 'form', 'onvalidation': <function validate_gral_dates>, 'request_vars': <Storage {'Cierre_de_Inscripciones_date': '10-02...13', 'Examen_de_Matem\\xc3\\xa1tica_end_time': ''}>, 'session': <Storage {'_formkey[form]': ['3211d7d4-2e49-44fe...gin]': ['2392a714-9958-460d-9f6e-6c05b4504d67']}>}"
p194
ssg73
I2154
sg74
(dp195
I2149
S"        for key in ('message_onsuccess', 'message_onfailure', 'onsuccess',"
p196
sI2150
S"                    'onfailure', 'next', 'message_onchange', 'onchange'):"
p197
sI2151
S'            if key in kwargs:'
p198
sI2152
S'                del kwargs[key]'
p199
sI2153
S''
sI2154
S'        if self.accepts(**kwargs):'
p200
sI2155
S"            if onsuccess == 'flash':"
p201
sI2156
S'                if next:'
p202
sI2157
S'                    current.session.flash = message_onsuccess'
p203
sI2158
S'                else:'
p204
ssg86
S"(self=<gluon.sqlhtml.SQLFORM object>, **kwargs={'dbio': True, 'formname': 'form', 'onvalidation': <function validate_gral_dates>, 'request_vars': <Storage {'Cierre_de_Inscripciones_date': '10-02...13', 'Examen_de_Matem\\xc3\\xa1tica_end_time': ''}>, 'session': <Storage {'_formkey[form]': ['3211d7d4-2e49-44fe...gin]': ['2392a714-9958-460d-9f6e-6c05b4504d67']}>})"
p205
sg88
S'validate'
p206
sa(dp207
g65
S'/home/leo/Dropbox/web2py/gluon/sqlhtml.py'
p208
sg67
(dp209
S'kwargs'
p210
g21
ssg73
I1375
sg74
(dp211
I1376
S'        )'
p212
sI1377
S''
sI1378
S'        self.deleted = \\'
p213
sI1379
S'            request_vars.get(self.FIELDNAME_REQUEST_DELETE, False)'
p214
sI1370
S'            session,'
p215
sI1371
S'            formname,'
p216
sI1372
S'            keepvalues,'
p217
sI1373
S'            onvalidation,'
p218
sI1374
S'            hideerror=hideerror,'
p219
sI1375
S'            **kwargs'
p220
ssg86
S"(self=<gluon.sqlhtml.SQLFORM object>, request_vars=<Storage {'Cierre_de_Inscripciones_date': '10-02...13', 'Examen_de_Matem\\xc3\\xa1tica_end_time': ''}>, session=<Storage {'_formkey[form]': ['3211d7d4-2e49-44fe...gin]': ['2392a714-9958-460d-9f6e-6c05b4504d67']}>, formname='form', keepvalues=False, onvalidation=<function validate_gral_dates>, dbio=True, hideerror=False, detect_record_change=False, **kwargs={})"
p221
sg88
S'accepts'
p222
sa(dp223
g65
S'/home/leo/Dropbox/web2py/gluon/html.py'
p224
sg67
(dp225
S'global call_as_list'
p226
S'<function call_as_list>'
p227
sS'self'
p228
S'<gluon.sqlhtml.SQLFORM object>'
p229
sS'onvalidation'
p230
S'<function validate_gral_dates>'
p231
ssg73
I2055
sg74
(dp232
I2050
S'                if changed:'
p233
sI2051
S'                    if onchange and self.record_changed and \\'
p234
sI2052
S'                            self.detect_record_change:'
p235
sI2053
S'                        call_as_list(onchange,self)'
p236
sI2054
S'            elif status:'
p237
sI2055
S'                call_as_list(onvalidation, self)'
p238
sI2056
S'        if self.errors:'
p239
sI2057
S'            status = False'
p240
sI2058
S'        if not session is None:'
p241
sI2059
S"            if hasattr(self, 'record_hash'):"
p242
ssg86
S"(self=<gluon.sqlhtml.SQLFORM object>, request_vars=<Storage {'Cierre_de_Inscripciones_date': '10-02... '', 'Apertura_de_Inscripciones_start_time': ''}>, session=<Storage {'_formkey[form]': ['3211d7d4-2e49-44fe...gin]': ['2392a714-9958-460d-9f6e-6c05b4504d67']}>, formname='form', keepvalues=False, onvalidation=<function validate_gral_dates>, hideerror=False, **kwargs={})"
p243
sg88
g222
sa(dp244
g65
S'/home/leo/Dropbox/web2py/gluon/html.py'
p245
sg67
(dp246
S'a'
S'(<gluon.sqlhtml.SQLFORM object>,)'
p247
sS'item'
p248
S'<function validate_gral_dates>'
p249
sS'b'
g21
ssg73
I136
sg74
(dp250
I131
S''
sI132
S'def call_as_list(f,*a,**b):'
p251
sI133
S'    if not isinstance(f, (list,tuple)):'
p252
sI134
S'        f = [f]'
p253
sI135
S'    for item in f:'
p254
sI136
S'        item(*a,**b)'
p255
sI137
S''
sI138
S"def truncate_string(text, length, dots='...'):"
p256
sI139
S"    text = text.decode('utf-8')"
p257
sI140
S'    if len(text) > length:'
p258
ssg86
S'(f=[<function validate_gral_dates>], *a=(<gluon.sqlhtml.SQLFORM object>,), **b={})'
p259
sg88
S'call_as_list'
p260
sa(dp261
g65
S'/home/leo/Dropbox/web2py/applications/SEACAT_ingresos/controllers/default.py'
p262
sg67
(dp263
S'form.vars.selected_year'
p264
S"'2013'"
p265
sS'form.vars'
p266
S"<Storage {'Cierre_de_Inscripciones_date': dateti...), 'Examen_de_Matem\\xc3\\xa1tica_end_time': None}>"
p267
sS'form'
p268
S'<gluon.sqlhtml.SQLFORM object>'
p269
sS'builtinstr'
p270
S"<type 'str'>"
p271
sS').replace'
p272
g110
sS'global GENERAL_DATE_TYPE'
p273
S'[<lazyT \'Open Enrollment\'>, <lazyT \'Enrollment Deadline\'>, <lazyT \'Deadline for Priority\'>, <lazyT \'First Parent Meeting (First Date)\'>, <lazyT \'First Parent Meeting (Second Date)\'>, <lazyT \'Language Exam\'>, <lazyT \'Math Exam\'>, <lazyT \'Report Cards Presentation Deadline\'>, <lazyT "Pre-Registered List\'s Publication">]'
p274
sS'builtinint'
p275
S"<type 'int'>"
p276
ssg73
I242
sg74
(dp277
I237
S'        #db.date.insert(**db.date._filter_fields(form.vars))'
p278
sI238
S'        response.flash = T("Record inserted")'
p279
sI239
S'    return dict(form=form)'
p280
sI240
S''
sI241
S'def validate_gral_dates(form):'
p281
sI242
S"    if int(form.vars.selected_year) != form.vars[str(GENERAL_DATE_TYPE[0]).replace(' ','_')+'_date'].year:"
p282
sI243
S'        form.errors.form.vars[str(GENERAL_DATE_TYPE[0]).replace(\' \',\'_\')+\'_date\'] = T("The date must equals the year selected")'
p283
sI244
S'        pass'
p284
sI245
S''
sI246
S"@auth.requires_permission('create', db.date)"
p285
ssg86
S'(form=<gluon.sqlhtml.SQLFORM object>)'
p286
sg88
S'validate_gral_dates'
p287
sa(dp288
g65
S'/home/leo/Dropbox/web2py/applications/SEACAT_ingresos/controllers/default.py'
p289
sg67
(dp290
S'form.vars.selected_year'
p291
S"'2013'"
p292
sS'form.vars'
p293
S"<Storage {'Cierre_de_Inscripciones_date': dateti...), 'Examen_de_Matem\\xc3\\xa1tica_end_time': None}>"
p294
sS'form'
p295
S'<gluon.sqlhtml.SQLFORM object>'
p296
sS'builtinstr'
p297
S"<type 'str'>"
p298
sS').replace'
p299
g110
sS'global GENERAL_DATE_TYPE'
p300
S'[<lazyT \'Open Enrollment\'>, <lazyT \'Enrollment Deadline\'>, <lazyT \'Deadline for Priority\'>, <lazyT \'First Parent Meeting (First Date)\'>, <lazyT \'First Parent Meeting (Second Date)\'>, <lazyT \'Language Exam\'>, <lazyT \'Math Exam\'>, <lazyT \'Report Cards Presentation Deadline\'>, <lazyT "Pre-Registered List\'s Publication">]'
p301
sS'builtinint'
p302
S"<type 'int'>"
p303
ssg73
I242
sg74
(dp304
I237
S'        #db.date.insert(**db.date._filter_fields(form.vars))'
p305
sI238
S'        response.flash = T("Record inserted")'
p306
sI239
S'    return dict(form=form)'
p307
sI240
S''
sI241
S'def validate_gral_dates(form):'
p308
sI242
S"    if int(form.vars.selected_year) != form.vars[str(GENERAL_DATE_TYPE[0]).replace(' ','_')+'_date'].year:"
p309
sI243
S'        form.errors.form.vars[str(GENERAL_DATE_TYPE[0]).replace(\' \',\'_\')+\'_date\'] = T("The date must equals the year selected")'
p310
sI244
S'        pass'
p311
sI245
S''
sI246
S"@auth.requires_permission('create', db.date)"
p312
ssg86
S'(form=<gluon.sqlhtml.SQLFORM object>)'
p313
sg88
g287
sa(dp314
g65
S'/home/leo/Dropbox/web2py/gluon/contrib/qdb.py'
p315
sg67
(dp316
S'self.dispatch_line'
p317
S'<bound method Qdb.dispatch_line of <gluon.contrib.qdb.Qdb instance>>'
p318
sS'self'
p319
S'<gluon.contrib.qdb.Qdb instance>'
p320
sS'frame'
p321
S'<frame object>'
p322
ssg73
I89
sg74
(dp323
I84
S'            self.pull_actions()'
p324
sI85
S'        # process the frame (see Bdb.trace_dispatch)'
p325
sI86
S'        if self.quitting:'
p326
sI87
S'            return  # None'
p327
sI88
S"        if event == 'line':"
p328
sI89
S'            return self.dispatch_line(frame)'
p329
sI90
S"        if event == 'call':"
p330
sI91
S'            return self.dispatch_call(frame, arg)'
p331
sI92
S"        if event == 'return':"
p332
sI93
S'            return self.dispatch_return(frame, arg)'
p333
ssg86
S"(self=<gluon.contrib.qdb.Qdb instance>, frame=<frame object>, event='line', arg=None)"
p334
sg88
S'trace_dispatch'
p335
sa(dp336
g65
S'/usr/lib/python2.7/bdb.py'
p337
sg67
(dp338
S'self'
p339
S'<gluon.contrib.qdb.Qdb instance>'
p340
sS'self.quitting'
p341
S'1'
sS'global BdbQuit'
p342
S"<class 'bdb.BdbQuit'>"
p343
ssg73
I68
sg74
(dp344
I64
S''
sI65
S'    def dispatch_line(self, frame):'
p345
sI66
S'        if self.stop_here(frame) or self.break_here(frame):'
p346
sI67
S'            self.user_line(frame)'
p347
sI68
S'            if self.quitting: raise BdbQuit'
p348
sI69
S'        return self.trace_dispatch'
p349
sI70
S''
sI71
S'    def dispatch_call(self, frame, arg):'
p350
sI72
S"        # XXX 'arg' is no longer used"
p351
sI63
S'        return self.trace_dispatch'
p352
ssg86
S'(self=<gluon.contrib.qdb.Qdb instance>, frame=<frame object>)'
p353
sg88
S'dispatch_line'
p354
sasS'pyver'
p355
S'Python 2.7.3: /usr/bin/python (prefix: /usr)'
p356
sS'session'
p357
g60
(S's\x17\x0e\x00\x00<div><table><tr><td style="font-weight:bold;vertical-align:top;">auth</td><td style="vertical-align:top;">:</td><td><div><table><tr><td style="font-weight:bold;vertical-align:top;">expiration</td><td style="vertical-align:top;">:</td><td><div>3600</div></td></tr><tr><td style="font-weight:bold;vertical-align:top;">hmac_key</td><td style="vertical-align:top;">:</td><td><div>025ac213-da02-42ec-a39c-027fba1ddf2f</div></td></tr><tr><td style="font-weight:bold;vertical-align:top;">last_visit</td><td style="vertical-align:top;">:</td><td><div>datetime.datetime(2014, 2, 12, 12, 49, 4, 765528)</div></td></tr><tr><td style="font-weight:bold;vertical-align:top;">remember</td><td style="vertical-align:top;">:</td><td><div>False</div></td></tr><tr><td style="font-weight:bold;vertical-align:top;">user</td><td style="vertical-align:top;">:</td><td><div><table><tr><td style="font-weight:bold;vertical-align:top;">created_by</td><td style="vertical-align:top;">:</td><td><div>1L</div></td></tr><tr><td style="font-weight:bold;vertical-align:top;">created_on</td><td style="vertical-align:top;">:</td><td><div>datetime.datetime(2014, 1, 1, 0, 0)</div></td></tr><tr><td style="font-weight:bold;vertical-align:top;">email</td><td style="vertical-align:top;">:</td><td><div>colomboleandro@pioix.edu.ar</div></td></tr><tr><td style="font-weight:bold;vertical-align:top;">first_name</td><td style="vertical-align:top;">:</td><td><div>Leandro</div></td></tr><tr><td style="font-weight:bold;vertical-align:top;">gender</td><td style="vertical-align:top;">:</td><td><div>Masculino</div></td></tr><tr><td style="font-weight:bold;vertical-align:top;">id</td><td style="vertical-align:top;">:</td><td><div>1L</div></td></tr><tr><td style="font-weight:bold;vertical-align:top;">is_active</td><td style="vertical-align:top;">:</td><td><div>True</div></td></tr><tr><td style="font-weight:bold;vertical-align:top;">last_login</td><td style="vertical-align:top;">:</td><td><div>datetime.datetime(2014, 2, 12, 12, 17, 37)</div></td></tr><tr><td style="font-weight:bold;vertical-align:top;">last_name</td><td style="vertical-align:top;">:</td><td><div>Colombo Vi\xc3\xb1a</div></td></tr><tr><td style="font-weight:bold;vertical-align:top;">middle_name</td><td style="vertical-align:top;">:</td><td><div>Enrique</div></td></tr><tr><td style="font-weight:bold;vertical-align:top;">modified_by</td><td style="vertical-align:top;">:</td><td><div>1L</div></td></tr><tr><td style="font-weight:bold;vertical-align:top;">modified_on</td><td style="vertical-align:top;">:</td><td><div>datetime.datetime(2014, 2, 12, 12, 17, 37)</div></td></tr><tr><td style="font-weight:bold;vertical-align:top;">obs</td><td style="vertical-align:top;">:</td><td><div></div></td></tr><tr><td style="font-weight:bold;vertical-align:top;">registration_id</td><td style="vertical-align:top;">:</td><td><div></div></td></tr><tr><td style="font-weight:bold;vertical-align:top;">registration_key</td><td style="vertical-align:top;">:</td><td><div></div></td></tr><tr><td style="font-weight:bold;vertical-align:top;">reset_password_key</td><td style="vertical-align:top;">:</td><td><div></div></td></tr></table></div></td></tr><tr><td style="font-weight:bold;vertical-align:top;">user_groups</td><td style="vertical-align:top;">:</td><td><div><table><tr><td style="font-weight:bold;vertical-align:top;">1</td><td style="vertical-align:top;">:</td><td><div>root</div></td></tr></table></div></td></tr></table></div></td></tr><tr><td style="font-weight:bold;vertical-align:top;">flash</td><td style="vertical-align:top;">:</td><td><div>None</div></td></tr></table></div>'
tRp358
sS'etype'
p359
S"<class 'bdb.BdbQuit'>"
p360
sS'date'
p361
S'Wed Feb 12 13:00:53 2014'
p362
sS'response'
p363
g60
(S's$)\x00\x00<div><table><tr><td style="font-weight:bold;vertical-align:top;">body</td><td style="vertical-align:top;">:</td><td><div>&lt;cStringIO.StringO object at 0x5000928&gt;</div></td></tr><tr><td style="font-weight:bold;vertical-align:top;">cookies</td><td style="vertical-align:top;">:</td><td><div><table><tr><td style="font-weight:bold;vertical-align:top;">session_id_seacat_ingresos</td><td style="vertical-align:top;">:</td><td><div>10.0.0.13-e5d16dd4-141b-47ec-a9c9-ef9cfe583647<table><tr><td style="font-weight:bold;vertical-align:top;">comment</td><td style="vertical-align:top;">:</td><td><div></div></td></tr><tr><td style="font-weight:bold;vertical-align:top;">domain</td><td style="vertical-align:top;">:</td><td><div></div></td></tr><tr><td style="font-weight:bold;vertical-align:top;">expires</td><td style="vertical-align:top;">:</td><td><div></div></td></tr><tr><td style="font-weight:bold;vertical-align:top;">httponly</td><td style="vertical-align:top;">:</td><td><div></div></td></tr><tr><td style="font-weight:bold;vertical-align:top;">max-age</td><td style="vertical-align:top;">:</td><td><div></div></td></tr><tr><td style="font-weight:bold;vertical-align:top;">path</td><td style="vertical-align:top;">:</td><td><div>/</div></td></tr><tr><td style="font-weight:bold;vertical-align:top;">secure</td><td style="vertical-align:top;">:</td><td><div></div></td></tr><tr><td style="font-weight:bold;vertical-align:top;">version</td><td style="vertical-align:top;">:</td><td><div></div></td></tr></table></div></td></tr></table></div></td></tr><tr><td style="font-weight:bold;vertical-align:top;">delimiters</td><td style="vertical-align:top;">:</td><td><div><table><tr><td><div>{{</div></td></tr><tr><td><div>}}</div></td></tr></table></div></td></tr><tr><td style="font-weight:bold;vertical-align:top;">files</td><td style="vertical-align:top;">:</td><td><div><table></table></div></td></tr><tr><td style="font-weight:bold;vertical-align:top;">flash</td><td style="vertical-align:top;">:</td><td><div></div></td></tr><tr><td style="font-weight:bold;vertical-align:top;">generic_patterns</td><td style="vertical-align:top;">:</td><td><div><table></table></div></td></tr><tr><td style="font-weight:bold;vertical-align:top;">google_analytics_id</td><td style="vertical-align:top;">:</td><td><div>None</div></td></tr><tr><td style="font-weight:bold;vertical-align:top;">headers</td><td style="vertical-align:top;">:</td><td><div><table><tr><td style="font-weight:bold;vertical-align:top;">X-Powered-By</td><td style="vertical-align:top;">:</td><td><div>web2py</div></td></tr></table></div></td></tr><tr><td style="font-weight:bold;vertical-align:top;">logo</td><td style="vertical-align:top;">:</td><td><div><a class="brand" data-w2p_disable_with="default" href="/SEACAT_ingresos/default/index"><img alt="Logo de SEACAT" src="/SEACAT_ingresos/static/Logo_seacat_mini.png" /></a></div></td></tr><tr><td style="font-weight:bold;vertical-align:top;">menu</td><td style="vertical-align:top;">:</td><td><div><table><tr><td><div><table><tr><td><div>P\xc3\xa1gina Principal</div></td></tr><tr><td><div>False</div></td></tr><tr><td><div>/SEACAT_ingresos/default/index</div></td></tr><tr><td><div><table></table></div></td></tr></table></div></td></tr><tr><td><div><table><tr><td><div>Nuevo</div></td></tr><tr><td><div>False</div></td></tr><tr><td><div>None</div></td></tr><tr><td><div><table><tr><td><div><table><tr><td><div>Fecha</div></td></tr><tr><td><div>False</div></td></tr><tr><td><div>None</div></td></tr><tr><td><div>[[&#x27;General&#x27;, False, &#x27;/SEACAT_ingresos/default/new_dates&#x27;], [&lt;lazyT &#x27;Turns&#x27;&gt;, False, &#x27;/SEACAT_ingresos/default/new_turn&#x27;]]</div></td></tr></table></div></td></tr><tr><td><div><table><tr><td><div>Usuario</div></td></tr><tr><td><div>False</div></td></tr><tr><td><div>/SEACAT_ingresos/admin/new_user</div></td></tr></table></div></td></tr></table></div></td></tr></table></div></td></tr><tr><td><div><table><tr><td><div><span class="highlighted">Administrar</span></div></td></tr><tr><td><div>False</div></td></tr><tr><td><div>None</div></td></tr><tr><td><div><table><tr><td><div><table><tr><td><div>Base de Datos</div></td></tr><tr><td><div>False</div></td></tr><tr><td><div>/SEACAT_ingresos/appadmin/index</div></td></tr></table></div></td></tr><tr><td><div><table><tr><td><div>Subir Imagen</div></td></tr><tr><td><div>False</div></td></tr><tr><td><div>/SEACAT_ingresos/admin/upload_image</div></td></tr></table></div></td></tr><tr><td><div><table><tr><td><div>Usuarios</div></td></tr><tr><td><div>False</div></td></tr><tr><td><div>/SEACAT_ingresos/admin/admin_users</div></td></tr></table></div></td></tr><tr><td><div><table><tr><td><div>Grupos de Usuarios</div></td></tr><tr><td><div>False</div></td></tr><tr><td><div>/SEACAT_ingresos/admin/admin_user_groups</div></td></tr></table></div></td></tr><tr><td><div><table><tr><td><div>Membres\xc3\xadas de Usuarios</div></td></tr><tr><td><div>False</div></td></tr><tr><td><div>/SEACAT_ingresos/admin/admin_user_memberships</div></td></tr></table></div></td></tr><tr><td><div><table><tr><td><div>Permisos de Usuarios</div></td></tr><tr><td><div>False</div></td></tr><tr><td><div>/SEACAT_ingresos/admin/admin_user_permissions</div></td></tr></table></div></td></tr></table></div></td></tr></table></div></td></tr><tr><td><div><table><tr><td><div>Vista</div></td></tr><tr><td><div>False</div></td></tr><tr><td><div>None</div></td></tr><tr><td><div><table><tr><td><div><table><tr><td><div>Lista de Usuarios</div></td></tr><tr><td><div>False</div></td></tr><tr><td><div>/SEACAT_ingresos/admin/users_list</div></td></tr></table></div></td></tr><tr><td><div><table><tr><td><div>Lista de Fechas</div></td></tr><tr><td><div>False</div></td></tr><tr><td><div>/SEACAT_ingresos/admin/dates_list</div></td></tr></table></div></td></tr><tr><td><div><table><tr><td><div>Lista de Fechas Generales</div></td></tr><tr><td><div>False</div></td></tr><tr><td><div>/SEACAT_ingresos/admin/general_dates_list</div></td></tr></table></div></td></tr></table></div></td></tr></table></div></td></tr><tr><td><div><table><tr><td><div>Ayuda</div></td></tr><tr><td><div>False</div></td></tr><tr><td><div>/SEACAT_ingresos/default/help</div></td></tr><tr><td><div><table></table></div></td></tr></table></div></td></tr></table></div></td></tr><tr><td style="font-weight:bold;vertical-align:top;">meta</td><td style="vertical-align:top;">:</td><td><div><table><tr><td style="font-weight:bold;vertical-align:top;">author</td><td style="vertical-align:top;">:</td><td><div>Leandro E. Colombo Vi\xc3\xb1a &lt;colomboleandro@pioix.edu.ar&gt;</div></td></tr><tr><td style="font-weight:bold;vertical-align:top;">description</td><td style="vertical-align:top;">:</td><td><div>Sistema de Inscripciones para el Colegio P\xc3\xado IX</div></td></tr><tr><td style="font-weight:bold;vertical-align:top;">generator</td><td style="vertical-align:top;">:</td><td><div>Web2py Web Framework</div></td></tr><tr><td style="font-weight:bold;vertical-align:top;">keywords</td><td style="vertical-align:top;">:</td><td><div>Inscripciones, P\xc3\xado IX, Ingresantes, SEACAT</div></td></tr></table></div></td></tr><tr><td style="font-weight:bold;vertical-align:top;">models_to_run</td><td style="vertical-align:top;">:</td><td><div><table><tr><td><div>^\\w+\\.py$</div></td></tr><tr><td><div>^default/\\w+\\.py$</div></td></tr><tr><td><div>^default/new_dates/\\w+\\.py$</div></td></tr></table></div></td></tr><tr><td style="font-weight:bold;vertical-align:top;">postprocessing</td><td style="vertical-align:top;">:</td><td><div><table></table></div></td></tr><tr><td style="font-weight:bold;vertical-align:top;">session_client</td><td style="vertical-align:top;">:</td><td><div>10.0.0.13</div></td></tr><tr><td style="font-weight:bold;vertical-align:top;">session_cookie_compression_level</td><td style="vertical-align:top;">:</td><td><div>None</div></td></tr><tr><td style="font-weight:bold;vertical-align:top;">session_cookie_expires</td><td style="vertical-align:top;">:</td><td><div>None</div></td></tr><tr><td style="font-weight:bold;vertical-align:top;">session_cookie_key</td><td style="vertical-align:top;">:</td><td><div>None</div></td></tr><tr><td style="font-weight:bold;vertical-align:top;">session_data_name</td><td style="vertical-align:top;">:</td><td><div>session_data_seacat_ingresos</div></td></tr><tr><td style="font-weight:bold;vertical-align:top;">session_file</td><td style="vertical-align:top;">:</td><td><div>&lt;open file &#x27;/home/leo/Dropbox/web2py/applications/SEACAT_ingresos/sessions/10.0.0.13-e5d16dd4-141b-47ec-a9c9-ef9cfe583647&#x27;, mode &#x27;rb+&#x27; at 0x4511ed0&gt;</div></td></tr><tr><td style="font-weight:bold;vertical-align:top;">session_filename</td><td style="vertical-align:top;">:</td><td><div>/home/leo/Dropbox/web2py/applications/SEACAT_ingresos/sessions/10.0.0.13-e5d16dd4-141b-47ec-a9c9-ef9cfe583647</div></td></tr><tr><td style="font-weight:bold;vertical-align:top;">session_hash</td><td style="vertical-align:top;">:</td><td><div>a09e05e26d91e280656f56f9c5d3e733</div></td></tr><tr><td style="font-weight:bold;vertical-align:top;">session_id</td><td style="vertical-align:top;">:</td><td><div>10.0.0.13-e5d16dd4-141b-47ec-a9c9-ef9cfe583647</div></td></tr><tr><td style="font-weight:bold;vertical-align:top;">session_id_name</td><td style="vertical-align:top;">:</td><td><div>session_id_seacat_ingresos</div></td></tr><tr><td style="font-weight:bold;vertical-align:top;">session_locked</td><td style="vertical-align:top;">:</td><td><div>True</div></td></tr><tr><td style="font-weight:bold;vertical-align:top;">session_masterapp</td><td style="vertical-align:top;">:</td><td><div>SEACAT_ingresos</div></td></tr><tr><td style="font-weight:bold;vertical-align:top;">session_new</td><td style="vertical-align:top;">:</td><td><div>False</div></td></tr><tr><td style="font-weight:bold;vertical-align:top;">session_storage_type</td><td style="vertical-align:top;">:</td><td><div>file</div></td></tr><tr><td style="font-weight:bold;vertical-align:top;">status</td><td style="vertical-align:top;">:</td><td><div>200</div></td></tr><tr><td style="font-weight:bold;vertical-align:top;">subtitle</td><td style="vertical-align:top;">:</td><td><div>v.0.0.1b</div></td></tr><tr><td style="font-weight:bold;vertical-align:top;">title</td><td style="vertical-align:top;">:</td><td><div>SEACAT</div></td></tr><tr><td style="font-weight:bold;vertical-align:top;">view</td><td style="vertical-align:top;">:</td><td><div>default/new_dates.html</div></td></tr></table></div>'
tRp364
sS'locals'
p365
(dp366
S'frame'
p367
S'<frame object>'
p368
sS'self'
p369
S'<gluon.contrib.qdb.Qdb instance>'
p370
sssS'traceback'
p371
S'Traceback (most recent call last):\n  File "/home/leo/Dropbox/web2py/gluon/restricted.py", line 217, in restricted\n    exec ccode in environment\n  File "/home/leo/Dropbox/web2py/applications/SEACAT_ingresos/controllers/default.py", line 325, in <module>\n  File "/home/leo/Dropbox/web2py/gluon/globals.py", line 372, in <lambda>\n    self._caller = lambda f: f()\n  File "/home/leo/Dropbox/web2py/gluon/tools.py", line 3239, in f\n    return action(*a, **b)\n  File "/home/leo/Dropbox/web2py/applications/SEACAT_ingresos/controllers/default.py", line 299, in new_dates\n    if form.process(formname=\'form\', onvalidation=validate_gral_dates).accepted:\n  File "/home/leo/Dropbox/web2py/gluon/html.py", line 2215, in process\n    self.validate(**kwargs)\n  File "/home/leo/Dropbox/web2py/gluon/html.py", line 2154, in validate\n    if self.accepts(**kwargs):\n  File "/home/leo/Dropbox/web2py/gluon/sqlhtml.py", line 1375, in accepts\n    **kwargs\n  File "/home/leo/Dropbox/web2py/gluon/html.py", line 2055, in accepts\n    call_as_list(onvalidation, self)\n  File "/home/leo/Dropbox/web2py/gluon/html.py", line 136, in call_as_list\n    item(*a,**b)\n  File "/home/leo/Dropbox/web2py/applications/SEACAT_ingresos/controllers/default.py", line 242, in validate_gral_dates\n    if int(form.vars.selected_year) != form.vars[str(GENERAL_DATE_TYPE[0]).replace(\' \',\'_\')+\'_date\'].year:\n  File "/home/leo/Dropbox/web2py/applications/SEACAT_ingresos/controllers/default.py", line 242, in validate_gral_dates\n    if int(form.vars.selected_year) != form.vars[str(GENERAL_DATE_TYPE[0]).replace(\' \',\'_\')+\'_date\'].year:\n  File "/home/leo/Dropbox/web2py/gluon/contrib/qdb.py", line 89, in trace_dispatch\n    return self.dispatch_line(frame)\n  File "/usr/lib/python2.7/bdb.py", line 68, in dispatch_line\n    if self.quitting: raise BdbQuit\nBdbQuit\n'
p372
s.