(dp1
S'output'
p2
S"<class 'socket.timeout'> timed out"
p3
sS'layer'
p4
S'D:\\Usuarios\\Leo\\Mis Documentos\\Dropbox\\web2py\\applications\\SEACAT_ingresos\\models\\menu.py'
p5
sS'code'
p6
S'# -*- coding: utf-8 -*-\n# this file is released under public domain and you can use without limitations\n\n#########################################################################\n## Customize your APP title, subtitle and menus here\n#########################################################################\n\n#response.logo = A(B(\'web\',SPAN(2),\'py\'),XML(\'&trade;&nbsp;\'),\n#                  _class="brand",_href="http://www.web2py.com/")\n#response.title = request.application.replace(\'_\',\' \').title()\n#response.subtitle = T(\'customize me!\')\n\n## read more at http://dev.w3.org/html5/markup/meta.name.html\n#response.meta.author = \'Your Name <you@example.com>\'\n#response.meta.description = \'a cool new app\'\n#response.meta.keywords = \'web2py, python, framework\'\n#response.meta.generator = \'Web2py Web Framework\'\n\n## your http://google.com/analytics id\nresponse.google_analytics_id = None\n\n#########################################################################\n## My Own APP Title, subtitle and menu!\n#########################################################################\nresponse.logo = A(IMG(_src=URL(\'static\', \'Logo_seacat_mini.png\'), \n                      _alt="Logo de SEACAT"), \n                  _class="brand", \n                  _href=URL(\'default\', \'index\'))\nresponse.title = \'SEACAT\'\nresponse.subtitle = \'v.0.0.1b\'\n\nresponse.meta.author = \'Leandro E. Colombo Vi\xc3\xb1a <colomboleandro@pioix.edu.ar>\'\nresponse.meta.description = \'Sistema de Inscripciones para el Colegio P\xc3\xado IX\'\nresponse.meta.keywords = \'Inscripciones, P\xc3\xado IX, Ingresantes, SEACAT\'\nresponse.meta.generator = \'Web2py Web Framework\'\n\n#########################################################################\n## this is the main application menu add/remove items as required\n#########################################################################\n\nresponse.menu = [\n    (T(\'Home\'), False, URL(\'default\', \'index\'), [])\n]\n\nDEVELOPMENT_MENU = True\n\n#########################################################################\n## provide shortcuts for development. remove in production\n#########################################################################\n\ndef _():\n    # shortcuts\n    app = request.application\n    ctr = request.controller\n    # useful links to internal and external resources\n    response.menu += [\n        (SPAN(\'web2py\', _class=\'highlighted\'), False, \'http://web2py.com\', [\n        (T(\'My Sites\'), False, URL(\'admin\', \'default\', \'site\')),\n        (T(\'This App\'), False, URL(\'admin\', \'default\', \'design/%s\' % app), [\n        (T(\'Controller\'), False,\n         URL(\n         \'admin\', \'default\', \'edit/%s/controllers/%s.py\' % (app, ctr))),\n        (T(\'View\'), False,\n         URL(\n         \'admin\', \'default\', \'edit/%s/views/%s\' % (app, response.view))),\n        (T(\'Layout\'), False,\n         URL(\n         \'admin\', \'default\', \'edit/%s/views/layout.html\' % app)),\n        (T(\'Stylesheet\'), False,\n         URL(\n         \'admin\', \'default\', \'edit/%s/static/css/web2py.css\' % app)),\n        (T(\'DB Model\'), False,\n         URL(\n         \'admin\', \'default\', \'edit/%s/models/db.py\' % app)),\n        (T(\'Menu Model\'), False,\n         URL(\n         \'admin\', \'default\', \'edit/%s/models/menu.py\' % app)),\n        (T(\'Database\'), False, URL(app, \'appadmin\', \'index\')),\n        (T(\'Errors\'), False, URL(\n         \'admin\', \'default\', \'errors/\' + app)),\n        (T(\'About\'), False, URL(\n         \'admin\', \'default\', \'about/\' + app)),\n        ]),\n            (\'web2py.com\', False, \'http://www.web2py.com\', [\n             (T(\'Download\'), False,\n              \'http://www.web2py.com/examples/default/download\'),\n             (T(\'Support\'), False,\n              \'http://www.web2py.com/examples/default/support\'),\n             (T(\'Demo\'), False, \'http://web2py.com/demo_admin\'),\n             (T(\'Quick Examples\'), False,\n              \'http://web2py.com/examples/default/examples\'),\n             (T(\'FAQ\'), False, \'http://web2py.com/AlterEgo\'),\n             (T(\'Videos\'), False,\n              \'http://www.web2py.com/examples/default/videos/\'),\n             (T(\'Free Applications\'),\n              False, \'http://web2py.com/appliances\'),\n             (T(\'Plugins\'), False, \'http://web2py.com/plugins\'),\n             (T(\'Layouts\'), False, \'http://web2py.com/layouts\'),\n             (T(\'Recipes\'), False, \'http://web2pyslices.com/\'),\n             (T(\'Semantic\'), False, \'http://web2py.com/semantic\'),\n             ]),\n            (T(\'Documentation\'), False, \'http://www.web2py.com/book\', [\n             (T(\'Preface\'), False,\n              \'http://www.web2py.com/book/default/chapter/00\'),\n             (T(\'Introduction\'), False,\n              \'http://www.web2py.com/book/default/chapter/01\'),\n             (T(\'Python\'), False,\n              \'http://www.web2py.com/book/default/chapter/02\'),\n             (T(\'Overview\'), False,\n              \'http://www.web2py.com/book/default/chapter/03\'),\n             (T(\'The Core\'), False,\n              \'http://www.web2py.com/book/default/chapter/04\'),\n             (T(\'The Views\'), False,\n              \'http://www.web2py.com/book/default/chapter/05\'),\n             (T(\'Database\'), False,\n              \'http://www.web2py.com/book/default/chapter/06\'),\n             (T(\'Forms and Validators\'), False,\n              \'http://www.web2py.com/book/default/chapter/07\'),\n             (T(\'Email and SMS\'), False,\n              \'http://www.web2py.com/book/default/chapter/08\'),\n             (T(\'Access Control\'), False,\n              \'http://www.web2py.com/book/default/chapter/09\'),\n             (T(\'Services\'), False,\n              \'http://www.web2py.com/book/default/chapter/10\'),\n             (T(\'Ajax Recipes\'), False,\n              \'http://www.web2py.com/book/default/chapter/11\'),\n             (T(\'Components and Plugins\'), False,\n              \'http://www.web2py.com/book/default/chapter/12\'),\n             (T(\'Deployment Recipes\'), False,\n              \'http://www.web2py.com/book/default/chapter/13\'),\n             (T(\'Other Recipes\'), False,\n              \'http://www.web2py.com/book/default/chapter/14\'),\n             (T(\'Buy this book\'), False,\n              \'http://stores.lulu.com/web2py\'),\n             ]),\n            (T(\'Community\'), False, None, [\n             (T(\'Groups\'), False,\n              \'http://www.web2py.com/examples/default/usergroups\'),\n                        (T(\'Twitter\'), False, \'http://twitter.com/web2py\'),\n                        (T(\'Live Chat\'), False,\n                         \'http://webchat.freenode.net/?channels=web2py\'),\n                        ]),\n                (T(\'Plugins\'), False, None, [\n                        (\'plugin_wiki\', False,\n                         \'http://web2py.com/examples/default/download\'),\n                        (T(\'Other Plugins\'), False,\n                         \'http://web2py.com/plugins\'),\n                        (T(\'Layout Plugins\'),\n                         False, \'http://web2py.com/layouts\'),\n                        ])\n                ]\n         )]\n\n    ## Adding features according to user membership\n    if auth.has_membership(\'root\'):\n        response.menu += [\n                          (SPAN(T("Root Menu"), _class=\'highlighted\'), False, None, [\n                                                                                     (T("Admin App"), False, URL(request.application, \'appadmin\', \'index\')),\n                                                                                     (T("Admin Users"), False, URL(\'admin_users\')),\n                                                                                     (T("Admin Groups"), False, URL(\'admin_user_groups\')),\n                                                                                     (T("Admin Memberships"), False, URL(\'admin_user_memberships\')),\n                                                                                     (T("Admin Permissions"), False, URL(\'admin_user_permissions\'))\n                                                                                    ]\n                          )\n                         ]\n\n    if auth.has_permission(\'create new father\', db.auth_user):\n        response.menu += [\n                          (SPAN(T("New")), False, None, [\n                                                        (T("Father"), False, URL(\'new_father\'))\n                                                        ]\n                          )\n                         ]\n\n    if auth.has_permission(\'create new user\', db.auth_user):\n        response.menu += [\n                          (SPAN(T("New")), False, None, [\n                                                        (T("User"), False, URL(\'new_user\'))\n                                                        ]\n                          )\n                         ]\n\nif DEVELOPMENT_MENU: _()\n\n#if "auth" in locals(): auth.wikimenu()\n'
p7
sS'snapshot'
p8
(dp9
S'exception'
p10
(dp11
S'__module__'
p12
S"'socket'"
p13
sS'__getslice__'
p14
S"<method-wrapper '__getslice__' of timeout object>"
p15
sS'__str__'
p16
S"<method-wrapper '__str__' of timeout object>"
p17
sS'__reduce__'
p18
S'<built-in method __reduce__ of timeout object>'
p19
sS'__dict__'
p20
S'{}'
p21
sS'__sizeof__'
p22
S'<built-in method __sizeof__ of timeout object>'
p23
sS'__weakref__'
p24
S'None'
p25
sS'__init__'
p26
S"<method-wrapper '__init__' of timeout object>"
p27
sS'__setattr__'
p28
S"<method-wrapper '__setattr__' of timeout object>"
p29
sS'__reduce_ex__'
p30
S'<built-in method __reduce_ex__ of timeout object>'
p31
sS'__new__'
p32
S'<built-in method __new__ of type object>'
p33
sS'errno'
p34
S'None'
p35
sS'__format__'
p36
S'<built-in method __format__ of timeout object>'
p37
sS'__class__'
p38
S"<class 'socket.timeout'>"
p39
sS'filename'
p40
S'None'
p41
sS'__doc__'
p42
S'None'
p43
sS'__getitem__'
p44
S"<method-wrapper '__getitem__' of timeout object>"
p45
sS'__setstate__'
p46
S'<built-in method __setstate__ of timeout object>'
p47
sS'__getattribute__'
p48
S"<method-wrapper '__getattribute__' of timeout object>"
p49
sS'args'
p50
S"('timed out',)"
p51
sS'__subclasshook__'
p52
S'<built-in method __subclasshook__ of type object>'
p53
sS'__unicode__'
p54
S'<built-in method __unicode__ of timeout object>'
p55
sS'strerror'
p56
S'None'
p57
sS'__delattr__'
p58
S"<method-wrapper '__delattr__' of timeout object>"
p59
sS'__repr__'
p60
S"<method-wrapper '__repr__' of timeout object>"
p61
sS'__hash__'
p62
S"<method-wrapper '__hash__' of timeout object>"
p63
ssS'evalue'
p64
S'timed out'
p65
sS'request'
p66
cgluon.html
XML_unpickle
p67
(S's$a\x00\x00<div><table><tr><td style="font-weight:bold;vertical-align:top;">ajax</td><td style="vertical-align:top;">:</td><td><div>False</div></td></tr><tr><td style="font-weight:bold;vertical-align:top;">application</td><td style="vertical-align:top;">:</td><td><div>SEACAT_ingresos</div></td></tr><tr><td style="font-weight:bold;vertical-align:top;">args</td><td style="vertical-align:top;">:</td><td><div><table></table></div></td></tr><tr><td style="font-weight:bold;vertical-align:top;">cid</td><td style="vertical-align:top;">:</td><td><div>None</div></td></tr><tr><td style="font-weight:bold;vertical-align:top;">client</td><td style="vertical-align:top;">:</td><td><div>10.0.0.19</div></td></tr><tr><td style="font-weight:bold;vertical-align:top;">controller</td><td style="vertical-align:top;">:</td><td><div>default</div></td></tr><tr><td style="font-weight:bold;vertical-align:top;">cookies</td><td style="vertical-align:top;">:</td><td><div><table><tr><td style="font-weight:bold;vertical-align:top;">session_id_admin</td><td style="vertical-align:top;">:</td><td><div>10.0.0.19-1352923c-ddb6-4b27-936a-3c420351c593<table><tr><td style="font-weight:bold;vertical-align:top;">comment</td><td style="vertical-align:top;">:</td><td><div></div></td></tr><tr><td style="font-weight:bold;vertical-align:top;">domain</td><td style="vertical-align:top;">:</td><td><div></div></td></tr><tr><td style="font-weight:bold;vertical-align:top;">expires</td><td style="vertical-align:top;">:</td><td><div></div></td></tr><tr><td style="font-weight:bold;vertical-align:top;">httponly</td><td style="vertical-align:top;">:</td><td><div></div></td></tr><tr><td style="font-weight:bold;vertical-align:top;">max-age</td><td style="vertical-align:top;">:</td><td><div></div></td></tr><tr><td style="font-weight:bold;vertical-align:top;">path</td><td style="vertical-align:top;">:</td><td><div></div></td></tr><tr><td style="font-weight:bold;vertical-align:top;">secure</td><td style="vertical-align:top;">:</td><td><div></div></td></tr><tr><td style="font-weight:bold;vertical-align:top;">version</td><td style="vertical-align:top;">:</td><td><div></div></td></tr></table></div></td></tr><tr><td style="font-weight:bold;vertical-align:top;">session_id_seacat_ingresos</td><td style="vertical-align:top;">:</td><td><div>10.0.0.19-fb39e5f4-0daf-42dc-b192-77ca91017a82<table><tr><td style="font-weight:bold;vertical-align:top;">comment</td><td style="vertical-align:top;">:</td><td><div></div></td></tr><tr><td style="font-weight:bold;vertical-align:top;">domain</td><td style="vertical-align:top;">:</td><td><div></div></td></tr><tr><td style="font-weight:bold;vertical-align:top;">expires</td><td style="vertical-align:top;">:</td><td><div></div></td></tr><tr><td style="font-weight:bold;vertical-align:top;">httponly</td><td style="vertical-align:top;">:</td><td><div></div></td></tr><tr><td style="font-weight:bold;vertical-align:top;">max-age</td><td style="vertical-align:top;">:</td><td><div></div></td></tr><tr><td style="font-weight:bold;vertical-align:top;">path</td><td style="vertical-align:top;">:</td><td><div></div></td></tr><tr><td style="font-weight:bold;vertical-align:top;">secure</td><td style="vertical-align:top;">:</td><td><div></div></td></tr><tr><td style="font-weight:bold;vertical-align:top;">version</td><td style="vertical-align:top;">:</td><td><div></div></td></tr></table></div></td></tr><tr><td style="font-weight:bold;vertical-align:top;">session_id_welcome</td><td style="vertical-align:top;">:</td><td><div>10.0.0.19-4ca018b7-985d-404a-9b81-445fd72c9dda<table><tr><td style="font-weight:bold;vertical-align:top;">comment</td><td style="vertical-align:top;">:</td><td><div></div></td></tr><tr><td style="font-weight:bold;vertical-align:top;">domain</td><td style="vertical-align:top;">:</td><td><div></div></td></tr><tr><td style="font-weight:bold;vertical-align:top;">expires</td><td style="vertical-align:top;">:</td><td><div></div></td></tr><tr><td style="font-weight:bold;vertical-align:top;">httponly</td><td style="vertical-align:top;">:</td><td><div></div></td></tr><tr><td style="font-weight:bold;vertical-align:top;">max-age</td><td style="vertical-align:top;">:</td><td><div></div></td></tr><tr><td style="font-weight:bold;vertical-align:top;">path</td><td style="vertical-align:top;">:</td><td><div></div></td></tr><tr><td style="font-weight:bold;vertical-align:top;">secure</td><td style="vertical-align:top;">:</td><td><div></div></td></tr><tr><td style="font-weight:bold;vertical-align:top;">version</td><td style="vertical-align:top;">:</td><td><div></div></td></tr></table></div></td></tr></table></div></td></tr><tr><td style="font-weight:bold;vertical-align:top;">env</td><td style="vertical-align:top;">:</td><td><div><table><tr><td style="font-weight:bold;vertical-align:top;">HTTP_ACCEPT</td><td style="vertical-align:top;">:</td><td><div>text/html,application/xhtml+xml,application/xml;q=0.9,image/webp,*/*;q=0.8</div></td></tr><tr><td style="font-weight:bold;vertical-align:top;">HTTP_ACCEPT_ENCODING</td><td style="vertical-align:top;">:</td><td><div>gzip,deflate,sdch</div></td></tr><tr><td style="font-weight:bold;vertical-align:top;">HTTP_ACCEPT_LANGUAGE</td><td style="vertical-align:top;">:</td><td><div>es,es-419;q=0.8,en-US;q=0.6,en;q=0.4</div></td></tr><tr><td style="font-weight:bold;vertical-align:top;">HTTP_CONNECTION</td><td style="vertical-align:top;">:</td><td><div>keep-alive</div></td></tr><tr><td style="font-weight:bold;vertical-align:top;">HTTP_COOKIE</td><td style="vertical-align:top;">:</td><td><div>session_id_welcome=10.0.0.19-4ca018b7-985d-404a-9b81-445fd72c9dda; session_id_admin=10.0.0.19-1352923c-ddb6-4b27-936a-3c420351c593; session_id_seacat_ingresos=10.0.0.19-fb39e5f4-0daf-42dc-b192-77ca91017a82</div></td></tr><tr><td style="font-weight:bold;vertical-align:top;">HTTP_HOST</td><td style="vertical-align:top;">:</td><td><div>10.0.0.19:8000</div></td></tr><tr><td style="font-weight:bold;vertical-align:top;">HTTP_REFERER</td><td style="vertical-align:top;">:</td><td><div>http://10.0.0.19:8000/SEACAT_ingresos/default/start</div></td></tr><tr><td style="font-weight:bold;vertical-align:top;">HTTP_USER_AGENT</td><td style="vertical-align:top;">:</td><td><div>Mozilla/5.0 (Windows NT 6.1; WOW64) AppleWebKit/537.36 (KHTML, like Gecko) Chrome/31.0.1650.63 Safari/537.36</div></td></tr><tr><td style="font-weight:bold;vertical-align:top;">PATH_INFO</td><td style="vertical-align:top;">:</td><td><div>/SEACAT_ingresos/default/admin_users</div></td></tr><tr><td style="font-weight:bold;vertical-align:top;">QUERY_STRING</td><td style="vertical-align:top;">:</td><td><div></div></td></tr><tr><td style="font-weight:bold;vertical-align:top;">REMOTE_ADDR</td><td style="vertical-align:top;">:</td><td><div>10.0.0.19</div></td></tr><tr><td style="font-weight:bold;vertical-align:top;">REMOTE_PORT</td><td style="vertical-align:top;">:</td><td><div>50970</div></td></tr><tr><td style="font-weight:bold;vertical-align:top;">REQUEST_METHOD</td><td style="vertical-align:top;">:</td><td><div>GET</div></td></tr><tr><td style="font-weight:bold;vertical-align:top;">SCRIPT_NAME</td><td style="vertical-align:top;">:</td><td><div></div></td></tr><tr><td style="font-weight:bold;vertical-align:top;">SERVER_NAME</td><td style="vertical-align:top;">:</td><td><div>Larrea-W7</div></td></tr><tr><td style="font-weight:bold;vertical-align:top;">SERVER_PORT</td><td style="vertical-align:top;">:</td><td><div>8000</div></td></tr><tr><td style="font-weight:bold;vertical-align:top;">SERVER_PROTOCOL</td><td style="vertical-align:top;">:</td><td><div>HTTP/1.1</div></td></tr><tr><td style="font-weight:bold;vertical-align:top;">SERVER_SOFTWARE</td><td style="vertical-align:top;">:</td><td><div>Rocket 1.2.6</div></td></tr><tr><td style="font-weight:bold;vertical-align:top;">app_folders</td><td style="vertical-align:top;">:</td><td><div>set([&#x27;D:\\\\Usuarios\\\\Leo\\\\Mis Documentos\\\\Dropbox\\\\web2py\\\\applications\\\\welcome\\\\&#x27;, &#x27;D:\\\\Usuarios\\\\Leo\\\\Mis Documentos\\\\Dropbox\\\\web2py\\\\applications\\\\admin\\\\&#x27;, &#x27;D:\\\\Usuarios\\\\Leo\\\\Mis Documentos\\\\Dropbox\\\\web2py\\\\applications\\\\SEACAT_ingresos\\\\&#x27;])</div></td></tr><tr><td style="font-weight:bold;vertical-align:top;">applications_parent</td><td style="vertical-align:top;">:</td><td><div>D:\\Usuarios\\Leo\\Mis Documentos\\Dropbox\\web2py</div></td></tr><tr><td style="font-weight:bold;vertical-align:top;">cmd_args</td><td style="vertical-align:top;">:</td><td><div><table></table></div></td></tr><tr><td style="font-weight:bold;vertical-align:top;">cmd_options</td><td style="vertical-align:top;">:</td><td><div>&lt;Values at 0x383aa08: {&#x27;verbose&#x27;: False, &#x27;ip&#x27;: &#x27;127.0.0.1&#x27;, &#x27;debuglevel&#x27;: 30, &#x27;with_scheduler&#x27;: False, &#x27;ips&#x27;: [&#x27;fe80::2121:4df9:cfc2:896b%20&#x27;, &#x27;192.168.62.1&#x27;, &#x27;fe80::c00d:daa6:7e9b:759a%10&#x27;, &#x27;192.168.150.1&#x27;, &#x27;10.0.0.19&#x27;, &#x27;fe80::d86d:56c0:a307:313b%19&#x27;, &#x27;fe80::991a:a3f3:d9a1:8cb2%17&#x27;, &#x27;192.168.56.1&#x27;], &#x27;shutdown_timeout&#x27;: 5, &#x27;taskbar&#x27;: False, &#x27;with_coverage&#x27;: False, &#x27;port&#x27;: 8000, &#x27;maxthreads&#x27;: None, &#x27;softcron&#x27;: False, &#x27;server_name&#x27;: &#x27;Larrea-W7&#x27;, &#x27;bpython&#x27;: False, &#x27;nogui&#x27;: False, &#x27;pid_filename&#x27;: &#x27;httpserver.pid&#x27;, &#x27;extcron&#x27;: False, &#x27;runcron&#x27;: False, &#x27;run_system_tests&#x27;: False, &#x27;test&#x27;: None, &#x27;folder&#x27;: &#x27;D:\\\\Usuarios\\\\Leo\\\\Mis Documentos\\\\Dropbox\\\\web2py&#x27;, &#x27;config&#x27;: &#x27;&#x27;, &#x27;import_models&#x27;: False, &#x27;winservice&#x27;: &#x27;&#x27;, &#x27;shell&#x27;: None, &#x27;run&#x27;: &#x27;&#x27;, &#x27;log_filename&#x27;: &#x27;httpserver.log&#x27;, &#x27;profiler_dir&#x27;: None, &#x27;args&#x27;: [&#x27;&#x27;], &#x27;socket_timeout&#x27;: 5, &#x27;ssl_ca_certificate&#x27;: None, &#x27;scheduler&#x27;: None, &#x27;interfaces&#x27;: None, &#x27;ssl_private_key&#x27;: &#x27;&#x27;, &#x27;scheduler_groups&#x27;: None, &#x27;password&#x27;: &#x27;&lt;ask&gt;&#x27;, &#x27;request_queue_size&#x27;: 5, &#x27;ssl_certificate&#x27;: &#x27;&#x27;, &#x27;cronjob&#x27;: False, &#x27;numthreads&#x27;: None, &#x27;quiet&#x27;: False, &#x27;minthreads&#x27;: None, &#x27;timeout&#x27;: 10, &#x27;plain&#x27;: False, &#x27;nobanner&#x27;: False}&gt;</div></td></tr><tr><td style="font-weight:bold;vertical-align:top;">db_sessions</td><td style="vertical-align:top;">:</td><td><div>set([])</div></td></tr><tr><td style="font-weight:bold;vertical-align:top;">debugging</td><td style="vertical-align:top;">:</td><td><div>True</div></td></tr><tr><td style="font-weight:bold;vertical-align:top;">gluon_parent</td><td style="vertical-align:top;">:</td><td><div>D:\\Usuarios\\Leo\\Mis Documentos\\Dropbox\\web2py</div></td></tr><tr><td style="font-weight:bold;vertical-align:top;">http_accept</td><td style="vertical-align:top;">:</td><td><div>text/html,application/xhtml+xml,application/xml;q=0.9,image/webp,*/*;q=0.8</div></td></tr><tr><td style="font-weight:bold;vertical-align:top;">http_accept_encoding</td><td style="vertical-align:top;">:</td><td><div>gzip,deflate,sdch</div></td></tr><tr><td style="font-weight:bold;vertical-align:top;">http_accept_language</td><td style="vertical-align:top;">:</td><td><div>es,es-419;q=0.8,en-US;q=0.6,en;q=0.4</div></td></tr><tr><td style="font-weight:bold;vertical-align:top;">http_connection</td><td style="vertical-align:top;">:</td><td><div>keep-alive</div></td></tr><tr><td style="font-weight:bold;vertical-align:top;">http_cookie</td><td style="vertical-align:top;">:</td><td><div>session_id_welcome=10.0.0.19-4ca018b7-985d-404a-9b81-445fd72c9dda; session_id_admin=10.0.0.19-1352923c-ddb6-4b27-936a-3c420351c593; session_id_seacat_ingresos=10.0.0.19-fb39e5f4-0daf-42dc-b192-77ca91017a82</div></td></tr><tr><td style="font-weight:bold;vertical-align:top;">http_host</td><td style="vertical-align:top;">:</td><td><div>10.0.0.19:8000</div></td></tr><tr><td style="font-weight:bold;vertical-align:top;">http_referer</td><td style="vertical-align:top;">:</td><td><div>http://10.0.0.19:8000/SEACAT_ingresos/default/start</div></td></tr><tr><td style="font-weight:bold;vertical-align:top;">http_user_agent</td><td style="vertical-align:top;">:</td><td><div>Mozilla/5.0 (Windows NT 6.1; WOW64) AppleWebKit/537.36 (KHTML, like Gecko) Chrome/31.0.1650.63 Safari/537.36</div></td></tr><tr><td style="font-weight:bold;vertical-align:top;">is_jython</td><td style="vertical-align:top;">:</td><td><div>False</div></td></tr><tr><td style="font-weight:bold;vertical-align:top;">is_pypy</td><td style="vertical-align:top;">:</td><td><div>False</div></td></tr><tr><td style="font-weight:bold;vertical-align:top;">is_source</td><td style="vertical-align:top;">:</td><td><div>True</div></td></tr><tr><td style="font-weight:bold;vertical-align:top;">local_hosts</td><td style="vertical-align:top;">:</td><td><div><table><tr><td><div>fe80::2121:4df9:cfc2:896b%20</div></td></tr><tr><td><div>192.168.62.1</div></td></tr><tr><td><div>fe80::c00d:daa6:7e9b:759a%10</div></td></tr><tr><td><div>192.168.150.1</div></td></tr><tr><td><div>Larrea-W7</div></td></tr><tr><td><div>10.0.0.19</div></td></tr><tr><td><div>::ffff:127.0.0.1</div></td></tr><tr><td><div>::1</div></td></tr><tr><td><div>fe80::d86d:56c0:a307:313b%19</div></td></tr><tr><td><div>fe80::991a:a3f3:d9a1:8cb2%17</div></td></tr><tr><td><div>127.0.0.1</div></td></tr><tr><td><div>192.168.56.1</div></td></tr></table></div></td></tr><tr><td style="font-weight:bold;vertical-align:top;">path_info</td><td style="vertical-align:top;">:</td><td><div>/SEACAT_ingresos/default/admin_users</div></td></tr><tr><td style="font-weight:bold;vertical-align:top;">query_string</td><td style="vertical-align:top;">:</td><td><div></div></td></tr><tr><td style="font-weight:bold;vertical-align:top;">remote_addr</td><td style="vertical-align:top;">:</td><td><div>10.0.0.19</div></td></tr><tr><td style="font-weight:bold;vertical-align:top;">remote_port</td><td style="vertical-align:top;">:</td><td><div>50970</div></td></tr><tr><td style="font-weight:bold;vertical-align:top;">request_method</td><td style="vertical-align:top;">:</td><td><div>GET</div></td></tr><tr><td style="font-weight:bold;vertical-align:top;">request_uri</td><td style="vertical-align:top;">:</td><td><div>/SEACAT_ingresos/default/admin_users</div></td></tr><tr><td style="font-weight:bold;vertical-align:top;">script_name</td><td style="vertical-align:top;">:</td><td><div></div></td></tr><tr><td style="font-weight:bold;vertical-align:top;">server_name</td><td style="vertical-align:top;">:</td><td><div>Larrea-W7</div></td></tr><tr><td style="font-weight:bold;vertical-align:top;">server_port</td><td style="vertical-align:top;">:</td><td><div>8000</div></td></tr><tr><td style="font-weight:bold;vertical-align:top;">server_protocol</td><td style="vertical-align:top;">:</td><td><div>HTTP/1.1</div></td></tr><tr><td style="font-weight:bold;vertical-align:top;">server_software</td><td style="vertical-align:top;">:</td><td><div>Rocket 1.2.6</div></td></tr><tr><td style="font-weight:bold;vertical-align:top;">web2py_path</td><td style="vertical-align:top;">:</td><td><div>D:\\Usuarios\\Leo\\Mis Documentos\\Dropbox\\web2py</div></td></tr><tr><td style="font-weight:bold;vertical-align:top;">web2py_version</td><td style="vertical-align:top;">:</td><td><div>2.7.4-stable+timestamp.2013.10.14.15.16.29</div></td></tr><tr><td style="font-weight:bold;vertical-align:top;">wsgi.errors</td><td style="vertical-align:top;">:</td><td><div>&lt;open file &#x27;&lt;stderr&gt;&#x27;, mode &#x27;w&#x27; at 0x0000000001D051E0&gt;</div></td></tr><tr><td style="font-weight:bold;vertical-align:top;">wsgi.file_wrapper</td><td style="vertical-align:top;">:</td><td><div>&lt;class wsgiref.util.FileWrapper at 0x00000000037E74C8&gt;</div></td></tr><tr><td style="font-weight:bold;vertical-align:top;">wsgi.input</td><td style="vertical-align:top;">:</td><td><div>&lt;socket._fileobject object at 0x0000000004AE6F48&gt;</div></td></tr><tr><td style="font-weight:bold;vertical-align:top;">wsgi.multiprocess</td><td style="vertical-align:top;">:</td><td><div>False</div></td></tr><tr><td style="font-weight:bold;vertical-align:top;">wsgi.multithread</td><td style="vertical-align:top;">:</td><td><div>True</div></td></tr><tr><td style="font-weight:bold;vertical-align:top;">wsgi.run_once</td><td style="vertical-align:top;">:</td><td><div>False</div></td></tr><tr><td style="font-weight:bold;vertical-align:top;">wsgi.url_scheme</td><td style="vertical-align:top;">:</td><td><div>http</div></td></tr><tr><td style="font-weight:bold;vertical-align:top;">wsgi.version</td><td style="vertical-align:top;">:</td><td><div><table><tr><td><div>1</div></td></tr><tr><td><div>0</div></td></tr></table></div></td></tr><tr><td style="font-weight:bold;vertical-align:top;">wsgi_errors</td><td style="vertical-align:top;">:</td><td><div>&lt;open file &#x27;&lt;stderr&gt;&#x27;, mode &#x27;w&#x27; at 0x0000000001D051E0&gt;</div></td></tr><tr><td style="font-weight:bold;vertical-align:top;">wsgi_file_wrapper</td><td style="vertical-align:top;">:</td><td><div>&lt;class wsgiref.util.FileWrapper at 0x00000000037E74C8&gt;</div></td></tr><tr><td style="font-weight:bold;vertical-align:top;">wsgi_input</td><td style="vertical-align:top;">:</td><td><div>&lt;socket._fileobject object at 0x0000000004AE6F48&gt;</div></td></tr><tr><td style="font-weight:bold;vertical-align:top;">wsgi_multiprocess</td><td style="vertical-align:top;">:</td><td><div>False</div></td></tr><tr><td style="font-weight:bold;vertical-align:top;">wsgi_multithread</td><td style="vertical-align:top;">:</td><td><div>True</div></td></tr><tr><td style="font-weight:bold;vertical-align:top;">wsgi_run_once</td><td style="vertical-align:top;">:</td><td><div>False</div></td></tr><tr><td style="font-weight:bold;vertical-align:top;">wsgi_url_scheme</td><td style="vertical-align:top;">:</td><td><div>http</div></td></tr><tr><td style="font-weight:bold;vertical-align:top;">wsgi_version</td><td style="vertical-align:top;">:</td><td><div><table><tr><td><div>1</div></td></tr><tr><td><div>0</div></td></tr></table></div></td></tr></table></div></td></tr><tr><td style="font-weight:bold;vertical-align:top;">extension</td><td style="vertical-align:top;">:</td><td><div>html</div></td></tr><tr><td style="font-weight:bold;vertical-align:top;">folder</td><td style="vertical-align:top;">:</td><td><div>D:\\Usuarios\\Leo\\Mis Documentos\\Dropbox\\web2py\\applications\\SEACAT_ingresos\\</div></td></tr><tr><td style="font-weight:bold;vertical-align:top;">function</td><td style="vertical-align:top;">:</td><td><div>admin_users</div></td></tr><tr><td style="font-weight:bold;vertical-align:top;">global_settings</td><td style="vertical-align:top;">:</td><td><div><table><tr><td style="font-weight:bold;vertical-align:top;">app_folders</td><td style="vertical-align:top;">:</td><td><div>set([&#x27;D:\\\\Usuarios\\\\Leo\\\\Mis Documentos\\\\Dropbox\\\\web2py\\\\applications\\\\welcome\\\\&#x27;, &#x27;D:\\\\Usuarios\\\\Leo\\\\Mis Documentos\\\\Dropbox\\\\web2py\\\\applications\\\\admin\\\\&#x27;, &#x27;D:\\\\Usuarios\\\\Leo\\\\Mis Documentos\\\\Dropbox\\\\web2py\\\\applications\\\\SEACAT_ingresos\\\\&#x27;])</div></td></tr><tr><td style="font-weight:bold;vertical-align:top;">applications_parent</td><td style="vertical-align:top;">:</td><td><div>D:\\Usuarios\\Leo\\Mis Documentos\\Dropbox\\web2py</div></td></tr><tr><td style="font-weight:bold;vertical-align:top;">cmd_args</td><td style="vertical-align:top;">:</td><td><div><table></table></div></td></tr><tr><td style="font-weight:bold;vertical-align:top;">cmd_options</td><td style="vertical-align:top;">:</td><td><div>&lt;Values at 0x383aa08: {&#x27;verbose&#x27;: False, &#x27;ip&#x27;: &#x27;127.0.0.1&#x27;, &#x27;debuglevel&#x27;: 30, &#x27;with_scheduler&#x27;: False, &#x27;ips&#x27;: [&#x27;fe80::2121:4df9:cfc2:896b%20&#x27;, &#x27;192.168.62.1&#x27;, &#x27;fe80::c00d:daa6:7e9b:759a%10&#x27;, &#x27;192.168.150.1&#x27;, &#x27;10.0.0.19&#x27;, &#x27;fe80::d86d:56c0:a307:313b%19&#x27;, &#x27;fe80::991a:a3f3:d9a1:8cb2%17&#x27;, &#x27;192.168.56.1&#x27;], &#x27;shutdown_timeout&#x27;: 5, &#x27;taskbar&#x27;: False, &#x27;with_coverage&#x27;: False, &#x27;port&#x27;: 8000, &#x27;maxthreads&#x27;: None, &#x27;softcron&#x27;: False, &#x27;server_name&#x27;: &#x27;Larrea-W7&#x27;, &#x27;bpython&#x27;: False, &#x27;nogui&#x27;: False, &#x27;pid_filename&#x27;: &#x27;httpserver.pid&#x27;, &#x27;extcron&#x27;: False, &#x27;runcron&#x27;: False, &#x27;run_system_tests&#x27;: False, &#x27;test&#x27;: None, &#x27;folder&#x27;: &#x27;D:\\\\Usuarios\\\\Leo\\\\Mis Documentos\\\\Dropbox\\\\web2py&#x27;, &#x27;config&#x27;: &#x27;&#x27;, &#x27;import_models&#x27;: False, &#x27;winservice&#x27;: &#x27;&#x27;, &#x27;shell&#x27;: None, &#x27;run&#x27;: &#x27;&#x27;, &#x27;log_filename&#x27;: &#x27;httpserver.log&#x27;, &#x27;profiler_dir&#x27;: None, &#x27;args&#x27;: [&#x27;&#x27;], &#x27;socket_timeout&#x27;: 5, &#x27;ssl_ca_certificate&#x27;: None, &#x27;scheduler&#x27;: None, &#x27;interfaces&#x27;: None, &#x27;ssl_private_key&#x27;: &#x27;&#x27;, &#x27;scheduler_groups&#x27;: None, &#x27;password&#x27;: &#x27;&lt;ask&gt;&#x27;, &#x27;request_queue_size&#x27;: 5, &#x27;ssl_certificate&#x27;: &#x27;&#x27;, &#x27;cronjob&#x27;: False, &#x27;numthreads&#x27;: None, &#x27;quiet&#x27;: False, &#x27;minthreads&#x27;: None, &#x27;timeout&#x27;: 10, &#x27;plain&#x27;: False, &#x27;nobanner&#x27;: False}&gt;</div></td></tr><tr><td style="font-weight:bold;vertical-align:top;">db_sessions</td><td style="vertical-align:top;">:</td><td><div>set([])</div></td></tr><tr><td style="font-weight:bold;vertical-align:top;">debugging</td><td style="vertical-align:top;">:</td><td><div>True</div></td></tr><tr><td style="font-weight:bold;vertical-align:top;">gluon_parent</td><td style="vertical-align:top;">:</td><td><div>D:\\Usuarios\\Leo\\Mis Documentos\\Dropbox\\web2py</div></td></tr><tr><td style="font-weight:bold;vertical-align:top;">is_jython</td><td style="vertical-align:top;">:</td><td><div>False</div></td></tr><tr><td style="font-weight:bold;vertical-align:top;">is_pypy</td><td style="vertical-align:top;">:</td><td><div>False</div></td></tr><tr><td style="font-weight:bold;vertical-align:top;">is_source</td><td style="vertical-align:top;">:</td><td><div>True</div></td></tr><tr><td style="font-weight:bold;vertical-align:top;">local_hosts</td><td style="vertical-align:top;">:</td><td><div><table><tr><td><div>fe80::2121:4df9:cfc2:896b%20</div></td></tr><tr><td><div>192.168.62.1</div></td></tr><tr><td><div>fe80::c00d:daa6:7e9b:759a%10</div></td></tr><tr><td><div>192.168.150.1</div></td></tr><tr><td><div>Larrea-W7</div></td></tr><tr><td><div>10.0.0.19</div></td></tr><tr><td><div>::ffff:127.0.0.1</div></td></tr><tr><td><div>::1</div></td></tr><tr><td><div>fe80::d86d:56c0:a307:313b%19</div></td></tr><tr><td><div>fe80::991a:a3f3:d9a1:8cb2%17</div></td></tr><tr><td><div>127.0.0.1</div></td></tr><tr><td><div>192.168.56.1</div></td></tr></table></div></td></tr><tr><td style="font-weight:bold;vertical-align:top;">web2py_version</td><td style="vertical-align:top;">:</td><td><div>2.7.4-stable+timestamp.2013.10.14.15.16.29</div></td></tr></table></div></td></tr><tr><td style="font-weight:bold;vertical-align:top;">is_https</td><td style="vertical-align:top;">:</td><td><div>False</div></td></tr><tr><td style="font-weight:bold;vertical-align:top;">is_local</td><td style="vertical-align:top;">:</td><td><div>True</div></td></tr><tr><td style="font-weight:bold;vertical-align:top;">is_restful</td><td style="vertical-align:top;">:</td><td><div>False</div></td></tr><tr><td style="font-weight:bold;vertical-align:top;">now</td><td style="vertical-align:top;">:</td><td><div>datetime.datetime(2014, 1, 10, 16, 26, 50, 160000)</div></td></tr><tr><td style="font-weight:bold;vertical-align:top;">raw_args</td><td style="vertical-align:top;">:</td><td><div></div></td></tr><tr><td style="font-weight:bold;vertical-align:top;">raw_extension</td><td style="vertical-align:top;">:</td><td><div>None</div></td></tr><tr><td style="font-weight:bold;vertical-align:top;">url</td><td style="vertical-align:top;">:</td><td><div>/SEACAT_ingresos/default/admin_users</div></td></tr><tr><td style="font-weight:bold;vertical-align:top;">utcnow</td><td style="vertical-align:top;">:</td><td><div>datetime.datetime(2014, 1, 10, 19, 26, 50, 160000)</div></td></tr><tr><td style="font-weight:bold;vertical-align:top;">uuid</td><td style="vertical-align:top;">:</td><td><div>SEACAT_ingresos/10.0.0.19.2014-01-10.16-26-50.f2d488a0-0474-4063-acd9-c0c4dff3dda9</div></td></tr><tr><td style="font-weight:bold;vertical-align:top;">wsgi</td><td style="vertical-align:top;">:</td><td><div>&lt;gluon.main.LazyWSGI object at 0x0000000004AE0C88&gt;</div></td></tr></table></div>'
tRp68
sS'frames'
p69
(lp70
(dp71
S'file'
p72
S'D:\\Usuarios\\Leo\\Mis Documentos\\Dropbox\\web2py\\gluon\\restricted.py'
p73
sS'dump'
p74
(dp75
S'environment'
p76
S"{'A': <class 'gluon.html.A'>, 'ANY_OF': <class 'gluon.validators.ANY_OF'>, 'Auth': <class 'gluon.tools.Auth'>, 'B': <class 'gluon.html.B'>, 'BEAUTIFY': <class 'gluon.html.BEAUTIFY'>, 'BODY': <class 'gluon.html.BODY'>, 'BR': <class 'gluon.html.BR'>, 'BUTTON': <class 'gluon.html.BUTTON'>, 'CAT': <class 'gluon.html.CAT'>, 'CENTER': <class 'gluon.html.CENTER'>, ...}"
p77
sS'ccode'
p78
S'<code object <module> at 0000000005059AB0, file ...cations\\SEACAT_ingresos\\models\\menu.py", line 20>'
p79
ssS'lnum'
p80
I217
sS'lines'
p81
(dp82
I212
S'    try:'
p83
sI213
S'        if isinstance(code, types.CodeType):'
p84
sI214
S'            ccode = code'
p85
sI215
S'        else:'
p86
sI216
S'            ccode = compile2(code, layer)'
p87
sI217
S'        exec ccode in environment'
p88
sI218
S'    except HTTP:'
p89
sI219
S'        raise'
p90
sI220
S'    except RestrictedError:'
p91
sI221
S'        # do not encapsulate (obfuscate) the original RestrictedError'
p92
ssS'call'
p93
S'(code=\'# -*- coding: utf-8 -*-\\n# this file is released ...NU: _()\\n\\n#if "auth" in locals(): auth.wikimenu()\\n\', environment={\'A\': <class \'gluon.html.A\'>, \'ANY_OF\': <class \'gluon.validators.ANY_OF\'>, \'Auth\': <class \'gluon.tools.Auth\'>, \'B\': <class \'gluon.html.B\'>, \'BEAUTIFY\': <class \'gluon.html.BEAUTIFY\'>, \'BODY\': <class \'gluon.html.BODY\'>, \'BR\': <class \'gluon.html.BR\'>, \'BUTTON\': <class \'gluon.html.BUTTON\'>, \'CAT\': <class \'gluon.html.CAT\'>, \'CENTER\': <class \'gluon.html.CENTER\'>, ...}, layer=r\'D:\\Usuarios\\Leo\\Mis Documentos\\Dropbox\\web2py\\applications\\SEACAT_ingresos\\models\\menu.py\')'
p94
sS'func'
p95
S'restricted'
p96
sa(dp97
g72
S'D:\\Usuarios\\Leo\\Mis Documentos\\Dropbox\\web2py\\applications\\SEACAT_ingresos\\models\\menu.py'
p98
sg74
(dp99
S'_'
S'<function _>'
p100
sS'DEVELOPMENT_MENU'
p101
S'True'
p102
ssg80
I183
sg81
(dp103
I176
S'        response.menu += ['
p104
sI177
S'                          (SPAN(T("New")), False, None, ['
p105
sI178
S'                                                        (T("User"), False, URL(\'new_user\'))'
p106
sI179
S'                                                        ]'
p107
sI180
S'                          )'
p108
sI181
S'                         ]'
p109
sI182
S''
sI183
S'if DEVELOPMENT_MENU: _()'
p110
sI184
S''
sI185
S'#if "auth" in locals(): auth.wikimenu()'
p111
ssg93
S'()'
p112
sg95
S'<module>'
p113
sa(dp114
g72
S'D:\\Usuarios\\Leo\\Mis Documentos\\Dropbox\\web2py\\applications\\SEACAT_ingresos\\models\\menu.py'
p115
sg74
(dp116
S'global db'
p117
S'<DAL uri="postgres:******@wspio1.pioix.edu.ar/seacat">'
p118
sS'db.auth_user'
p119
S'<Table auth_user (id,first_name,last_name,email,..._key,registration_id,middle_name,last_login,obs)>'
p120
sS'auth.has_permission'
p121
S'<bound method Auth.has_permission of <gluon.tools.Auth object>>'
p122
sS'global auth'
p123
S'<gluon.tools.Auth object>'
p124
ssg80
I167
sg81
(dp125
I162
S'                                                                                     (T("Admin Permissions"), False, URL(\'admin_user_permissions\'))'
p126
sI163
S'                                                                                    ]'
p127
sI164
S'                          )'
p128
sI165
S'                         ]'
p129
sI166
S''
sI167
S"    if auth.has_permission('create new father', db.auth_user):"
p130
sI168
S'        response.menu += ['
p131
sI169
S'                          (SPAN(T("New")), False, None, ['
p132
sI170
S'                                                        (T("Father"), False, URL(\'new_father\'))'
p133
sI171
S'                                                        ]'
p134
ssg93
S'()'
p135
sg95
S'_'
sa(dp136
g72
S'D:\\Usuarios\\Leo\\Mis Documentos\\Dropbox\\web2py\\gluon\\tools.py'
p137
sg74
(dp138
S'record_id'
p139
S'0'
sS'permission.group_id'
p140
S'<gluon.dal.Field object>'
p141
sS').select'
p142
S'undefined'
p143
sS'permission'
p144
S'<Table auth_permission (id,group_id,name,table_name,record_id)>'
p145
ssg80
I3430
sg81
(dp146
I3425
S'        else:'
p147
sI3426
S'            groups = set([group_id])'
p148
sI3427
S'        permission = self.table_permission()'
p149
sI3428
S'        rows = self.db(permission.name == name)(permission.table_name'
p150
sI3429
S'                 == str(table_name))(permission.record_id'
p151
sI3430
S'                 == record_id).select(permission.group_id)'
p152
sI3431
S'        groups_required = set([row.group_id for row in rows])'
p153
sI3432
S'        if record_id:'
p154
sI3433
S'            rows = self.db(permission.name'
p155
sI3434
S'                            == name)(permission.table_name'
p156
ssg93
S"(self=<gluon.tools.Auth object>, name='create new father', table_name=<Table auth_user (id,first_name,last_name,email,..._key,registration_id,middle_name,last_login,obs)>, record_id=0, user_id=1L, group_id=None)"
p157
sg95
S'has_permission'
p158
sa(dp159
g72
S'D:\\Usuarios\\Leo\\Mis Documentos\\Dropbox\\web2py\\gluon\\dal.py'
p160
sg74
(dp161
S'self.query'
p162
S"<Query (((auth_permission.name = 'create new fat...uth_user')) AND (auth_permission.record_id = 0))>"
p163
sS'adapter.select'
p164
S'<bound method PostgreSQLAdapter.select of <gluon.dal.PostgreSQLAdapter object>>'
p165
sS'fields'
p166
S'[<gluon.dal.Field object>]'
p167
sS'adapter'
p168
S'<gluon.dal.PostgreSQLAdapter object>'
p169
sS'attributes'
p170
g21
sS'self'
p171
S"<Set (((auth_permission.name = 'create new fathe...uth_user')) AND (auth_permission.record_id = 0))>"
p172
ssg80
I10111
sg81
(dp173
I10112
S''
sI10113
S'    def nested_select(self,*fields,**attributes):'
p174
sI10114
S'        return Expression(self.db,self._select(*fields,**attributes))'
p175
sI10115
S''
sI10106
S"                                    attributes.get('join',None),"
p176
sI10107
S"                                    attributes.get('left',None),"
p177
sI10108
S"                                    attributes.get('orderby',None),"
p178
sI10109
S"                                    attributes.get('groupby',None))"
p179
sI10110
S'        fields = adapter.expand_all(fields, tablenames)'
p180
sI10111
S'        return adapter.select(self.query,fields,attributes)'
p181
ssg93
S"(self=<Set (((auth_permission.name = 'create new fathe...uth_user')) AND (auth_permission.record_id = 0))>, *fields=[<gluon.dal.Field object>], **attributes={})"
p182
sg95
S'select'
p183
sa(dp184
g72
S'D:\\Usuarios\\Leo\\Mis Documentos\\Dropbox\\web2py\\gluon\\dal.py'
p185
sg74
(dp186
S'fields'
p187
S'[<gluon.dal.Field object>]'
p188
sS'self'
p189
S'<gluon.dal.PostgreSQLAdapter object>'
p190
sS'attributes'
p191
g21
sS'self._select_aux'
p192
S'<bound method PostgreSQLAdapter._select_aux of <gluon.dal.PostgreSQLAdapter object>>'
p193
sS'sql'
p194
S'"SELECT  auth_permission.group_id FROM auth_permi...uth_user\')) AND (auth_permission.record_id = 0));"'
p195
ssg80
I1751
sg81
(dp196
I1746
S'            return cache_model('
p197
sI1747
S'                key,'
p198
sI1748
S'                lambda self=self,args=args:self._select_aux(*args),'
p199
sI1749
S'                time_expire)'
p200
sI1750
S'        else:'
p201
sI1751
S'            return self._select_aux(sql,fields,attributes)'
p202
sI1752
S''
sI1753
S'    def _count(self, query, distinct=None):'
p203
sI1754
S'        tablenames = self.tables(query)'
p204
sI1755
S'        if query:'
p205
ssg93
S"(self=<gluon.dal.PostgreSQLAdapter object>, query=<Query (((auth_permission.name = 'create new fat...uth_user')) AND (auth_permission.record_id = 0))>, fields=[<gluon.dal.Field object>], attributes={})"
p206
sg95
g183
sa(dp207
g72
S'D:\\Usuarios\\Leo\\Mis Documentos\\Dropbox\\web2py\\gluon\\dal.py'
p208
sg74
(dp209
S'self'
p210
S'<gluon.dal.PostgreSQLAdapter object>'
p211
sS'self.execute'
p212
S'<bound method PostgreSQLAdapter.execute of <gluon.dal.PostgreSQLAdapter object>>'
p213
sS'sql'
p214
S'"SELECT  auth_permission.group_id FROM auth_permi...uth_user\')) AND (auth_permission.record_id = 0));"'
p215
ssg80
I1716
sg81
(dp216
I1711
S''
sI1712
S'    def _select_aux(self,sql,fields,attributes):'
p217
sI1713
S'        args_get = attributes.get'
p218
sI1714
S"        cache = args_get('cache',None)"
p219
sI1715
S'        if not cache:'
p220
sI1716
S'            self.execute(sql)'
p221
sI1717
S'            rows = self._fetchall()'
p222
sI1718
S'        else:'
p223
sI1719
S'            (cache_model, time_expire) = cache'
p224
sI1720
S"            key = self.uri + '/' + sql + '/rows'"
p225
ssg93
S'(self=<gluon.dal.PostgreSQLAdapter object>, sql="SELECT  auth_permission.group_id FROM auth_permi...uth_user\')) AND (auth_permission.record_id = 0));", fields=[<gluon.dal.Field object>], attributes={})'
p226
sg95
S'_select_aux'
p227
sa(dp228
g72
S'D:\\Usuarios\\Leo\\Mis Documentos\\Dropbox\\web2py\\gluon\\dal.py'
p229
sg74
(dp230
S'a'
S'("SELECT  auth_permission.group_id FROM auth_permi...uth_user\')) AND (auth_permission.record_id = 0));",)'
p231
sS'self'
p232
S'<gluon.dal.PostgreSQLAdapter object>'
p233
sS'b'
g21
sS'self.log_execute'
p234
S'<bound method PostgreSQLAdapter.log_execute of <gluon.dal.PostgreSQLAdapter object>>'
p235
ssg80
I1836
sg81
(dp236
I1831
S'        self.db._timings.append((command,time.time()-t0))'
p237
sI1832
S'        del self.db._timings[:-TIMINGSSIZE]'
p238
sI1833
S'        return ret'
p239
sI1834
S''
sI1835
S'    def execute(self, *a, **b):'
p240
sI1836
S'        return self.log_execute(*a, **b)'
p241
sI1837
S''
sI1838
S'    def represent(self, obj, fieldtype):'
p242
sI1839
S'        field_is_type = fieldtype.startswith'
p243
sI1840
S'        if isinstance(obj, CALLABLETYPES):'
p244
ssg93
S'(self=<gluon.dal.PostgreSQLAdapter object>, *a=("SELECT  auth_permission.group_id FROM auth_permi...uth_user\')) AND (auth_permission.record_id = 0));",), **b={})'
p245
sg95
S'execute'
p246
sa(dp247
g72
S'D:\\Usuarios\\Leo\\Mis Documentos\\Dropbox\\web2py\\gluon\\dal.py'
p248
sg74
(dp249
S'a'
S'("SELECT  auth_permission.group_id FROM auth_permi...uth_user\')) AND (auth_permission.record_id = 0));",)'
p250
sS'b'
g21
sS'self'
p251
S'<gluon.dal.PostgreSQLAdapter object>'
p252
sS'ret'
p253
g143
sS'self.cursor'
p254
S'<gluon.contrib.pg8000.dbapi.CursorWrapper object>'
p255
sS'command'
p256
S'"SELECT  auth_permission.group_id FROM auth_permi...uth_user\')) AND (auth_permission.record_id = 0));"'
p257
sS'self.cursor.execute'
p258
S'<bound method CursorWrapper._fn of <gluon.contrib.pg8000.dbapi.CursorWrapper object>>'
p259
ssg80
I1830
sg81
(dp260
I1825
S'            command = self.filter_sql_command(command)'
p261
sI1826
S'        if self.db._debug:'
p262
sI1827
S"            LOGGER.debug('SQL: %s' % command)"
p263
sI1828
S'        self.db._lastsql = command'
p264
sI1829
S'        t0 = time.time()'
p265
sI1830
S'        ret = self.cursor.execute(command, *a[1:], **b)'
p266
sI1831
S'        self.db._timings.append((command,time.time()-t0))'
p267
sI1832
S'        del self.db._timings[:-TIMINGSSIZE]'
p268
sI1833
S'        return ret'
p269
sI1834
S''
ssg93
S'(self=<gluon.dal.PostgreSQLAdapter object>, *a=("SELECT  auth_permission.group_id FROM auth_permi...uth_user\')) AND (auth_permission.record_id = 0));",), **b={})'
p270
sg95
S'log_execute'
p271
sa(dp272
g72
S'D:\\Usuarios\\Leo\\Mis Documentos\\Dropbox\\web2py\\gluon\\contrib\\pg8000\\dbapi.py'
p273
sg74
(dp274
S'self'
p275
S'<gluon.contrib.pg8000.dbapi.CursorWrapper object>'
p276
sS'args'
p277
S'("SELECT  auth_permission.group_id FROM auth_permi...uth_user\')) AND (auth_permission.record_id = 0));",)'
p278
sS'fn'
p279
S'<function execute>'
p280
sS'kwargs'
p281
g21
ssg80
I246
sg81
(dp282
I241
S''
sI242
S'def require_open_cursor(fn):'
p283
sI243
S'    def _fn(self, *args, **kwargs):'
p284
sI244
S'        if self.cursor == None:'
p285
sI245
S'            raise CursorClosedError()'
p286
sI246
S'        return fn(self, *args, **kwargs)'
p287
sI247
S'    return _fn'
p288
sI248
S''
sI249
S'##'
p289
sI250
S'# The class of object returned by the {@link #ConnectionWrapper.cursor cursor method}.'
p290
ssg93
S'(self=<gluon.contrib.pg8000.dbapi.CursorWrapper object>, *args=("SELECT  auth_permission.group_id FROM auth_permi...uth_user\')) AND (auth_permission.record_id = 0));",), **kwargs={})'
p291
sg95
S'_fn'
p292
sa(dp293
g72
S'D:\\Usuarios\\Leo\\Mis Documentos\\Dropbox\\web2py\\gluon\\contrib\\pg8000\\dbapi.py'
p294
sg74
(dp295
S'self._execute'
p296
S'<bound method CursorWrapper._execute of <gluon.contrib.pg8000.dbapi.CursorWrapper object>>'
p297
sS'self'
p298
S'<gluon.contrib.pg8000.dbapi.CursorWrapper object>'
p299
sS'args'
p300
S'()'
p301
sS'operation'
p302
S'"SELECT  auth_permission.group_id FROM auth_permi...uth_user\')) AND (auth_permission.record_id = 0));"'
p303
ssg80
I317
sg81
(dp304
I320
S'        new_query, new_args = convert_paramstyle(paramstyle, operation, args)'
p305
sI321
S'        try:'
p306
sI312
S'    @require_open_cursor'
p307
sI313
S'    def execute(self, operation, args=()):'
p308
sI314
S'        if not self._connection.in_transaction:'
p309
sI315
S'            self._connection.begin()'
p310
sI316
S'        self._override_rowcount = None'
p311
sI317
S'        self._execute(operation, args)'
p312
sI318
S''
sI319
S'    def _execute(self, operation, args=()):'
p313
ssg93
S'(self=<gluon.contrib.pg8000.dbapi.CursorWrapper object>, operation="SELECT  auth_permission.group_id FROM auth_permi...uth_user\')) AND (auth_permission.record_id = 0));", args=())'
p314
sg95
g246
sa(dp315
g72
S'D:\\Usuarios\\Leo\\Mis Documentos\\Dropbox\\web2py\\gluon\\contrib\\pg8000\\dbapi.py'
p316
sg74
(dp317
S'new_args'
p318
S'()'
p319
sS'self.cursor'
p320
S'<gluon.contrib.pg8000.interface.Cursor object>'
p321
sS'self'
p322
S'<gluon.contrib.pg8000.dbapi.CursorWrapper object>'
p323
sS'new_query'
p324
S'"SELECT  auth_permission.group_id FROM auth_permi...uth_user\')) AND (auth_permission.record_id = 0));"'
p325
sS'self.cursor.execute'
p326
S'<bound method Cursor.execute of <gluon.contrib.pg8000.interface.Cursor object>>'
p327
ssg80
I322
sg81
(dp328
I320
S'        new_query, new_args = convert_paramstyle(paramstyle, operation, args)'
p329
sI321
S'        try:'
p330
sI322
S'            self.cursor.execute(new_query, *new_args)'
p331
sI323
S'        except ConnectionClosedError:'
p332
sI324
S"            # can't rollback in this case"
p333
sI325
S'            raise'
p334
sI326
S'        except:'
p335
sI317
S'        self._execute(operation, args)'
p336
sI318
S''
sI319
S'    def _execute(self, operation, args=()):'
p337
ssg93
S'(self=<gluon.contrib.pg8000.dbapi.CursorWrapper object>, operation="SELECT  auth_permission.group_id FROM auth_permi...uth_user\')) AND (auth_permission.record_id = 0));", args=())'
p338
sg95
S'_execute'
p339
sa(dp340
g72
S'D:\\Usuarios\\Leo\\Mis Documentos\\Dropbox\\web2py\\gluon\\contrib\\pg8000\\interface.py'
p341
sg74
(dp342
S'self._stmt.execute'
p343
S'<bound method PreparedStatement.execute of <gluo...ntrib.pg8000.interface.PreparedStatement object>>'
p344
sS'kwargs'
p345
g21
sS'self'
p346
S'<gluon.contrib.pg8000.interface.Cursor object>'
p347
sS'args'
p348
S'()'
p349
sS'self._stmt'
p350
S'<gluon.contrib.pg8000.interface.PreparedStatement object>'
p351
ssg80
I399
sg81
(dp352
I394
S'                ## print "SimpleQuery:", query'
p353
sI395
S'                self._stmt = SimpleStatement(self.connection, query)'
p354
sI396
S'            else:'
p355
sI397
S'                # use PostgreSQL Extended Query Protocol'
p356
sI398
S'                self._stmt = PreparedStatement(self.connection, query, statement_name="", *[{"type": type(x), "value": x} for x in args])'
p357
sI399
S'            self._stmt.execute(*args, **kwargs)'
p358
sI400
S'        finally:'
p359
sI401
S'            self.connection._unnamed_prepared_statement_lock.release()'
p360
sI402
S''
sI403
S'    ##'
p361
ssg93
S'(self=<gluon.contrib.pg8000.interface.Cursor object>, query="SELECT  auth_permission.group_id FROM auth_permi...uth_user\')) AND (auth_permission.record_id = 0));", *args=(), **kwargs={})'
p362
sg95
g246
sa(dp363
g72
S'D:\\Usuarios\\Leo\\Mis Documentos\\Dropbox\\web2py\\gluon\\contrib\\pg8000\\interface.py'
p364
sg74
(dp365
S'self'
p366
S'<gluon.contrib.pg8000.interface.PreparedStatement object>'
p367
sS'self._fill_cache'
p368
S'<bound method PreparedStatement._fill_cache of <...ntrib.pg8000.interface.PreparedStatement object>>'
p369
ssg80
I176
sg81
(dp370
I171
S'                # We execute our cursor right away to fill up our cache.  This'
p371
sI172
S'                # prevents the cursor from being destroyed, apparently, by a rogue'
p372
sI173
S'                # Sync between Bind and Execute.  Since it is quite likely that'
p373
sI174
S'                # data will be read from us right away anyways, this seems a safe'
p374
sI175
S'                # move for now.'
p375
sI176
S'                self._fill_cache()'
p376
sI177
S'            else:'
p377
sI178
S'                self._command_complete = True'
p378
sI179
S'                self._ongoing_row_count = -1'
p379
sI180
S'                if cmd != None and cmd.rows != None:'
p380
ssg93
S'(self=<gluon.contrib.pg8000.interface.PreparedStatement object>, *args=(), **kwargs={})'
p381
sg95
g246
sa(dp382
g72
S'D:\\Usuarios\\Leo\\Mis Documentos\\Dropbox\\web2py\\gluon\\contrib\\pg8000\\interface.py'
p383
sg74
(dp384
S'rows'
p385
g143
sS'self.row_cache_size'
p386
S'100'
p387
sS'self.c'
p388
S'<gluon.contrib.pg8000.protocol.Connection object>'
p389
sS'self'
p390
S'<gluon.contrib.pg8000.interface.PreparedStatement object>'
p391
sS'self._row_desc'
p392
S'<gluon.contrib.pg8000.protocol.RowDescription object>'
p393
sS'self.c.fetch_rows'
p394
S'<bound method Connection._fn of <gluon.contrib.pg8000.protocol.Connection object>>'
p395
sS'end_of_data'
p396
g143
sS'self._portal_name'
p397
S"'pg8000_portal_54'"
p398
ssg80
I190
sg81
(dp399
I192
S'            if end_of_data:'
p400
sI193
S'                self._command_complete = True'
p401
sI194
S'        finally:'
p402
sI185
S'    def _fill_cache(self):'
p403
sI186
S'        self._lock.acquire()'
p404
sI187
S'        try:'
p405
sI188
S'            if self._cached_rows:'
p406
sI189
S'                raise InternalError("attempt to fill cache that isn\'t empty")'
p407
sI190
S'            end_of_data, rows = self.c.fetch_rows(self._portal_name, self.row_cache_size, self._row_desc)'
p408
sI191
S'            self._cached_rows = rows'
p409
ssg93
S'(self=<gluon.contrib.pg8000.interface.PreparedStatement object>)'
p410
sg95
S'_fill_cache'
p411
sa(dp412
g72
S'D:\\Usuarios\\Leo\\Mis Documentos\\Dropbox\\web2py\\gluon\\contrib\\pg8000\\protocol.py'
p413
sg74
(dp414
S'self'
p415
S'<gluon.contrib.pg8000.protocol.Connection object>'
p416
sS'args'
p417
S"('pg8000_portal_54', 100, <gluon.contrib.pg8000.protocol.RowDescription object>)"
p418
sS'fn'
p419
S'<function fetch_rows>'
p420
sS'kwargs'
p421
g21
ssg80
I943
sg81
(dp422
I938
S''
sI939
S'def sync_on_error(fn):'
p423
sI940
S'    def _fn(self, *args, **kwargs):'
p424
sI941
S'        try:'
p425
sI942
S'            self._sock_lock.acquire()'
p426
sI943
S'            return fn(self, *args, **kwargs)'
p427
sI944
S'        except:'
p428
sI945
S'            self._sync()'
p429
sI946
S'            raise'
p430
sI947
S'        finally:'
p431
ssg93
S"(self=<gluon.contrib.pg8000.protocol.Connection object>, *args=('pg8000_portal_54', 100, <gluon.contrib.pg8000.protocol.RowDescription object>), **kwargs={})"
p432
sg95
g292
sa(dp433
g72
S'D:\\Usuarios\\Leo\\Mis Documentos\\Dropbox\\web2py\\gluon\\contrib\\pg8000\\protocol.py'
p434
sg74
(dp435
S'reader.handle_messages'
p436
S'<bound method MessageReader.handle_messages of <gluon.contrib.pg8000.protocol.MessageReader object>>'
p437
sS'retval'
p438
g143
sS'reader'
p439
S'<gluon.contrib.pg8000.protocol.MessageReader object>'
p440
ssg80
I1249
sg81
(dp441
I1248
S'        reader.add_message(CommandComplete, self._fetch_commandcomplete, portal)'
p442
sI1249
S'        retval = reader.handle_messages()'
p443
sI1250
S''
sI1251
S"        # retval = 2 when command complete, indicating that we've hit the"
p444
sI1252
S'        # end of the available data for this command'
p445
sI1253
S'        return (retval == 2), rows'
p446
sI1244
S''
sI1245
S'        reader = MessageReader(self)'
p447
sI1246
S'        reader.add_message(DataRow, self._fetch_datarow, rows, row_desc)'
p448
sI1247
S'        reader.add_message(PortalSuspended, lambda msg: 1)'
p449
ssg93
S"(self=<gluon.contrib.pg8000.protocol.Connection object>, portal='pg8000_portal_54', row_count=100, row_desc=<gluon.contrib.pg8000.protocol.RowDescription object>)"
p450
sg95
S'fetch_rows'
p451
sa(dp452
g72
S'D:\\Usuarios\\Leo\\Mis Documentos\\Dropbox\\web2py\\gluon\\contrib\\pg8000\\protocol.py'
p453
sg74
(dp454
S'msg'
p455
g143
sS'self._conn._read_message'
p456
S'<bound method Connection._read_message of <gluon.contrib.pg8000.protocol.Connection object>>'
p457
sS'self'
p458
S'<gluon.contrib.pg8000.protocol.MessageReader object>'
p459
sS'self._conn'
p460
S'<gluon.contrib.pg8000.protocol.Connection object>'
p461
ssg80
I906
sg81
(dp462
I901
S'        self._retval = value'
p463
sI902
S''
sI903
S'    def handle_messages(self):'
p464
sI904
S'        exc = None'
p465
sI905
S'        while 1:'
p466
sI906
S'            msg = self._conn._read_message()'
p467
sI907
S'            msg_handled = False'
p468
sI908
S'            for (msg_class, handler, args, kwargs) in self._msgs:'
p469
sI909
S'                if isinstance(msg, msg_class):'
p470
sI910
S'                    msg_handled = True'
p471
ssg93
S'(self=<gluon.contrib.pg8000.protocol.MessageReader object>)'
p472
sg95
S'handle_messages'
p473
sa(dp474
g72
S'D:\\Usuarios\\Leo\\Mis Documentos\\Dropbox\\web2py\\gluon\\contrib\\pg8000\\protocol.py'
p475
sg74
(dp476
S'builtinbytes'
p477
S"<type 'str'>"
p478
sS'self._read_bytes'
p479
S'<bound method Connection._read_bytes of <gluon.contrib.pg8000.protocol.Connection object>>'
p480
sS'self'
p481
S'<gluon.contrib.pg8000.protocol.Connection object>'
p482
ssg80
I1033
sg81
(dp483
I1028
S'            retval.append(addt_data)'
p484
sI1029
S'        return "".join(retval)'
p485
sI1030
S''
sI1031
S'    def _read_message(self):'
p486
sI1032
S'        assert self._sock_lock.locked()'
p487
sI1033
S'        bytes = self._read_bytes(5)'
p488
sI1034
S'        message_code = bytes[0]'
p489
sI1035
S'        data_len = struct.unpack("!i", bytes[1:])[0] - 4'
p490
sI1036
S'        bytes = self._read_bytes(data_len)'
p491
sI1037
S'        assert len(bytes) == data_len'
p492
ssg93
S'(self=<gluon.contrib.pg8000.protocol.Connection object>)'
p493
sg95
S'_read_message'
p494
sa(dp495
g72
S'D:\\Usuarios\\Leo\\Mis Documentos\\Dropbox\\web2py\\gluon\\contrib\\pg8000\\protocol.py'
p496
sg74
(dp497
S'self._sock.recv'
p498
S'<built-in method recv of _socket.socket object>'
p499
sS'self._sock'
p500
S'<socket._socketobject object>'
p501
sS'self'
p502
S'<gluon.contrib.pg8000.protocol.Connection object>'
p503
sS'self._sock_buf'
p504
S"'C\\x00\\x00\\x00\\rROLLBACK\\x00Z\\x00\\x00\\x00\\x05I'"
p505
ssg80
I1021
sg81
(dp506
I1024
S'            addt_data = self._sock_buf[self._sock_buf_pos:rpos]'
p507
sI1025
S'            bytes_read += (rpos - self._sock_buf_pos)'
p508
sI1016
S'    def _read_bytes(self, byte_count):'
p509
sI1017
S'        retval = []'
p510
sI1018
S'        bytes_read = 0'
p511
sI1019
S'        while bytes_read < byte_count:'
p512
sI1020
S'            if self._sock_buf_pos == len(self._sock_buf):'
p513
sI1021
S'                self._sock_buf = self._sock.recv(1024)'
p514
sI1022
S'                self._sock_buf_pos = 0'
p515
sI1023
S'            rpos = min(len(self._sock_buf), self._sock_buf_pos + (byte_count - bytes_read))'
p516
ssg93
S'(self=<gluon.contrib.pg8000.protocol.Connection object>, byte_count=5)'
p517
sg95
S'_read_bytes'
p518
sasS'pyver'
p519
S'Python 2.7.3: C:\\Python27\\python.exe (prefix: C:\\Python27)'
p520
sS'session'
p521
g67
(S's\xcf\x0b\x00\x00<div><table><tr><td style="font-weight:bold;vertical-align:top;">auth</td><td style="vertical-align:top;">:</td><td><div><table><tr><td style="font-weight:bold;vertical-align:top;">expiration</td><td style="vertical-align:top;">:</td><td><div>3600</div></td></tr><tr><td style="font-weight:bold;vertical-align:top;">hmac_key</td><td style="vertical-align:top;">:</td><td><div>6d80da74-a3b2-4609-8fb3-aa2b233b5d88</div></td></tr><tr><td style="font-weight:bold;vertical-align:top;">last_visit</td><td style="vertical-align:top;">:</td><td><div>datetime.datetime(2014, 1, 10, 16, 25, 16, 970000)</div></td></tr><tr><td style="font-weight:bold;vertical-align:top;">remember</td><td style="vertical-align:top;">:</td><td><div>False</div></td></tr><tr><td style="font-weight:bold;vertical-align:top;">user</td><td style="vertical-align:top;">:</td><td><div><table><tr><td style="font-weight:bold;vertical-align:top;">email</td><td style="vertical-align:top;">:</td><td><div>colomboleandro@pioix.edu.ar</div></td></tr><tr><td style="font-weight:bold;vertical-align:top;">first_name</td><td style="vertical-align:top;">:</td><td><div>Leandro</div></td></tr><tr><td style="font-weight:bold;vertical-align:top;">id</td><td style="vertical-align:top;">:</td><td><div>1L</div></td></tr><tr><td style="font-weight:bold;vertical-align:top;">last_login</td><td style="vertical-align:top;">:</td><td><div>datetime.datetime(2014, 1, 9, 17, 42, 4)</div></td></tr><tr><td style="font-weight:bold;vertical-align:top;">last_name</td><td style="vertical-align:top;">:</td><td><div>Colombo Vi\xc3\xb1a</div></td></tr><tr><td style="font-weight:bold;vertical-align:top;">middle_name</td><td style="vertical-align:top;">:</td><td><div>Enrique</div></td></tr><tr><td style="font-weight:bold;vertical-align:top;">obs</td><td style="vertical-align:top;">:</td><td><div></div></td></tr><tr><td style="font-weight:bold;vertical-align:top;">registration_id</td><td style="vertical-align:top;">:</td><td><div></div></td></tr><tr><td style="font-weight:bold;vertical-align:top;">registration_key</td><td style="vertical-align:top;">:</td><td><div></div></td></tr><tr><td style="font-weight:bold;vertical-align:top;">reset_password_key</td><td style="vertical-align:top;">:</td><td><div></div></td></tr></table></div></td></tr><tr><td style="font-weight:bold;vertical-align:top;">user_groups</td><td style="vertical-align:top;">:</td><td><div><table><tr><td style="font-weight:bold;vertical-align:top;">1</td><td style="vertical-align:top;">:</td><td><div>root</div></td></tr></table></div></td></tr></table></div></td></tr><tr><td style="font-weight:bold;vertical-align:top;">flash</td><td style="vertical-align:top;">:</td><td><div>None</div></td></tr><tr><td style="font-weight:bold;vertical-align:top;">last_orderby</td><td style="vertical-align:top;">:</td><td><div>None</div></td></tr><tr><td style="font-weight:bold;vertical-align:top;">last_query</td><td style="vertical-align:top;">:</td><td><div>db.auth_membership.id&gt;0</div></td></tr></table></div>'
tRp522
sS'etype'
p523
S"<class 'socket.timeout'>"
p524
sS'date'
p525
S'Fri Jan 10 16:29:17 2014'
p526
sS'response'
p527
g67
(S's-8\x00\x00<div><table><tr><td style="font-weight:bold;vertical-align:top;">body</td><td style="vertical-align:top;">:</td><td><div>&lt;cStringIO.StringO object at 0x0000000004AE30A0&gt;</div></td></tr><tr><td style="font-weight:bold;vertical-align:top;">cookies</td><td style="vertical-align:top;">:</td><td><div><table><tr><td style="font-weight:bold;vertical-align:top;">session_id_seacat_ingresos</td><td style="vertical-align:top;">:</td><td><div>10.0.0.19-fb39e5f4-0daf-42dc-b192-77ca91017a82<table><tr><td style="font-weight:bold;vertical-align:top;">comment</td><td style="vertical-align:top;">:</td><td><div></div></td></tr><tr><td style="font-weight:bold;vertical-align:top;">domain</td><td style="vertical-align:top;">:</td><td><div></div></td></tr><tr><td style="font-weight:bold;vertical-align:top;">expires</td><td style="vertical-align:top;">:</td><td><div></div></td></tr><tr><td style="font-weight:bold;vertical-align:top;">httponly</td><td style="vertical-align:top;">:</td><td><div></div></td></tr><tr><td style="font-weight:bold;vertical-align:top;">max-age</td><td style="vertical-align:top;">:</td><td><div></div></td></tr><tr><td style="font-weight:bold;vertical-align:top;">path</td><td style="vertical-align:top;">:</td><td><div>/</div></td></tr><tr><td style="font-weight:bold;vertical-align:top;">secure</td><td style="vertical-align:top;">:</td><td><div></div></td></tr><tr><td style="font-weight:bold;vertical-align:top;">version</td><td style="vertical-align:top;">:</td><td><div></div></td></tr></table></div></td></tr></table></div></td></tr><tr><td style="font-weight:bold;vertical-align:top;">delimiters</td><td style="vertical-align:top;">:</td><td><div><table><tr><td><div>{{</div></td></tr><tr><td><div>}}</div></td></tr></table></div></td></tr><tr><td style="font-weight:bold;vertical-align:top;">files</td><td style="vertical-align:top;">:</td><td><div><table></table></div></td></tr><tr><td style="font-weight:bold;vertical-align:top;">flash</td><td style="vertical-align:top;">:</td><td><div></div></td></tr><tr><td style="font-weight:bold;vertical-align:top;">generic_patterns</td><td style="vertical-align:top;">:</td><td><div><table><tr><td><div>*</div></td></tr></table></div></td></tr><tr><td style="font-weight:bold;vertical-align:top;">google_analytics_id</td><td style="vertical-align:top;">:</td><td><div>None</div></td></tr><tr><td style="font-weight:bold;vertical-align:top;">headers</td><td style="vertical-align:top;">:</td><td><div><table><tr><td style="font-weight:bold;vertical-align:top;">X-Powered-By</td><td style="vertical-align:top;">:</td><td><div>web2py</div></td></tr></table></div></td></tr><tr><td style="font-weight:bold;vertical-align:top;">logo</td><td style="vertical-align:top;">:</td><td><div><a class="brand" data-w2p_disable_with="default" href="/SEACAT_ingresos/default/index"><img alt="Logo de SEACAT" src="/SEACAT_ingresos/static/Logo_seacat_mini.png" /></a></div></td></tr><tr><td style="font-weight:bold;vertical-align:top;">menu</td><td style="vertical-align:top;">:</td><td><div><table><tr><td><div><table><tr><td><div>P\xc3\xa1gina Principal</div></td></tr><tr><td><div>False</div></td></tr><tr><td><div>/SEACAT_ingresos/default/index</div></td></tr><tr><td><div><table></table></div></td></tr></table></div></td></tr><tr><td><div><table><tr><td><div><span class="highlighted">web2py</span></div></td></tr><tr><td><div>False</div></td></tr><tr><td><div>http://web2py.com</div></td></tr><tr><td><div><table><tr><td><div><table><tr><td><div>Mis Sitios</div></td></tr><tr><td><div>False</div></td></tr><tr><td><div>/admin/default/site</div></td></tr></table></div></td></tr><tr><td><div><table><tr><td><div>Esta Aplicaci\xc3\xb3n</div></td></tr><tr><td><div>False</div></td></tr><tr><td><div>/admin/default/design/SEACAT_ingresos</div></td></tr><tr><td><div>[(&lt;lazyT &#x27;Controller&#x27;&gt;, False, &#x27;/admin/default/edit/SEACAT_ingresos/controllers/default.py&#x27;), (&lt;lazyT &#x27;View&#x27;&gt;, False, &#x27;/admin/default/edit/SEACAT_ingresos/views/default/admin_users.html&#x27;), (&lt;lazyT &#x27;Layout&#x27;&gt;, False, &#x27;/admin/default/edit/SEACAT_ingresos/views/layout.html&#x27;), (&lt;lazyT &#x27;Stylesheet&#x27;&gt;, False, &#x27;/admin/default/edit/SEACAT_ingresos/static/css/web2py.css&#x27;), (&lt;lazyT &#x27;DB Model&#x27;&gt;, False, &#x27;/admin/default/edit/SEACAT_ingresos/models/db.py&#x27;), (&lt;lazyT &#x27;Menu Model&#x27;&gt;, False, &#x27;/admin/default/edit/SEACAT_ingresos/models/menu.py&#x27;), (&lt;lazyT &#x27;Database&#x27;&gt;, False, &#x27;/SEACAT_ingresos/appadmin/index&#x27;), (&lt;lazyT &#x27;Errors&#x27;&gt;, False, &#x27;/admin/default/errors/SEACAT_ingresos&#x27;), (&lt;lazyT &#x27;About&#x27;&gt;, False, &#x27;/admin/default/about/SEACAT_ingresos&#x27;)]</div></td></tr></table></div></td></tr><tr><td><div><table><tr><td><div>web2py.com</div></td></tr><tr><td><div>False</div></td></tr><tr><td><div>http://www.web2py.com</div></td></tr><tr><td><div>[(&lt;lazyT &#x27;Download&#x27;&gt;, False, &#x27;http://www.web2py.com/examples/default/download&#x27;), (&lt;lazyT &#x27;Support&#x27;&gt;, False, &#x27;http://www.web2py.com/examples/default/support&#x27;), (&lt;lazyT &#x27;Demo&#x27;&gt;, False, &#x27;http://web2py.com/demo_admin&#x27;), (&lt;lazyT &#x27;Quick Examples&#x27;&gt;, False, &#x27;http://web2py.com/examples/default/examples&#x27;), (&lt;lazyT &#x27;FAQ&#x27;&gt;, False, &#x27;http://web2py.com/AlterEgo&#x27;), (&lt;lazyT &#x27;Videos&#x27;&gt;, False, &#x27;http://www.web2py.com/examples/default/videos/&#x27;), (&lt;lazyT &#x27;Free Applications&#x27;&gt;, False, &#x27;http://web2py.com/appliances&#x27;), (&lt;lazyT &#x27;Plugins&#x27;&gt;, False, &#x27;http://web2py.com/plugins&#x27;), (&lt;lazyT &#x27;Layouts&#x27;&gt;, False, &#x27;http://web2py.com/layouts&#x27;), (&lt;lazyT &#x27;Recipes&#x27;&gt;, False, &#x27;http://web2pyslices.com/&#x27;), (&lt;lazyT &#x27;Semantic&#x27;&gt;, False, &#x27;http://web2py.com/semantic&#x27;)]</div></td></tr></table></div></td></tr><tr><td><div><table><tr><td><div>Documentaci\xc3\xb3n</div></td></tr><tr><td><div>False</div></td></tr><tr><td><div>http://www.web2py.com/book</div></td></tr><tr><td><div>[(&lt;lazyT &#x27;Preface&#x27;&gt;, False, &#x27;http://www.web2py.com/book/default/chapter/00&#x27;), (&lt;lazyT &#x27;Introduction&#x27;&gt;, False, &#x27;http://www.web2py.com/book/default/chapter/01&#x27;), (&lt;lazyT &#x27;Python&#x27;&gt;, False, &#x27;http://www.web2py.com/book/default/chapter/02&#x27;), (&lt;lazyT &#x27;Overview&#x27;&gt;, False, &#x27;http://www.web2py.com/book/default/chapter/03&#x27;), (&lt;lazyT &#x27;The Core&#x27;&gt;, False, &#x27;http://www.web2py.com/book/default/chapter/04&#x27;), (&lt;lazyT &#x27;The Views&#x27;&gt;, False, &#x27;http://www.web2py.com/book/default/chapter/05&#x27;), (&lt;lazyT &#x27;Database&#x27;&gt;, False, &#x27;http://www.web2py.com/book/default/chapter/06&#x27;), (&lt;lazyT &#x27;Forms and Validators&#x27;&gt;, False, &#x27;http://www.web2py.com/book/default/chapter/07&#x27;), (&lt;lazyT &#x27;Email and SMS&#x27;&gt;, False, &#x27;http://www.web2py.com/book/default/chapter/08&#x27;), (&lt;lazyT &#x27;Access Control&#x27;&gt;, False, &#x27;http://www.web2py.com/book/default/chapter/09&#x27;), (&lt;lazyT &#x27;Services&#x27;&gt;, False, &#x27;http://www.web2py.com/book/default/chapter/10&#x27;), (&lt;lazyT &#x27;Ajax Recipes&#x27;&gt;, False, &#x27;http://www.web2py.com/book/default/chapter/11&#x27;), (&lt;lazyT &#x27;Components and Plugins&#x27;&gt;, False, &#x27;http://www.web2py.com/book/default/chapter/12&#x27;), (&lt;lazyT &#x27;Deployment Recipes&#x27;&gt;, False, &#x27;http://www.web2py.com/book/default/chapter/13&#x27;), (&lt;lazyT &#x27;Other Recipes&#x27;&gt;, False, &#x27;http://www.web2py.com/book/default/chapter/14&#x27;), (&lt;lazyT &#x27;Buy this book&#x27;&gt;, False, &#x27;http://stores.lulu.com/web2py&#x27;)]</div></td></tr></table></div></td></tr><tr><td><div><table><tr><td><div>Comunidad</div></td></tr><tr><td><div>False</div></td></tr><tr><td><div>None</div></td></tr><tr><td><div>[(&lt;lazyT &#x27;Groups&#x27;&gt;, False, &#x27;http://www.web2py.com/examples/default/usergroups&#x27;), (&lt;lazyT &#x27;Twitter&#x27;&gt;, False, &#x27;http://twitter.com/web2py&#x27;), (&lt;lazyT &#x27;Live Chat&#x27;&gt;, False, &#x27;http://webchat.freenode.net/?channels=web2py&#x27;)]</div></td></tr></table></div></td></tr><tr><td><div><table><tr><td><div>Plugins</div></td></tr><tr><td><div>False</div></td></tr><tr><td><div>None</div></td></tr><tr><td><div>[(&#x27;plugin_wiki&#x27;, False, &#x27;http://web2py.com/examples/default/download&#x27;), (&lt;lazyT &#x27;Other Plugins&#x27;&gt;, False, &#x27;http://web2py.com/plugins&#x27;), (&lt;lazyT &#x27;Layout Plugins&#x27;&gt;, False, &#x27;http://web2py.com/layouts&#x27;)]</div></td></tr></table></div></td></tr></table></div></td></tr></table></div></td></tr><tr><td><div><table><tr><td><div><span class="highlighted">Men\xc3\xba de Root</span></div></td></tr><tr><td><div>False</div></td></tr><tr><td><div>None</div></td></tr><tr><td><div><table><tr><td><div><table><tr><td><div>Admin App</div></td></tr><tr><td><div>False</div></td></tr><tr><td><div>/SEACAT_ingresos/appadmin/index</div></td></tr></table></div></td></tr><tr><td><div><table><tr><td><div>Admin Users</div></td></tr><tr><td><div>False</div></td></tr><tr><td><div>/SEACAT_ingresos/default/admin_users</div></td></tr></table></div></td></tr><tr><td><div><table><tr><td><div>Admin Groups</div></td></tr><tr><td><div>False</div></td></tr><tr><td><div>/SEACAT_ingresos/default/admin_user_groups</div></td></tr></table></div></td></tr><tr><td><div><table><tr><td><div>Admin Memberships</div></td></tr><tr><td><div>False</div></td></tr><tr><td><div>/SEACAT_ingresos/default/admin_user_memberships</div></td></tr></table></div></td></tr><tr><td><div><table><tr><td><div>Admin Permissions</div></td></tr><tr><td><div>False</div></td></tr><tr><td><div>/SEACAT_ingresos/default/admin_user_permissions</div></td></tr></table></div></td></tr></table></div></td></tr></table></div></td></tr></table></div></td></tr><tr><td style="font-weight:bold;vertical-align:top;">meta</td><td style="vertical-align:top;">:</td><td><div><table><tr><td style="font-weight:bold;vertical-align:top;">author</td><td style="vertical-align:top;">:</td><td><div>Leandro E. Colombo Vi\xc3\xb1a &lt;colomboleandro@pioix.edu.ar&gt;</div></td></tr><tr><td style="font-weight:bold;vertical-align:top;">description</td><td style="vertical-align:top;">:</td><td><div>Sistema de Inscripciones para el Colegio P\xc3\xado IX</div></td></tr><tr><td style="font-weight:bold;vertical-align:top;">generator</td><td style="vertical-align:top;">:</td><td><div>Web2py Web Framework</div></td></tr><tr><td style="font-weight:bold;vertical-align:top;">keywords</td><td style="vertical-align:top;">:</td><td><div>Inscripciones, P\xc3\xado IX, Ingresantes, SEACAT</div></td></tr></table></div></td></tr><tr><td style="font-weight:bold;vertical-align:top;">models_to_run</td><td style="vertical-align:top;">:</td><td><div><table><tr><td><div>^\\w+\\.py$</div></td></tr><tr><td><div>^default/\\w+\\.py$</div></td></tr><tr><td><div>^default/admin_users/\\w+\\.py$</div></td></tr></table></div></td></tr><tr><td style="font-weight:bold;vertical-align:top;">postprocessing</td><td style="vertical-align:top;">:</td><td><div><table></table></div></td></tr><tr><td style="font-weight:bold;vertical-align:top;">session_client</td><td style="vertical-align:top;">:</td><td><div>10.0.0.19</div></td></tr><tr><td style="font-weight:bold;vertical-align:top;">session_cookie_compression_level</td><td style="vertical-align:top;">:</td><td><div>None</div></td></tr><tr><td style="font-weight:bold;vertical-align:top;">session_cookie_expires</td><td style="vertical-align:top;">:</td><td><div>None</div></td></tr><tr><td style="font-weight:bold;vertical-align:top;">session_cookie_key</td><td style="vertical-align:top;">:</td><td><div>None</div></td></tr><tr><td style="font-weight:bold;vertical-align:top;">session_data_name</td><td style="vertical-align:top;">:</td><td><div>session_data_seacat_ingresos</div></td></tr><tr><td style="font-weight:bold;vertical-align:top;">session_file</td><td style="vertical-align:top;">:</td><td><div>&lt;open file &#x27;D:\\Usuarios\\Leo\\Mis Documentos\\Dropbox\\web2py\\applications\\SEACAT_ingresos\\sessions\\10.0.0.19-fb39e5f4-0daf-42dc-b192-77ca91017a82&#x27;, mode &#x27;rb+&#x27; at 0x0000000008F23810&gt;</div></td></tr><tr><td style="font-weight:bold;vertical-align:top;">session_filename</td><td style="vertical-align:top;">:</td><td><div>D:\\Usuarios\\Leo\\Mis Documentos\\Dropbox\\web2py\\applications\\SEACAT_ingresos\\sessions\\10.0.0.19-fb39e5f4-0daf-42dc-b192-77ca91017a82</div></td></tr><tr><td style="font-weight:bold;vertical-align:top;">session_hash</td><td style="vertical-align:top;">:</td><td><div>fdeaa4468824763f1779cce2ce242a7e</div></td></tr><tr><td style="font-weight:bold;vertical-align:top;">session_id</td><td style="vertical-align:top;">:</td><td><div>10.0.0.19-fb39e5f4-0daf-42dc-b192-77ca91017a82</div></td></tr><tr><td style="font-weight:bold;vertical-align:top;">session_id_name</td><td style="vertical-align:top;">:</td><td><div>session_id_seacat_ingresos</div></td></tr><tr><td style="font-weight:bold;vertical-align:top;">session_locked</td><td style="vertical-align:top;">:</td><td><div>True</div></td></tr><tr><td style="font-weight:bold;vertical-align:top;">session_masterapp</td><td style="vertical-align:top;">:</td><td><div>SEACAT_ingresos</div></td></tr><tr><td style="font-weight:bold;vertical-align:top;">session_new</td><td style="vertical-align:top;">:</td><td><div>False</div></td></tr><tr><td style="font-weight:bold;vertical-align:top;">session_storage_type</td><td style="vertical-align:top;">:</td><td><div>file</div></td></tr><tr><td style="font-weight:bold;vertical-align:top;">status</td><td style="vertical-align:top;">:</td><td><div>200</div></td></tr><tr><td style="font-weight:bold;vertical-align:top;">subtitle</td><td style="vertical-align:top;">:</td><td><div>v.0.0.1b</div></td></tr><tr><td style="font-weight:bold;vertical-align:top;">title</td><td style="vertical-align:top;">:</td><td><div>SEACAT</div></td></tr><tr><td style="font-weight:bold;vertical-align:top;">view</td><td style="vertical-align:top;">:</td><td><div>default/admin_users.html</div></td></tr></table></div>'
tRp528
sS'locals'
p529
(dp530
S'byte_count'
p531
S'5'
sS'self'
p532
S'<gluon.contrib.pg8000.protocol.Connection object>'
p533
sS'retval'
p534
S'[]'
p535
sS'bytes_read'
p536
S'0'
sssS'traceback'
p537
S'Traceback (most recent call last):\n  File "D:\\Usuarios\\Leo\\Mis Documentos\\Dropbox\\web2py\\gluon\\restricted.py", line 217, in restricted\n    exec ccode in environment\n  File "D:\\Usuarios\\Leo\\Mis Documentos\\Dropbox\\web2py\\applications\\SEACAT_ingresos\\models\\menu.py", line 183, in <module>\n    if DEVELOPMENT_MENU: _()\n  File "D:\\Usuarios\\Leo\\Mis Documentos\\Dropbox\\web2py\\applications\\SEACAT_ingresos\\models\\menu.py", line 167, in _\n    if auth.has_permission(\'create new father\', db.auth_user):\n  File "D:\\Usuarios\\Leo\\Mis Documentos\\Dropbox\\web2py\\gluon\\tools.py", line 3430, in has_permission\n    == record_id).select(permission.group_id)\n  File "D:\\Usuarios\\Leo\\Mis Documentos\\Dropbox\\web2py\\gluon\\dal.py", line 10111, in select\n    return adapter.select(self.query,fields,attributes)\n  File "D:\\Usuarios\\Leo\\Mis Documentos\\Dropbox\\web2py\\gluon\\dal.py", line 1751, in select\n    return self._select_aux(sql,fields,attributes)\n  File "D:\\Usuarios\\Leo\\Mis Documentos\\Dropbox\\web2py\\gluon\\dal.py", line 1716, in _select_aux\n    self.execute(sql)\n  File "D:\\Usuarios\\Leo\\Mis Documentos\\Dropbox\\web2py\\gluon\\dal.py", line 1836, in execute\n    return self.log_execute(*a, **b)\n  File "D:\\Usuarios\\Leo\\Mis Documentos\\Dropbox\\web2py\\gluon\\dal.py", line 1830, in log_execute\n    ret = self.cursor.execute(command, *a[1:], **b)\n  File "D:\\Usuarios\\Leo\\Mis Documentos\\Dropbox\\web2py\\gluon\\contrib\\pg8000\\dbapi.py", line 246, in _fn\n    return fn(self, *args, **kwargs)\n  File "D:\\Usuarios\\Leo\\Mis Documentos\\Dropbox\\web2py\\gluon\\contrib\\pg8000\\dbapi.py", line 317, in execute\n    self._execute(operation, args)\n  File "D:\\Usuarios\\Leo\\Mis Documentos\\Dropbox\\web2py\\gluon\\contrib\\pg8000\\dbapi.py", line 322, in _execute\n    self.cursor.execute(new_query, *new_args)\n  File "D:\\Usuarios\\Leo\\Mis Documentos\\Dropbox\\web2py\\gluon\\contrib\\pg8000\\interface.py", line 399, in execute\n    self._stmt.execute(*args, **kwargs)\n  File "D:\\Usuarios\\Leo\\Mis Documentos\\Dropbox\\web2py\\gluon\\contrib\\pg8000\\interface.py", line 176, in execute\n    self._fill_cache()\n  File "D:\\Usuarios\\Leo\\Mis Documentos\\Dropbox\\web2py\\gluon\\contrib\\pg8000\\interface.py", line 190, in _fill_cache\n    end_of_data, rows = self.c.fetch_rows(self._portal_name, self.row_cache_size, self._row_desc)\n  File "D:\\Usuarios\\Leo\\Mis Documentos\\Dropbox\\web2py\\gluon\\contrib\\pg8000\\protocol.py", line 943, in _fn\n    return fn(self, *args, **kwargs)\n  File "D:\\Usuarios\\Leo\\Mis Documentos\\Dropbox\\web2py\\gluon\\contrib\\pg8000\\protocol.py", line 1249, in fetch_rows\n    retval = reader.handle_messages()\n  File "D:\\Usuarios\\Leo\\Mis Documentos\\Dropbox\\web2py\\gluon\\contrib\\pg8000\\protocol.py", line 906, in handle_messages\n    msg = self._conn._read_message()\n  File "D:\\Usuarios\\Leo\\Mis Documentos\\Dropbox\\web2py\\gluon\\contrib\\pg8000\\protocol.py", line 1033, in _read_message\n    bytes = self._read_bytes(5)\n  File "D:\\Usuarios\\Leo\\Mis Documentos\\Dropbox\\web2py\\gluon\\contrib\\pg8000\\protocol.py", line 1021, in _read_bytes\n    self._sock_buf = self._sock.recv(1024)\ntimeout: timed out\n'
p538
s.