(dp1
S'output'
p2
S''
sS'layer'
p3
S'Framework'
p4
sS'code'
p5
S''
sS'snapshot'
p6
(dp7
S'exception'
p8
(dp9
S'__module__'
p10
S"'socket'"
p11
sS'__getslice__'
p12
S"<method-wrapper '__getslice__' of error object>"
p13
sS'__str__'
p14
S"<method-wrapper '__str__' of error object>"
p15
sS'__reduce__'
p16
S'<built-in method __reduce__ of error object>'
p17
sS'__dict__'
p18
S'{}'
p19
sS'__sizeof__'
p20
S'<built-in method __sizeof__ of error object>'
p21
sS'__weakref__'
p22
S'None'
p23
sS'__init__'
p24
S"<method-wrapper '__init__' of error object>"
p25
sS'__setattr__'
p26
S"<method-wrapper '__setattr__' of error object>"
p27
sS'__reduce_ex__'
p28
S'<built-in method __reduce_ex__ of error object>'
p29
sS'__new__'
p30
S'<built-in method __new__ of type object>'
p31
sS'errno'
p32
S'10054'
p33
sS'__format__'
p34
S'<built-in method __format__ of error object>'
p35
sS'__class__'
p36
S"<class 'socket.error'>"
p37
sS'filename'
p38
S'None'
p39
sS'__doc__'
p40
S'None'
p41
sS'__getitem__'
p42
S"<method-wrapper '__getitem__' of error object>"
p43
sS'__setstate__'
p44
S'<built-in method __setstate__ of error object>'
p45
sS'__getattribute__'
p46
S"<method-wrapper '__getattribute__' of error object>"
p47
sS'args'
p48
S"(10054, 'Se ha forzado la interrupci\\xf3n de una conexi\\xf3n existente por el host remoto')"
p49
sS'__subclasshook__'
p50
S'<built-in method __subclasshook__ of type object>'
p51
sS'__unicode__'
p52
S'<built-in method __unicode__ of error object>'
p53
sS'strerror'
p54
S"'Se ha forzado la interrupci\\xf3n de una conexi\\xf3n existente por el host remoto'"
p55
sS'__delattr__'
p56
S"<method-wrapper '__delattr__' of error object>"
p57
sS'__repr__'
p58
S"<method-wrapper '__repr__' of error object>"
p59
sS'__hash__'
p60
S"<method-wrapper '__hash__' of error object>"
p61
ssS'evalue'
p62
S'[Errno 10054] Se ha forzado la interrupci\xf3n de una conexi\xf3n existente por el host remoto'
p63
sS'request'
p64
cgluon.html
XML_unpickle
p65
(S's\xc5b\x00\x00<div><table><tr><td style="font-weight:bold;vertical-align:top;">ajax</td><td style="vertical-align:top;">:</td><td><div>False</div></td></tr><tr><td style="font-weight:bold;vertical-align:top;">application</td><td style="vertical-align:top;">:</td><td><div>SEACAT_ingresos</div></td></tr><tr><td style="font-weight:bold;vertical-align:top;">args</td><td style="vertical-align:top;">:</td><td><div><table><tr><td><div>auth_membership</div></td></tr></table></div></td></tr><tr><td style="font-weight:bold;vertical-align:top;">cid</td><td style="vertical-align:top;">:</td><td><div>None</div></td></tr><tr><td style="font-weight:bold;vertical-align:top;">client</td><td style="vertical-align:top;">:</td><td><div>10.0.0.19</div></td></tr><tr><td style="font-weight:bold;vertical-align:top;">controller</td><td style="vertical-align:top;">:</td><td><div>default</div></td></tr><tr><td style="font-weight:bold;vertical-align:top;">cookies</td><td style="vertical-align:top;">:</td><td><div><table><tr><td style="font-weight:bold;vertical-align:top;">session_id_admin</td><td style="vertical-align:top;">:</td><td><div>10.0.0.19-1352923c-ddb6-4b27-936a-3c420351c593<table><tr><td style="font-weight:bold;vertical-align:top;">comment</td><td style="vertical-align:top;">:</td><td><div></div></td></tr><tr><td style="font-weight:bold;vertical-align:top;">domain</td><td style="vertical-align:top;">:</td><td><div></div></td></tr><tr><td style="font-weight:bold;vertical-align:top;">expires</td><td style="vertical-align:top;">:</td><td><div></div></td></tr><tr><td style="font-weight:bold;vertical-align:top;">httponly</td><td style="vertical-align:top;">:</td><td><div></div></td></tr><tr><td style="font-weight:bold;vertical-align:top;">max-age</td><td style="vertical-align:top;">:</td><td><div></div></td></tr><tr><td style="font-weight:bold;vertical-align:top;">path</td><td style="vertical-align:top;">:</td><td><div></div></td></tr><tr><td style="font-weight:bold;vertical-align:top;">secure</td><td style="vertical-align:top;">:</td><td><div></div></td></tr><tr><td style="font-weight:bold;vertical-align:top;">version</td><td style="vertical-align:top;">:</td><td><div></div></td></tr></table></div></td></tr><tr><td style="font-weight:bold;vertical-align:top;">session_id_seacat_ingresos</td><td style="vertical-align:top;">:</td><td><div>10.0.0.19-fb39e5f4-0daf-42dc-b192-77ca91017a82<table><tr><td style="font-weight:bold;vertical-align:top;">comment</td><td style="vertical-align:top;">:</td><td><div></div></td></tr><tr><td style="font-weight:bold;vertical-align:top;">domain</td><td style="vertical-align:top;">:</td><td><div></div></td></tr><tr><td style="font-weight:bold;vertical-align:top;">expires</td><td style="vertical-align:top;">:</td><td><div></div></td></tr><tr><td style="font-weight:bold;vertical-align:top;">httponly</td><td style="vertical-align:top;">:</td><td><div></div></td></tr><tr><td style="font-weight:bold;vertical-align:top;">max-age</td><td style="vertical-align:top;">:</td><td><div></div></td></tr><tr><td style="font-weight:bold;vertical-align:top;">path</td><td style="vertical-align:top;">:</td><td><div></div></td></tr><tr><td style="font-weight:bold;vertical-align:top;">secure</td><td style="vertical-align:top;">:</td><td><div></div></td></tr><tr><td style="font-weight:bold;vertical-align:top;">version</td><td style="vertical-align:top;">:</td><td><div></div></td></tr></table></div></td></tr><tr><td style="font-weight:bold;vertical-align:top;">session_id_welcome</td><td style="vertical-align:top;">:</td><td><div>10.0.0.19-4ca018b7-985d-404a-9b81-445fd72c9dda<table><tr><td style="font-weight:bold;vertical-align:top;">comment</td><td style="vertical-align:top;">:</td><td><div></div></td></tr><tr><td style="font-weight:bold;vertical-align:top;">domain</td><td style="vertical-align:top;">:</td><td><div></div></td></tr><tr><td style="font-weight:bold;vertical-align:top;">expires</td><td style="vertical-align:top;">:</td><td><div></div></td></tr><tr><td style="font-weight:bold;vertical-align:top;">httponly</td><td style="vertical-align:top;">:</td><td><div></div></td></tr><tr><td style="font-weight:bold;vertical-align:top;">max-age</td><td style="vertical-align:top;">:</td><td><div></div></td></tr><tr><td style="font-weight:bold;vertical-align:top;">path</td><td style="vertical-align:top;">:</td><td><div></div></td></tr><tr><td style="font-weight:bold;vertical-align:top;">secure</td><td style="vertical-align:top;">:</td><td><div></div></td></tr><tr><td style="font-weight:bold;vertical-align:top;">version</td><td style="vertical-align:top;">:</td><td><div></div></td></tr></table></div></td></tr></table></div></td></tr><tr><td style="font-weight:bold;vertical-align:top;">env</td><td style="vertical-align:top;">:</td><td><div><table><tr><td style="font-weight:bold;vertical-align:top;">HTTP_ACCEPT</td><td style="vertical-align:top;">:</td><td><div>text/html,application/xhtml+xml,application/xml;q=0.9,image/webp,*/*;q=0.8</div></td></tr><tr><td style="font-weight:bold;vertical-align:top;">HTTP_ACCEPT_ENCODING</td><td style="vertical-align:top;">:</td><td><div>gzip,deflate,sdch</div></td></tr><tr><td style="font-weight:bold;vertical-align:top;">HTTP_ACCEPT_LANGUAGE</td><td style="vertical-align:top;">:</td><td><div>es,es-419;q=0.8,en-US;q=0.6,en;q=0.4</div></td></tr><tr><td style="font-weight:bold;vertical-align:top;">HTTP_CACHE_CONTROL</td><td style="vertical-align:top;">:</td><td><div>max-age=0</div></td></tr><tr><td style="font-weight:bold;vertical-align:top;">HTTP_CONNECTION</td><td style="vertical-align:top;">:</td><td><div>keep-alive</div></td></tr><tr><td style="font-weight:bold;vertical-align:top;">HTTP_COOKIE</td><td style="vertical-align:top;">:</td><td><div>session_id_welcome=10.0.0.19-4ca018b7-985d-404a-9b81-445fd72c9dda; session_id_seacat_ingresos=10.0.0.19-fb39e5f4-0daf-42dc-b192-77ca91017a82; session_id_admin=10.0.0.19-1352923c-ddb6-4b27-936a-3c420351c593</div></td></tr><tr><td style="font-weight:bold;vertical-align:top;">HTTP_HOST</td><td style="vertical-align:top;">:</td><td><div>10.0.0.19:8000</div></td></tr><tr><td style="font-weight:bold;vertical-align:top;">HTTP_REFERER</td><td style="vertical-align:top;">:</td><td><div>http://10.0.0.19:8000/SEACAT_ingresos/default/admin_user_groups</div></td></tr><tr><td style="font-weight:bold;vertical-align:top;">HTTP_USER_AGENT</td><td style="vertical-align:top;">:</td><td><div>Mozilla/5.0 (Windows NT 6.1; WOW64) AppleWebKit/537.36 (KHTML, like Gecko) Chrome/31.0.1650.63 Safari/537.36</div></td></tr><tr><td style="font-weight:bold;vertical-align:top;">PATH_INFO</td><td style="vertical-align:top;">:</td><td><div>/SEACAT_ingresos/default/admin_user_memberships</div></td></tr><tr><td style="font-weight:bold;vertical-align:top;">QUERY_STRING</td><td style="vertical-align:top;">:</td><td><div></div></td></tr><tr><td style="font-weight:bold;vertical-align:top;">REMOTE_ADDR</td><td style="vertical-align:top;">:</td><td><div>10.0.0.19</div></td></tr><tr><td style="font-weight:bold;vertical-align:top;">REMOTE_PORT</td><td style="vertical-align:top;">:</td><td><div>51032</div></td></tr><tr><td style="font-weight:bold;vertical-align:top;">REQUEST_METHOD</td><td style="vertical-align:top;">:</td><td><div>GET</div></td></tr><tr><td style="font-weight:bold;vertical-align:top;">SCRIPT_NAME</td><td style="vertical-align:top;">:</td><td><div></div></td></tr><tr><td style="font-weight:bold;vertical-align:top;">SERVER_NAME</td><td style="vertical-align:top;">:</td><td><div>Larrea-W7</div></td></tr><tr><td style="font-weight:bold;vertical-align:top;">SERVER_PORT</td><td style="vertical-align:top;">:</td><td><div>8000</div></td></tr><tr><td style="font-weight:bold;vertical-align:top;">SERVER_PROTOCOL</td><td style="vertical-align:top;">:</td><td><div>HTTP/1.1</div></td></tr><tr><td style="font-weight:bold;vertical-align:top;">SERVER_SOFTWARE</td><td style="vertical-align:top;">:</td><td><div>Rocket 1.2.6</div></td></tr><tr><td style="font-weight:bold;vertical-align:top;">app_folders</td><td style="vertical-align:top;">:</td><td><div>set([&#x27;D:\\\\Usuarios\\\\Leo\\\\Mis Documentos\\\\Dropbox\\\\web2py\\\\applications\\\\welcome\\\\&#x27;, &#x27;D:\\\\Usuarios\\\\Leo\\\\Mis Documentos\\\\Dropbox\\\\web2py\\\\applications\\\\admin\\\\&#x27;, &#x27;D:\\\\Usuarios\\\\Leo\\\\Mis Documentos\\\\Dropbox\\\\web2py\\\\applications\\\\SEACAT_ingresos\\\\&#x27;])</div></td></tr><tr><td style="font-weight:bold;vertical-align:top;">applications_parent</td><td style="vertical-align:top;">:</td><td><div>D:\\Usuarios\\Leo\\Mis Documentos\\Dropbox\\web2py</div></td></tr><tr><td style="font-weight:bold;vertical-align:top;">cmd_args</td><td style="vertical-align:top;">:</td><td><div><table></table></div></td></tr><tr><td style="font-weight:bold;vertical-align:top;">cmd_options</td><td style="vertical-align:top;">:</td><td><div>&lt;Values at 0x383aa08: {&#x27;verbose&#x27;: False, &#x27;ip&#x27;: &#x27;127.0.0.1&#x27;, &#x27;debuglevel&#x27;: 30, &#x27;with_scheduler&#x27;: False, &#x27;ips&#x27;: [&#x27;fe80::2121:4df9:cfc2:896b%20&#x27;, &#x27;192.168.62.1&#x27;, &#x27;fe80::c00d:daa6:7e9b:759a%10&#x27;, &#x27;192.168.150.1&#x27;, &#x27;10.0.0.19&#x27;, &#x27;fe80::d86d:56c0:a307:313b%19&#x27;, &#x27;fe80::991a:a3f3:d9a1:8cb2%17&#x27;, &#x27;192.168.56.1&#x27;], &#x27;shutdown_timeout&#x27;: 5, &#x27;taskbar&#x27;: False, &#x27;with_coverage&#x27;: False, &#x27;port&#x27;: 8000, &#x27;maxthreads&#x27;: None, &#x27;softcron&#x27;: False, &#x27;server_name&#x27;: &#x27;Larrea-W7&#x27;, &#x27;bpython&#x27;: False, &#x27;nogui&#x27;: False, &#x27;pid_filename&#x27;: &#x27;httpserver.pid&#x27;, &#x27;extcron&#x27;: False, &#x27;runcron&#x27;: False, &#x27;run_system_tests&#x27;: False, &#x27;test&#x27;: None, &#x27;folder&#x27;: &#x27;D:\\\\Usuarios\\\\Leo\\\\Mis Documentos\\\\Dropbox\\\\web2py&#x27;, &#x27;config&#x27;: &#x27;&#x27;, &#x27;import_models&#x27;: False, &#x27;winservice&#x27;: &#x27;&#x27;, &#x27;shell&#x27;: None, &#x27;run&#x27;: &#x27;&#x27;, &#x27;log_filename&#x27;: &#x27;httpserver.log&#x27;, &#x27;profiler_dir&#x27;: None, &#x27;args&#x27;: [&#x27;&#x27;], &#x27;socket_timeout&#x27;: 5, &#x27;ssl_ca_certificate&#x27;: None, &#x27;scheduler&#x27;: None, &#x27;interfaces&#x27;: None, &#x27;ssl_private_key&#x27;: &#x27;&#x27;, &#x27;scheduler_groups&#x27;: None, &#x27;password&#x27;: &#x27;&lt;ask&gt;&#x27;, &#x27;request_queue_size&#x27;: 5, &#x27;ssl_certificate&#x27;: &#x27;&#x27;, &#x27;cronjob&#x27;: False, &#x27;numthreads&#x27;: None, &#x27;quiet&#x27;: False, &#x27;minthreads&#x27;: None, &#x27;timeout&#x27;: 10, &#x27;plain&#x27;: False, &#x27;nobanner&#x27;: False}&gt;</div></td></tr><tr><td style="font-weight:bold;vertical-align:top;">db_sessions</td><td style="vertical-align:top;">:</td><td><div>set([])</div></td></tr><tr><td style="font-weight:bold;vertical-align:top;">debugging</td><td style="vertical-align:top;">:</td><td><div>True</div></td></tr><tr><td style="font-weight:bold;vertical-align:top;">gluon_parent</td><td style="vertical-align:top;">:</td><td><div>D:\\Usuarios\\Leo\\Mis Documentos\\Dropbox\\web2py</div></td></tr><tr><td style="font-weight:bold;vertical-align:top;">http_accept</td><td style="vertical-align:top;">:</td><td><div>text/html,application/xhtml+xml,application/xml;q=0.9,image/webp,*/*;q=0.8</div></td></tr><tr><td style="font-weight:bold;vertical-align:top;">http_accept_encoding</td><td style="vertical-align:top;">:</td><td><div>gzip,deflate,sdch</div></td></tr><tr><td style="font-weight:bold;vertical-align:top;">http_accept_language</td><td style="vertical-align:top;">:</td><td><div>es,es-419;q=0.8,en-US;q=0.6,en;q=0.4</div></td></tr><tr><td style="font-weight:bold;vertical-align:top;">http_cache_control</td><td style="vertical-align:top;">:</td><td><div>max-age=0</div></td></tr><tr><td style="font-weight:bold;vertical-align:top;">http_connection</td><td style="vertical-align:top;">:</td><td><div>keep-alive</div></td></tr><tr><td style="font-weight:bold;vertical-align:top;">http_cookie</td><td style="vertical-align:top;">:</td><td><div>session_id_welcome=10.0.0.19-4ca018b7-985d-404a-9b81-445fd72c9dda; session_id_seacat_ingresos=10.0.0.19-fb39e5f4-0daf-42dc-b192-77ca91017a82; session_id_admin=10.0.0.19-1352923c-ddb6-4b27-936a-3c420351c593</div></td></tr><tr><td style="font-weight:bold;vertical-align:top;">http_host</td><td style="vertical-align:top;">:</td><td><div>10.0.0.19:8000</div></td></tr><tr><td style="font-weight:bold;vertical-align:top;">http_referer</td><td style="vertical-align:top;">:</td><td><div>http://10.0.0.19:8000/SEACAT_ingresos/default/admin_user_groups</div></td></tr><tr><td style="font-weight:bold;vertical-align:top;">http_user_agent</td><td style="vertical-align:top;">:</td><td><div>Mozilla/5.0 (Windows NT 6.1; WOW64) AppleWebKit/537.36 (KHTML, like Gecko) Chrome/31.0.1650.63 Safari/537.36</div></td></tr><tr><td style="font-weight:bold;vertical-align:top;">is_jython</td><td style="vertical-align:top;">:</td><td><div>False</div></td></tr><tr><td style="font-weight:bold;vertical-align:top;">is_pypy</td><td style="vertical-align:top;">:</td><td><div>False</div></td></tr><tr><td style="font-weight:bold;vertical-align:top;">is_source</td><td style="vertical-align:top;">:</td><td><div>True</div></td></tr><tr><td style="font-weight:bold;vertical-align:top;">local_hosts</td><td style="vertical-align:top;">:</td><td><div><table><tr><td><div>fe80::2121:4df9:cfc2:896b%20</div></td></tr><tr><td><div>192.168.62.1</div></td></tr><tr><td><div>fe80::c00d:daa6:7e9b:759a%10</div></td></tr><tr><td><div>192.168.150.1</div></td></tr><tr><td><div>Larrea-W7</div></td></tr><tr><td><div>10.0.0.19</div></td></tr><tr><td><div>::ffff:127.0.0.1</div></td></tr><tr><td><div>::1</div></td></tr><tr><td><div>fe80::d86d:56c0:a307:313b%19</div></td></tr><tr><td><div>fe80::991a:a3f3:d9a1:8cb2%17</div></td></tr><tr><td><div>127.0.0.1</div></td></tr><tr><td><div>192.168.56.1</div></td></tr></table></div></td></tr><tr><td style="font-weight:bold;vertical-align:top;">path_info</td><td style="vertical-align:top;">:</td><td><div>/SEACAT_ingresos/default/admin_user_memberships</div></td></tr><tr><td style="font-weight:bold;vertical-align:top;">query_string</td><td style="vertical-align:top;">:</td><td><div></div></td></tr><tr><td style="font-weight:bold;vertical-align:top;">remote_addr</td><td style="vertical-align:top;">:</td><td><div>10.0.0.19</div></td></tr><tr><td style="font-weight:bold;vertical-align:top;">remote_port</td><td style="vertical-align:top;">:</td><td><div>51032</div></td></tr><tr><td style="font-weight:bold;vertical-align:top;">request_method</td><td style="vertical-align:top;">:</td><td><div>GET</div></td></tr><tr><td style="font-weight:bold;vertical-align:top;">request_uri</td><td style="vertical-align:top;">:</td><td><div>/SEACAT_ingresos/default/admin_user_memberships</div></td></tr><tr><td style="font-weight:bold;vertical-align:top;">script_name</td><td style="vertical-align:top;">:</td><td><div></div></td></tr><tr><td style="font-weight:bold;vertical-align:top;">server_name</td><td style="vertical-align:top;">:</td><td><div>Larrea-W7</div></td></tr><tr><td style="font-weight:bold;vertical-align:top;">server_port</td><td style="vertical-align:top;">:</td><td><div>8000</div></td></tr><tr><td style="font-weight:bold;vertical-align:top;">server_protocol</td><td style="vertical-align:top;">:</td><td><div>HTTP/1.1</div></td></tr><tr><td style="font-weight:bold;vertical-align:top;">server_software</td><td style="vertical-align:top;">:</td><td><div>Rocket 1.2.6</div></td></tr><tr><td style="font-weight:bold;vertical-align:top;">web2py_path</td><td style="vertical-align:top;">:</td><td><div>D:\\Usuarios\\Leo\\Mis Documentos\\Dropbox\\web2py</div></td></tr><tr><td style="font-weight:bold;vertical-align:top;">web2py_version</td><td style="vertical-align:top;">:</td><td><div>2.7.4-stable+timestamp.2013.10.14.15.16.29</div></td></tr><tr><td style="font-weight:bold;vertical-align:top;">wsgi.errors</td><td style="vertical-align:top;">:</td><td><div>&lt;open file &#x27;&lt;stderr&gt;&#x27;, mode &#x27;w&#x27; at 0x0000000001D051E0&gt;</div></td></tr><tr><td style="font-weight:bold;vertical-align:top;">wsgi.file_wrapper</td><td style="vertical-align:top;">:</td><td><div>&lt;class wsgiref.util.FileWrapper at 0x00000000037E74C8&gt;</div></td></tr><tr><td style="font-weight:bold;vertical-align:top;">wsgi.input</td><td style="vertical-align:top;">:</td><td><div>&lt;socket._fileobject object at 0x0000000008D1BD68&gt;</div></td></tr><tr><td style="font-weight:bold;vertical-align:top;">wsgi.multiprocess</td><td style="vertical-align:top;">:</td><td><div>False</div></td></tr><tr><td style="font-weight:bold;vertical-align:top;">wsgi.multithread</td><td style="vertical-align:top;">:</td><td><div>True</div></td></tr><tr><td style="font-weight:bold;vertical-align:top;">wsgi.run_once</td><td style="vertical-align:top;">:</td><td><div>False</div></td></tr><tr><td style="font-weight:bold;vertical-align:top;">wsgi.url_scheme</td><td style="vertical-align:top;">:</td><td><div>http</div></td></tr><tr><td style="font-weight:bold;vertical-align:top;">wsgi.version</td><td style="vertical-align:top;">:</td><td><div><table><tr><td><div>1</div></td></tr><tr><td><div>0</div></td></tr></table></div></td></tr><tr><td style="font-weight:bold;vertical-align:top;">wsgi_errors</td><td style="vertical-align:top;">:</td><td><div>&lt;open file &#x27;&lt;stderr&gt;&#x27;, mode &#x27;w&#x27; at 0x0000000001D051E0&gt;</div></td></tr><tr><td style="font-weight:bold;vertical-align:top;">wsgi_file_wrapper</td><td style="vertical-align:top;">:</td><td><div>&lt;class wsgiref.util.FileWrapper at 0x00000000037E74C8&gt;</div></td></tr><tr><td style="font-weight:bold;vertical-align:top;">wsgi_input</td><td style="vertical-align:top;">:</td><td><div>&lt;socket._fileobject object at 0x0000000008D1BD68&gt;</div></td></tr><tr><td style="font-weight:bold;vertical-align:top;">wsgi_multiprocess</td><td style="vertical-align:top;">:</td><td><div>False</div></td></tr><tr><td style="font-weight:bold;vertical-align:top;">wsgi_multithread</td><td style="vertical-align:top;">:</td><td><div>True</div></td></tr><tr><td style="font-weight:bold;vertical-align:top;">wsgi_run_once</td><td style="vertical-align:top;">:</td><td><div>False</div></td></tr><tr><td style="font-weight:bold;vertical-align:top;">wsgi_url_scheme</td><td style="vertical-align:top;">:</td><td><div>http</div></td></tr><tr><td style="font-weight:bold;vertical-align:top;">wsgi_version</td><td style="vertical-align:top;">:</td><td><div><table><tr><td><div>1</div></td></tr><tr><td><div>0</div></td></tr></table></div></td></tr></table></div></td></tr><tr><td style="font-weight:bold;vertical-align:top;">extension</td><td style="vertical-align:top;">:</td><td><div>html</div></td></tr><tr><td style="font-weight:bold;vertical-align:top;">folder</td><td style="vertical-align:top;">:</td><td><div>D:\\Usuarios\\Leo\\Mis Documentos\\Dropbox\\web2py\\applications\\SEACAT_ingresos\\</div></td></tr><tr><td style="font-weight:bold;vertical-align:top;">function</td><td style="vertical-align:top;">:</td><td><div>admin_user_memberships</div></td></tr><tr><td style="font-weight:bold;vertical-align:top;">global_settings</td><td style="vertical-align:top;">:</td><td><div><table><tr><td style="font-weight:bold;vertical-align:top;">app_folders</td><td style="vertical-align:top;">:</td><td><div>set([&#x27;D:\\\\Usuarios\\\\Leo\\\\Mis Documentos\\\\Dropbox\\\\web2py\\\\applications\\\\welcome\\\\&#x27;, &#x27;D:\\\\Usuarios\\\\Leo\\\\Mis Documentos\\\\Dropbox\\\\web2py\\\\applications\\\\admin\\\\&#x27;, &#x27;D:\\\\Usuarios\\\\Leo\\\\Mis Documentos\\\\Dropbox\\\\web2py\\\\applications\\\\SEACAT_ingresos\\\\&#x27;])</div></td></tr><tr><td style="font-weight:bold;vertical-align:top;">applications_parent</td><td style="vertical-align:top;">:</td><td><div>D:\\Usuarios\\Leo\\Mis Documentos\\Dropbox\\web2py</div></td></tr><tr><td style="font-weight:bold;vertical-align:top;">cmd_args</td><td style="vertical-align:top;">:</td><td><div><table></table></div></td></tr><tr><td style="font-weight:bold;vertical-align:top;">cmd_options</td><td style="vertical-align:top;">:</td><td><div>&lt;Values at 0x383aa08: {&#x27;verbose&#x27;: False, &#x27;ip&#x27;: &#x27;127.0.0.1&#x27;, &#x27;debuglevel&#x27;: 30, &#x27;with_scheduler&#x27;: False, &#x27;ips&#x27;: [&#x27;fe80::2121:4df9:cfc2:896b%20&#x27;, &#x27;192.168.62.1&#x27;, &#x27;fe80::c00d:daa6:7e9b:759a%10&#x27;, &#x27;192.168.150.1&#x27;, &#x27;10.0.0.19&#x27;, &#x27;fe80::d86d:56c0:a307:313b%19&#x27;, &#x27;fe80::991a:a3f3:d9a1:8cb2%17&#x27;, &#x27;192.168.56.1&#x27;], &#x27;shutdown_timeout&#x27;: 5, &#x27;taskbar&#x27;: False, &#x27;with_coverage&#x27;: False, &#x27;port&#x27;: 8000, &#x27;maxthreads&#x27;: None, &#x27;softcron&#x27;: False, &#x27;server_name&#x27;: &#x27;Larrea-W7&#x27;, &#x27;bpython&#x27;: False, &#x27;nogui&#x27;: False, &#x27;pid_filename&#x27;: &#x27;httpserver.pid&#x27;, &#x27;extcron&#x27;: False, &#x27;runcron&#x27;: False, &#x27;run_system_tests&#x27;: False, &#x27;test&#x27;: None, &#x27;folder&#x27;: &#x27;D:\\\\Usuarios\\\\Leo\\\\Mis Documentos\\\\Dropbox\\\\web2py&#x27;, &#x27;config&#x27;: &#x27;&#x27;, &#x27;import_models&#x27;: False, &#x27;winservice&#x27;: &#x27;&#x27;, &#x27;shell&#x27;: None, &#x27;run&#x27;: &#x27;&#x27;, &#x27;log_filename&#x27;: &#x27;httpserver.log&#x27;, &#x27;profiler_dir&#x27;: None, &#x27;args&#x27;: [&#x27;&#x27;], &#x27;socket_timeout&#x27;: 5, &#x27;ssl_ca_certificate&#x27;: None, &#x27;scheduler&#x27;: None, &#x27;interfaces&#x27;: None, &#x27;ssl_private_key&#x27;: &#x27;&#x27;, &#x27;scheduler_groups&#x27;: None, &#x27;password&#x27;: &#x27;&lt;ask&gt;&#x27;, &#x27;request_queue_size&#x27;: 5, &#x27;ssl_certificate&#x27;: &#x27;&#x27;, &#x27;cronjob&#x27;: False, &#x27;numthreads&#x27;: None, &#x27;quiet&#x27;: False, &#x27;minthreads&#x27;: None, &#x27;timeout&#x27;: 10, &#x27;plain&#x27;: False, &#x27;nobanner&#x27;: False}&gt;</div></td></tr><tr><td style="font-weight:bold;vertical-align:top;">db_sessions</td><td style="vertical-align:top;">:</td><td><div>set([])</div></td></tr><tr><td style="font-weight:bold;vertical-align:top;">debugging</td><td style="vertical-align:top;">:</td><td><div>True</div></td></tr><tr><td style="font-weight:bold;vertical-align:top;">gluon_parent</td><td style="vertical-align:top;">:</td><td><div>D:\\Usuarios\\Leo\\Mis Documentos\\Dropbox\\web2py</div></td></tr><tr><td style="font-weight:bold;vertical-align:top;">is_jython</td><td style="vertical-align:top;">:</td><td><div>False</div></td></tr><tr><td style="font-weight:bold;vertical-align:top;">is_pypy</td><td style="vertical-align:top;">:</td><td><div>False</div></td></tr><tr><td style="font-weight:bold;vertical-align:top;">is_source</td><td style="vertical-align:top;">:</td><td><div>True</div></td></tr><tr><td style="font-weight:bold;vertical-align:top;">local_hosts</td><td style="vertical-align:top;">:</td><td><div><table><tr><td><div>fe80::2121:4df9:cfc2:896b%20</div></td></tr><tr><td><div>192.168.62.1</div></td></tr><tr><td><div>fe80::c00d:daa6:7e9b:759a%10</div></td></tr><tr><td><div>192.168.150.1</div></td></tr><tr><td><div>Larrea-W7</div></td></tr><tr><td><div>10.0.0.19</div></td></tr><tr><td><div>::ffff:127.0.0.1</div></td></tr><tr><td><div>::1</div></td></tr><tr><td><div>fe80::d86d:56c0:a307:313b%19</div></td></tr><tr><td><div>fe80::991a:a3f3:d9a1:8cb2%17</div></td></tr><tr><td><div>127.0.0.1</div></td></tr><tr><td><div>192.168.56.1</div></td></tr></table></div></td></tr><tr><td style="font-weight:bold;vertical-align:top;">web2py_version</td><td style="vertical-align:top;">:</td><td><div>2.7.4-stable+timestamp.2013.10.14.15.16.29</div></td></tr></table></div></td></tr><tr><td style="font-weight:bold;vertical-align:top;">is_https</td><td style="vertical-align:top;">:</td><td><div>False</div></td></tr><tr><td style="font-weight:bold;vertical-align:top;">is_local</td><td style="vertical-align:top;">:</td><td><div>True</div></td></tr><tr><td style="font-weight:bold;vertical-align:top;">is_restful</td><td style="vertical-align:top;">:</td><td><div>False</div></td></tr><tr><td style="font-weight:bold;vertical-align:top;">now</td><td style="vertical-align:top;">:</td><td><div>datetime.datetime(2014, 1, 10, 16, 36, 50, 29000)</div></td></tr><tr><td style="font-weight:bold;vertical-align:top;">raw_args</td><td style="vertical-align:top;">:</td><td><div></div></td></tr><tr><td style="font-weight:bold;vertical-align:top;">raw_extension</td><td style="vertical-align:top;">:</td><td><div>None</div></td></tr><tr><td style="font-weight:bold;vertical-align:top;">url</td><td style="vertical-align:top;">:</td><td><div>/SEACAT_ingresos/default/admin_user_memberships</div></td></tr><tr><td style="font-weight:bold;vertical-align:top;">utcnow</td><td style="vertical-align:top;">:</td><td><div>datetime.datetime(2014, 1, 10, 19, 36, 50, 29000)</div></td></tr><tr><td style="font-weight:bold;vertical-align:top;">uuid</td><td style="vertical-align:top;">:</td><td><div>SEACAT_ingresos/10.0.0.19.2014-01-10.16-36-50.a839ee41-2abe-4d90-8a52-f549b4085cf0</div></td></tr><tr><td style="font-weight:bold;vertical-align:top;">wsgi</td><td style="vertical-align:top;">:</td><td><div>&lt;gluon.main.LazyWSGI object at 0x000000000384EF98&gt;</div></td></tr></table></div>'
tRp66
sS'frames'
p67
(lp68
(dp69
S'file'
p70
S'D:\\Usuarios\\Leo\\Mis Documentos\\Dropbox\\web2py\\gluon\\main.py'
p71
sS'dump'
p72
(dp73
S'BaseAdapter.close_all_instances'
p74
S'<function close_all_instances>'
p75
sS'global BaseAdapter'
p76
S"<class 'gluon.dal.BaseAdapter'>"
p77
ssS'lnum'
p78
I543
sS'lines'
p79
(dp80
I544
S'            except:'
p81
sI545
S'                pass'
p82
sI546
S"            e = RestrictedError('Framework', '', '', locals())"
p83
sI547
S"            ticket = e.log(request) or 'unrecoverable'"
p84
sI538
S''
sI539
S'            try:'
p85
sI540
S'                if response._custom_rollback:'
p86
sI541
S'                    response._custom_rollback()'
p87
sI542
S'                else:'
p88
sI543
S"                    BaseAdapter.close_all_instances('rollback')"
p89
ssS'call'
p90
S"(environ={'HTTP_ACCEPT': 'text/html,application/xhtml+xml,application/xml;q=0.9,image/webp,*/*;q=0.8', 'HTTP_ACCEPT_ENCODING': 'gzip,deflate,sdch', 'HTTP_ACCEPT_LANGUAGE': 'es,es-419;q=0.8,en-US;q=0.6,en;q=0.4', 'HTTP_CACHE_CONTROL': 'max-age=0', 'HTTP_CONNECTION': 'keep-alive', 'HTTP_COOKIE': 'session_id_welcome=10.0.0.19-4ca018b7-985d-404a-...in=10.0.0.19-1352923c-ddb6-4b27-936a-3c420351c593', 'HTTP_HOST': '10.0.0.19:8000', 'HTTP_REFERER': 'http://10.0.0.19:8000/SEACAT_ingresos/default/admin_user_groups', 'HTTP_USER_AGENT': 'Mozilla/5.0 (Windows NT 6.1; WOW64) AppleWebKit/...ML, like Gecko) Chrome/31.0.1650.63 Safari/537.36', 'PATH_INFO': '/SEACAT_ingresos/default/admin_user_memberships', ...}, responder=<function responder2>)"
p91
sS'func'
p92
S'wsgibase'
p93
sa(dp94
g70
S'D:\\Usuarios\\Leo\\Mis Documentos\\Dropbox\\web2py\\gluon\\dal.py'
p95
sg72
(dp96
S'action'
p97
S"'rollback'"
p98
sS'db._adapter'
p99
S'<gluon.dal.PostgreSQLAdapter object>'
p100
sS'db'
p101
S'<DAL uri="postgres:******@wspio1.pioix.edu.ar/seacat">'
p102
sS'db._adapter.close'
p103
S'<bound method PostgreSQLAdapter.close of <gluon.dal.PostgreSQLAdapter object>>'
p104
ssg78
I558
sg79
(dp105
I553
S'        """ to close cleanly databases in a multithreaded environment """'
p106
sI554
S"        dbs = getattr(THREAD_LOCAL,'db_instances',{}).items()"
p107
sI555
S'        for db_uid, db_group in dbs:'
p108
sI556
S'            for db in db_group:'
p109
sI557
S"                if hasattr(db,'_adapter'):"
p110
sI558
S'                    db._adapter.close(action)'
p111
sI559
S"        getattr(THREAD_LOCAL,'db_instances',{}).clear()"
p112
sI560
S"        getattr(THREAD_LOCAL,'db_instances_zombie',{}).clear()"
p113
sI561
S'        if callable(action):'
p114
sI562
S'            action(None)'
p115
ssg90
S"(action='rollback')"
p116
sg92
S'close_all_instances'
p117
sa(dp118
g70
S'D:\\Usuarios\\Leo\\Mis Documentos\\Dropbox\\web2py\\gluon\\dal.py'
p119
sg72
(dp120
S'action'
p121
S"'rollback'"
p122
sS'self'
p123
S'<gluon.dal.PostgreSQLAdapter object>'
p124
sS'builtingetattr'
p125
S'<built-in function getattr>'
p126
ssg78
I538
sg79
(dp127
I533
S"    def close(self,action='commit',really=True):"
p128
sI534
S'        if action:'
p129
sI535
S'            if callable(action):'
p130
sI536
S'                action(self)'
p131
sI537
S'            else:'
p132
sI538
S'                getattr(self, action)()'
p133
sI539
S'        # ## if you want pools, recycle this connection'
p134
sI540
S'        if self.pool_size:'
p135
sI541
S'            GLOBAL_LOCKER.acquire()'
p136
sI542
S'            pool = ConnectionPool.POOLS[self.uri]'
p137
ssg90
S"(self=<gluon.dal.PostgreSQLAdapter object>, action='rollback', really=True)"
p138
sg92
S'close'
p139
sa(dp140
g70
S'D:\\Usuarios\\Leo\\Mis Documentos\\Dropbox\\web2py\\gluon\\dal.py'
p141
sg72
(dp142
S'self'
p143
S'<gluon.dal.PostgreSQLAdapter object>'
p144
sS'self.connection'
p145
S'<gluon.contrib.pg8000.dbapi.ConnectionWrapper object>'
p146
sS'self.connection.rollback'
p147
S'<bound method ConnectionWrapper._fn of <gluon.contrib.pg8000.dbapi.ConnectionWrapper object>>'
p148
ssg78
I1792
sg79
(dp149
I1792
S'            return self.connection.rollback()'
p150
sI1793
S''
sI1794
S'    def close_connection(self):'
p151
sI1795
S'        if self.connection:'
p152
sI1796
S'            r = self.connection.close()'
p153
sI1787
S'        if self.connection:'
p154
sI1788
S'            return self.connection.commit()'
p155
sI1789
S''
sI1790
S'    def rollback(self):'
p156
sI1791
S'        if self.connection:'
p157
ssg90
S'(self=<gluon.dal.PostgreSQLAdapter object>)'
p158
sg92
S'rollback'
p159
sa(dp160
g70
S'D:\\Usuarios\\Leo\\Mis Documentos\\Dropbox\\web2py\\gluon\\contrib\\pg8000\\dbapi.py'
p161
sg72
(dp162
S'self'
p163
S'<gluon.contrib.pg8000.dbapi.ConnectionWrapper object>'
p164
sS'args'
p165
S'()'
p166
sS'fn'
p167
S'<function rollback>'
p168
sS'kwargs'
p169
g19
ssg78
I455
sg79
(dp170
I450
S''
sI451
S'def require_open_connection(fn):'
p171
sI452
S'    def _fn(self, *args, **kwargs):'
p172
sI453
S'        if self.conn == None:'
p173
sI454
S'            raise ConnectionClosedError()'
p174
sI455
S'        return fn(self, *args, **kwargs)'
p175
sI456
S'    return _fn'
p176
sI457
S''
sI458
S'##'
p177
sI459
S'# The class of object returned by the {@link #connect connect method}.'
p178
ssg90
S'(self=<gluon.contrib.pg8000.dbapi.ConnectionWrapper object>, *args=(), **kwargs={})'
p179
sg92
S'_fn'
p180
sa(dp181
g70
S'D:\\Usuarios\\Leo\\Mis Documentos\\Dropbox\\web2py\\gluon\\contrib\\pg8000\\dbapi.py'
p182
sg72
(dp183
S'self'
p184
S'<gluon.contrib.pg8000.dbapi.ConnectionWrapper object>'
p185
sS'self.conn.rollback'
p186
S'<bound method Connection.rollback of <gluon.contrib.pg8000.interface.Connection object>>'
p187
sS'self.conn'
p188
S'<gluon.contrib.pg8000.interface.Connection object>'
p189
ssg78
I551
sg79
(dp190
I546
S'    def rollback(self):'
p191
sI547
S'        # see bug description in commit.'
p192
sI548
S'        if self.__tpc_xid:'
p193
sI549
S'            raise ProgrammingError("Cannot do a normal rollback() inside a "'
p194
sI550
S'                                   "TPC transaction!")'
p195
sI551
S'        self.conn.rollback()'
p196
sI552
S''
sI553
S'    ##'
p197
sI554
S'    # Closes the database connection.'
p198
sI555
S'    # <p>'
p199
ssg90
S'(self=<gluon.contrib.pg8000.dbapi.ConnectionWrapper object>)'
p200
sg92
g159
sa(dp201
g70
S'D:\\Usuarios\\Leo\\Mis Documentos\\Dropbox\\web2py\\gluon\\contrib\\pg8000\\interface.py'
p202
sg72
(dp203
S'self'
p204
S'<gluon.contrib.pg8000.interface.Connection object>'
p205
sS'self._rollback'
p206
S'<gluon.contrib.pg8000.interface.PreparedStatement object>'
p207
sS'self._rollback.execute'
p208
S'<bound method PreparedStatement.execute of <gluo...ntrib.pg8000.interface.PreparedStatement object>>'
p209
ssg78
I622
sg79
(dp210
I617
S'    # <p>'
p211
sI618
S'    # Stability: Added in v1.00, stability guaranteed for v1.xx.'
p212
sI619
S'    def rollback(self):'
p213
sI620
S'        if self.is_closed:'
p214
sI621
S'            raise ConnectionClosedError()'
p215
sI622
S'        self._rollback.execute()'
p216
sI623
S'        self.in_transaction = False'
p217
sI624
S''
sI625
S'    ##'
p218
sI626
S'    # Closes an open connection.'
p219
ssg90
S'(self=<gluon.contrib.pg8000.interface.Connection object>)'
p220
sg92
g159
sa(dp221
g70
S'D:\\Usuarios\\Leo\\Mis Documentos\\Dropbox\\web2py\\gluon\\contrib\\pg8000\\interface.py'
p222
sg72
(dp223
S'self._portal_name'
p224
S"'pg8000_portal_101'"
p225
sS'self.c'
p226
S'<gluon.contrib.pg8000.protocol.Connection object>'
p227
sS'self'
p228
S'<gluon.contrib.pg8000.interface.PreparedStatement object>'
p229
sS'self.c.close_portal'
p230
S'<bound method Connection.close_portal of <gluon.contrib.pg8000.protocol.Connection object>>'
p231
ssg78
I166
sg79
(dp232
I161
S'            if not self._command_complete:'
p233
sI162
S'                # cleanup last execute'
p234
sI163
S'                self._cached_rows = []'
p235
sI164
S'                self._ongoing_row_count = 0'
p236
sI165
S'            if self._portal_name != None:'
p237
sI166
S'                self.c.close_portal(self._portal_name)'
p238
sI167
S'            self._command_complete = False'
p239
sI168
S'            self._portal_name = "pg8000_portal_%s" % self._statement_number'
p240
sI169
S'            self._row_desc, cmd = self.c.bind(self._portal_name, self._statement_name, args, self._parse_row_desc, kwargs.get("stream"))'
p241
sI170
S'            if self._row_desc:'
p242
ssg90
S'(self=<gluon.contrib.pg8000.interface.PreparedStatement object>, *args=(), **kwargs={})'
p243
sg92
S'execute'
p244
sa(dp245
g70
S'D:\\Usuarios\\Leo\\Mis Documentos\\Dropbox\\web2py\\gluon\\contrib\\pg8000\\protocol.py'
p246
sg72
(dp247
S'reader.handle_messages'
p248
S'<bound method MessageReader.handle_messages of <gluon.contrib.pg8000.protocol.MessageReader object>>'
p249
sS'reader'
p250
S'<gluon.contrib.pg8000.protocol.MessageReader object>'
p251
ssg78
I1326
sg79
(dp252
I1321
S'            self._flush()'
p253
sI1322
S''
sI1323
S'            reader = MessageReader(self)'
p254
sI1324
S'            reader.add_message(CloseComplete, lambda msg: 0)'
p255
sI1325
S'            reader.add_message(ReadyForQuery, lambda msg: 1)'
p256
sI1326
S'            reader.handle_messages()'
p257
sI1327
S'        finally:'
p258
sI1328
S'            self._sock_lock.release()'
p259
sI1329
S''
sI1330
S'    def close(self):'
p260
ssg90
S"(self=<gluon.contrib.pg8000.protocol.Connection object>, portal='pg8000_portal_101')"
p261
sg92
S'close_portal'
p262
sa(dp263
g70
S'D:\\Usuarios\\Leo\\Mis Documentos\\Dropbox\\web2py\\gluon\\contrib\\pg8000\\protocol.py'
p264
sg72
(dp265
S'msg'
p266
S'undefined'
p267
sS'self._conn._read_message'
p268
S'<bound method Connection._read_message of <gluon.contrib.pg8000.protocol.Connection object>>'
p269
sS'self'
p270
S'<gluon.contrib.pg8000.protocol.MessageReader object>'
p271
sS'self._conn'
p272
S'<gluon.contrib.pg8000.protocol.Connection object>'
p273
ssg78
I906
sg79
(dp274
I901
S'        self._retval = value'
p275
sI902
S''
sI903
S'    def handle_messages(self):'
p276
sI904
S'        exc = None'
p277
sI905
S'        while 1:'
p278
sI906
S'            msg = self._conn._read_message()'
p279
sI907
S'            msg_handled = False'
p280
sI908
S'            for (msg_class, handler, args, kwargs) in self._msgs:'
p281
sI909
S'                if isinstance(msg, msg_class):'
p282
sI910
S'                    msg_handled = True'
p283
ssg90
S'(self=<gluon.contrib.pg8000.protocol.MessageReader object>)'
p284
sg92
S'handle_messages'
p285
sa(dp286
g70
S'D:\\Usuarios\\Leo\\Mis Documentos\\Dropbox\\web2py\\gluon\\contrib\\pg8000\\protocol.py'
p287
sg72
(dp288
S'builtinbytes'
p289
S"<type 'str'>"
p290
sS'self._read_bytes'
p291
S'<bound method Connection._read_bytes of <gluon.contrib.pg8000.protocol.Connection object>>'
p292
sS'self'
p293
S'<gluon.contrib.pg8000.protocol.Connection object>'
p294
ssg78
I1033
sg79
(dp295
I1028
S'            retval.append(addt_data)'
p296
sI1029
S'        return "".join(retval)'
p297
sI1030
S''
sI1031
S'    def _read_message(self):'
p298
sI1032
S'        assert self._sock_lock.locked()'
p299
sI1033
S'        bytes = self._read_bytes(5)'
p300
sI1034
S'        message_code = bytes[0]'
p301
sI1035
S'        data_len = struct.unpack("!i", bytes[1:])[0] - 4'
p302
sI1036
S'        bytes = self._read_bytes(data_len)'
p303
sI1037
S'        assert len(bytes) == data_len'
p304
ssg90
S'(self=<gluon.contrib.pg8000.protocol.Connection object>)'
p305
sg92
S'_read_message'
p306
sa(dp307
g70
S'D:\\Usuarios\\Leo\\Mis Documentos\\Dropbox\\web2py\\gluon\\contrib\\pg8000\\protocol.py'
p308
sg72
(dp309
S'self._sock.recv'
p310
S'<built-in method recv of _socket.socket object>'
p311
sS'self._sock'
p312
S'<socket._socketobject object>'
p313
sS'self'
p314
S'<gluon.contrib.pg8000.protocol.Connection object>'
p315
sS'self._sock_buf'
p316
S"'D\\x00\\x00\\x00\\xad\\x00\\x0b\\x00\\x00\\x00\\x04\\x00\\x00\\x00\\x19\\x00\\x00\\x00\\x06Mar\\xc3\\xada\\x00\\x00\\x00\\x06Naj\\xc3\\xban\\x00\\x00\\x00\\x13mnajun@pi...a20\\x00\\x00\\x00\\x00\\x00\\x00\\x00\\x00\\x00\\x00\\x00\\x00\\x00\\x00\\x00\\x00\\x00\\x00\\x00\\x08\\x00\\x01\\x92\\x8b\\x96Ui@\\x00\\x00\\x00\\x00C\\x00\\x00\\x00\\rSELECT 1\\x00'"
p317
ssg78
I1021
sg79
(dp318
I1024
S'            addt_data = self._sock_buf[self._sock_buf_pos:rpos]'
p319
sI1025
S'            bytes_read += (rpos - self._sock_buf_pos)'
p320
sI1016
S'    def _read_bytes(self, byte_count):'
p321
sI1017
S'        retval = []'
p322
sI1018
S'        bytes_read = 0'
p323
sI1019
S'        while bytes_read < byte_count:'
p324
sI1020
S'            if self._sock_buf_pos == len(self._sock_buf):'
p325
sI1021
S'                self._sock_buf = self._sock.recv(1024)'
p326
sI1022
S'                self._sock_buf_pos = 0'
p327
sI1023
S'            rpos = min(len(self._sock_buf), self._sock_buf_pos + (byte_count - bytes_read))'
p328
ssg90
S'(self=<gluon.contrib.pg8000.protocol.Connection object>, byte_count=5)'
p329
sg92
S'_read_bytes'
p330
sasS'pyver'
p331
S'Python 2.7.3: C:\\Python27\\python.exe (prefix: C:\\Python27)'
p332
sS'session'
p333
g65
(S's\xcf\x0b\x00\x00<div><table><tr><td style="font-weight:bold;vertical-align:top;">auth</td><td style="vertical-align:top;">:</td><td><div><table><tr><td style="font-weight:bold;vertical-align:top;">expiration</td><td style="vertical-align:top;">:</td><td><div>3600</div></td></tr><tr><td style="font-weight:bold;vertical-align:top;">hmac_key</td><td style="vertical-align:top;">:</td><td><div>6d80da74-a3b2-4609-8fb3-aa2b233b5d88</div></td></tr><tr><td style="font-weight:bold;vertical-align:top;">last_visit</td><td style="vertical-align:top;">:</td><td><div>datetime.datetime(2014, 1, 10, 16, 32, 39, 667000)</div></td></tr><tr><td style="font-weight:bold;vertical-align:top;">remember</td><td style="vertical-align:top;">:</td><td><div>False</div></td></tr><tr><td style="font-weight:bold;vertical-align:top;">user</td><td style="vertical-align:top;">:</td><td><div><table><tr><td style="font-weight:bold;vertical-align:top;">email</td><td style="vertical-align:top;">:</td><td><div>colomboleandro@pioix.edu.ar</div></td></tr><tr><td style="font-weight:bold;vertical-align:top;">first_name</td><td style="vertical-align:top;">:</td><td><div>Leandro</div></td></tr><tr><td style="font-weight:bold;vertical-align:top;">id</td><td style="vertical-align:top;">:</td><td><div>1L</div></td></tr><tr><td style="font-weight:bold;vertical-align:top;">last_login</td><td style="vertical-align:top;">:</td><td><div>datetime.datetime(2014, 1, 9, 17, 42, 4)</div></td></tr><tr><td style="font-weight:bold;vertical-align:top;">last_name</td><td style="vertical-align:top;">:</td><td><div>Colombo Vi\xc3\xb1a</div></td></tr><tr><td style="font-weight:bold;vertical-align:top;">middle_name</td><td style="vertical-align:top;">:</td><td><div>Enrique</div></td></tr><tr><td style="font-weight:bold;vertical-align:top;">obs</td><td style="vertical-align:top;">:</td><td><div></div></td></tr><tr><td style="font-weight:bold;vertical-align:top;">registration_id</td><td style="vertical-align:top;">:</td><td><div></div></td></tr><tr><td style="font-weight:bold;vertical-align:top;">registration_key</td><td style="vertical-align:top;">:</td><td><div></div></td></tr><tr><td style="font-weight:bold;vertical-align:top;">reset_password_key</td><td style="vertical-align:top;">:</td><td><div></div></td></tr></table></div></td></tr><tr><td style="font-weight:bold;vertical-align:top;">user_groups</td><td style="vertical-align:top;">:</td><td><div><table><tr><td style="font-weight:bold;vertical-align:top;">1</td><td style="vertical-align:top;">:</td><td><div>root</div></td></tr></table></div></td></tr></table></div></td></tr><tr><td style="font-weight:bold;vertical-align:top;">flash</td><td style="vertical-align:top;">:</td><td><div>None</div></td></tr><tr><td style="font-weight:bold;vertical-align:top;">last_orderby</td><td style="vertical-align:top;">:</td><td><div>None</div></td></tr><tr><td style="font-weight:bold;vertical-align:top;">last_query</td><td style="vertical-align:top;">:</td><td><div>db.auth_membership.id&gt;0</div></td></tr></table></div>'
tRp334
sS'etype'
p335
S"<class 'socket.error'>"
p336
sS'date'
p337
S'Fri Jan 10 16:43:58 2014'
p338
sS'response'
p339
g65
(S's\xc89\x00\x00<div><table><tr><td style="font-weight:bold;vertical-align:top;">body</td><td style="vertical-align:top;">:</td><td><div>&lt;cStringIO.StringO object at 0x0000000004B41960&gt;</div></td></tr><tr><td style="font-weight:bold;vertical-align:top;">cookies</td><td style="vertical-align:top;">:</td><td><div><table><tr><td style="font-weight:bold;vertical-align:top;">session_id_seacat_ingresos</td><td style="vertical-align:top;">:</td><td><div>10.0.0.19-fb39e5f4-0daf-42dc-b192-77ca91017a82<table><tr><td style="font-weight:bold;vertical-align:top;">comment</td><td style="vertical-align:top;">:</td><td><div></div></td></tr><tr><td style="font-weight:bold;vertical-align:top;">domain</td><td style="vertical-align:top;">:</td><td><div></div></td></tr><tr><td style="font-weight:bold;vertical-align:top;">expires</td><td style="vertical-align:top;">:</td><td><div></div></td></tr><tr><td style="font-weight:bold;vertical-align:top;">httponly</td><td style="vertical-align:top;">:</td><td><div></div></td></tr><tr><td style="font-weight:bold;vertical-align:top;">max-age</td><td style="vertical-align:top;">:</td><td><div></div></td></tr><tr><td style="font-weight:bold;vertical-align:top;">path</td><td style="vertical-align:top;">:</td><td><div>/</div></td></tr><tr><td style="font-weight:bold;vertical-align:top;">secure</td><td style="vertical-align:top;">:</td><td><div></div></td></tr><tr><td style="font-weight:bold;vertical-align:top;">version</td><td style="vertical-align:top;">:</td><td><div></div></td></tr></table></div></td></tr></table></div></td></tr><tr><td style="font-weight:bold;vertical-align:top;">delimiters</td><td style="vertical-align:top;">:</td><td><div><table><tr><td><div>{{</div></td></tr><tr><td><div>}}</div></td></tr></table></div></td></tr><tr><td style="font-weight:bold;vertical-align:top;">files</td><td style="vertical-align:top;">:</td><td><div><table></table></div></td></tr><tr><td style="font-weight:bold;vertical-align:top;">flash</td><td style="vertical-align:top;">:</td><td><div></div></td></tr><tr><td style="font-weight:bold;vertical-align:top;">generic_patterns</td><td style="vertical-align:top;">:</td><td><div><table><tr><td><div>*</div></td></tr></table></div></td></tr><tr><td style="font-weight:bold;vertical-align:top;">google_analytics_id</td><td style="vertical-align:top;">:</td><td><div>None</div></td></tr><tr><td style="font-weight:bold;vertical-align:top;">headers</td><td style="vertical-align:top;">:</td><td><div><table><tr><td style="font-weight:bold;vertical-align:top;">X-Powered-By</td><td style="vertical-align:top;">:</td><td><div>web2py</div></td></tr></table></div></td></tr><tr><td style="font-weight:bold;vertical-align:top;">logo</td><td style="vertical-align:top;">:</td><td><div><a class="brand" data-w2p_disable_with="default" href="/SEACAT_ingresos/default/index"><img alt="Logo de SEACAT" src="/SEACAT_ingresos/static/Logo_seacat_mini.png" /></a></div></td></tr><tr><td style="font-weight:bold;vertical-align:top;">menu</td><td style="vertical-align:top;">:</td><td><div><table><tr><td><div><table><tr><td><div>P\xc3\xa1gina Principal</div></td></tr><tr><td><div>False</div></td></tr><tr><td><div>/SEACAT_ingresos/default/index</div></td></tr><tr><td><div><table></table></div></td></tr></table></div></td></tr><tr><td><div><table><tr><td><div><span class="highlighted">web2py</span></div></td></tr><tr><td><div>False</div></td></tr><tr><td><div>http://web2py.com</div></td></tr><tr><td><div><table><tr><td><div><table><tr><td><div>Mis Sitios</div></td></tr><tr><td><div>False</div></td></tr><tr><td><div>/admin/default/site</div></td></tr></table></div></td></tr><tr><td><div><table><tr><td><div>Esta Aplicaci\xc3\xb3n</div></td></tr><tr><td><div>False</div></td></tr><tr><td><div>/admin/default/design/SEACAT_ingresos</div></td></tr><tr><td><div>[(&lt;lazyT &#x27;Controller&#x27;&gt;, False, &#x27;/admin/default/edit/SEACAT_ingresos/controllers/default.py&#x27;), (&lt;lazyT &#x27;View&#x27;&gt;, False, &#x27;/admin/default/edit/SEACAT_ingresos/views/default/admin_user_memberships.html&#x27;), (&lt;lazyT &#x27;Layout&#x27;&gt;, False, &#x27;/admin/default/edit/SEACAT_ingresos/views/layout.html&#x27;), (&lt;lazyT &#x27;Stylesheet&#x27;&gt;, False, &#x27;/admin/default/edit/SEACAT_ingresos/static/css/web2py.css&#x27;), (&lt;lazyT &#x27;DB Model&#x27;&gt;, False, &#x27;/admin/default/edit/SEACAT_ingresos/models/db.py&#x27;), (&lt;lazyT &#x27;Menu Model&#x27;&gt;, False, &#x27;/admin/default/edit/SEACAT_ingresos/models/menu.py&#x27;), (&lt;lazyT &#x27;Database&#x27;&gt;, False, &#x27;/SEACAT_ingresos/appadmin/index&#x27;), (&lt;lazyT &#x27;Errors&#x27;&gt;, False, &#x27;/admin/default/errors/SEACAT_ingresos&#x27;), (&lt;lazyT &#x27;About&#x27;&gt;, False, &#x27;/admin/default/about/SEACAT_ingresos&#x27;)]</div></td></tr></table></div></td></tr><tr><td><div><table><tr><td><div>web2py.com</div></td></tr><tr><td><div>False</div></td></tr><tr><td><div>http://www.web2py.com</div></td></tr><tr><td><div>[(&lt;lazyT &#x27;Download&#x27;&gt;, False, &#x27;http://www.web2py.com/examples/default/download&#x27;), (&lt;lazyT &#x27;Support&#x27;&gt;, False, &#x27;http://www.web2py.com/examples/default/support&#x27;), (&lt;lazyT &#x27;Demo&#x27;&gt;, False, &#x27;http://web2py.com/demo_admin&#x27;), (&lt;lazyT &#x27;Quick Examples&#x27;&gt;, False, &#x27;http://web2py.com/examples/default/examples&#x27;), (&lt;lazyT &#x27;FAQ&#x27;&gt;, False, &#x27;http://web2py.com/AlterEgo&#x27;), (&lt;lazyT &#x27;Videos&#x27;&gt;, False, &#x27;http://www.web2py.com/examples/default/videos/&#x27;), (&lt;lazyT &#x27;Free Applications&#x27;&gt;, False, &#x27;http://web2py.com/appliances&#x27;), (&lt;lazyT &#x27;Plugins&#x27;&gt;, False, &#x27;http://web2py.com/plugins&#x27;), (&lt;lazyT &#x27;Layouts&#x27;&gt;, False, &#x27;http://web2py.com/layouts&#x27;), (&lt;lazyT &#x27;Recipes&#x27;&gt;, False, &#x27;http://web2pyslices.com/&#x27;), (&lt;lazyT &#x27;Semantic&#x27;&gt;, False, &#x27;http://web2py.com/semantic&#x27;)]</div></td></tr></table></div></td></tr><tr><td><div><table><tr><td><div>Documentaci\xc3\xb3n</div></td></tr><tr><td><div>False</div></td></tr><tr><td><div>http://www.web2py.com/book</div></td></tr><tr><td><div>[(&lt;lazyT &#x27;Preface&#x27;&gt;, False, &#x27;http://www.web2py.com/book/default/chapter/00&#x27;), (&lt;lazyT &#x27;Introduction&#x27;&gt;, False, &#x27;http://www.web2py.com/book/default/chapter/01&#x27;), (&lt;lazyT &#x27;Python&#x27;&gt;, False, &#x27;http://www.web2py.com/book/default/chapter/02&#x27;), (&lt;lazyT &#x27;Overview&#x27;&gt;, False, &#x27;http://www.web2py.com/book/default/chapter/03&#x27;), (&lt;lazyT &#x27;The Core&#x27;&gt;, False, &#x27;http://www.web2py.com/book/default/chapter/04&#x27;), (&lt;lazyT &#x27;The Views&#x27;&gt;, False, &#x27;http://www.web2py.com/book/default/chapter/05&#x27;), (&lt;lazyT &#x27;Database&#x27;&gt;, False, &#x27;http://www.web2py.com/book/default/chapter/06&#x27;), (&lt;lazyT &#x27;Forms and Validators&#x27;&gt;, False, &#x27;http://www.web2py.com/book/default/chapter/07&#x27;), (&lt;lazyT &#x27;Email and SMS&#x27;&gt;, False, &#x27;http://www.web2py.com/book/default/chapter/08&#x27;), (&lt;lazyT &#x27;Access Control&#x27;&gt;, False, &#x27;http://www.web2py.com/book/default/chapter/09&#x27;), (&lt;lazyT &#x27;Services&#x27;&gt;, False, &#x27;http://www.web2py.com/book/default/chapter/10&#x27;), (&lt;lazyT &#x27;Ajax Recipes&#x27;&gt;, False, &#x27;http://www.web2py.com/book/default/chapter/11&#x27;), (&lt;lazyT &#x27;Components and Plugins&#x27;&gt;, False, &#x27;http://www.web2py.com/book/default/chapter/12&#x27;), (&lt;lazyT &#x27;Deployment Recipes&#x27;&gt;, False, &#x27;http://www.web2py.com/book/default/chapter/13&#x27;), (&lt;lazyT &#x27;Other Recipes&#x27;&gt;, False, &#x27;http://www.web2py.com/book/default/chapter/14&#x27;), (&lt;lazyT &#x27;Buy this book&#x27;&gt;, False, &#x27;http://stores.lulu.com/web2py&#x27;)]</div></td></tr></table></div></td></tr><tr><td><div><table><tr><td><div>Comunidad</div></td></tr><tr><td><div>False</div></td></tr><tr><td><div>None</div></td></tr><tr><td><div>[(&lt;lazyT &#x27;Groups&#x27;&gt;, False, &#x27;http://www.web2py.com/examples/default/usergroups&#x27;), (&lt;lazyT &#x27;Twitter&#x27;&gt;, False, &#x27;http://twitter.com/web2py&#x27;), (&lt;lazyT &#x27;Live Chat&#x27;&gt;, False, &#x27;http://webchat.freenode.net/?channels=web2py&#x27;)]</div></td></tr></table></div></td></tr><tr><td><div><table><tr><td><div>Plugins</div></td></tr><tr><td><div>False</div></td></tr><tr><td><div>None</div></td></tr><tr><td><div>[(&#x27;plugin_wiki&#x27;, False, &#x27;http://web2py.com/examples/default/download&#x27;), (&lt;lazyT &#x27;Other Plugins&#x27;&gt;, False, &#x27;http://web2py.com/plugins&#x27;), (&lt;lazyT &#x27;Layout Plugins&#x27;&gt;, False, &#x27;http://web2py.com/layouts&#x27;)]</div></td></tr></table></div></td></tr></table></div></td></tr></table></div></td></tr><tr><td><div><table><tr><td><div><span class="highlighted">Men\xc3\xba de Root</span></div></td></tr><tr><td><div>False</div></td></tr><tr><td><div>None</div></td></tr><tr><td><div><table><tr><td><div><table><tr><td><div>Admin App</div></td></tr><tr><td><div>False</div></td></tr><tr><td><div>/SEACAT_ingresos/appadmin/index</div></td></tr></table></div></td></tr><tr><td><div><table><tr><td><div>Admin Users</div></td></tr><tr><td><div>False</div></td></tr><tr><td><div>/SEACAT_ingresos/default/admin_users</div></td></tr></table></div></td></tr><tr><td><div><table><tr><td><div>Admin Groups</div></td></tr><tr><td><div>False</div></td></tr><tr><td><div>/SEACAT_ingresos/default/admin_user_groups</div></td></tr></table></div></td></tr><tr><td><div><table><tr><td><div>Admin Memberships</div></td></tr><tr><td><div>False</div></td></tr><tr><td><div>/SEACAT_ingresos/default/admin_user_memberships</div></td></tr></table></div></td></tr><tr><td><div><table><tr><td><div>Admin Permissions</div></td></tr><tr><td><div>False</div></td></tr><tr><td><div>/SEACAT_ingresos/default/admin_user_permissions</div></td></tr></table></div></td></tr></table></div></td></tr></table></div></td></tr><tr><td><div><table><tr><td><div><span>Nuevo</span></div></td></tr><tr><td><div>False</div></td></tr><tr><td><div>None</div></td></tr><tr><td><div><table><tr><td><div><table><tr><td><div>Usuario</div></td></tr><tr><td><div>False</div></td></tr><tr><td><div>/SEACAT_ingresos/default/new_user</div></td></tr></table></div></td></tr></table></div></td></tr></table></div></td></tr></table></div></td></tr><tr><td style="font-weight:bold;vertical-align:top;">meta</td><td style="vertical-align:top;">:</td><td><div><table><tr><td style="font-weight:bold;vertical-align:top;">author</td><td style="vertical-align:top;">:</td><td><div>Leandro E. Colombo Vi\xc3\xb1a &lt;colomboleandro@pioix.edu.ar&gt;</div></td></tr><tr><td style="font-weight:bold;vertical-align:top;">description</td><td style="vertical-align:top;">:</td><td><div>Sistema de Inscripciones para el Colegio P\xc3\xado IX</div></td></tr><tr><td style="font-weight:bold;vertical-align:top;">generator</td><td style="vertical-align:top;">:</td><td><div>Web2py Web Framework</div></td></tr><tr><td style="font-weight:bold;vertical-align:top;">keywords</td><td style="vertical-align:top;">:</td><td><div>Inscripciones, P\xc3\xado IX, Ingresantes, SEACAT</div></td></tr></table></div></td></tr><tr><td style="font-weight:bold;vertical-align:top;">models_to_run</td><td style="vertical-align:top;">:</td><td><div><table><tr><td><div>^\\w+\\.py$</div></td></tr><tr><td><div>^default/\\w+\\.py$</div></td></tr><tr><td><div>^default/admin_user_memberships/\\w+\\.py$</div></td></tr></table></div></td></tr><tr><td style="font-weight:bold;vertical-align:top;">postprocessing</td><td style="vertical-align:top;">:</td><td><div><table></table></div></td></tr><tr><td style="font-weight:bold;vertical-align:top;">session_client</td><td style="vertical-align:top;">:</td><td><div>10.0.0.19</div></td></tr><tr><td style="font-weight:bold;vertical-align:top;">session_cookie_compression_level</td><td style="vertical-align:top;">:</td><td><div>None</div></td></tr><tr><td style="font-weight:bold;vertical-align:top;">session_cookie_expires</td><td style="vertical-align:top;">:</td><td><div>None</div></td></tr><tr><td style="font-weight:bold;vertical-align:top;">session_cookie_key</td><td style="vertical-align:top;">:</td><td><div>None</div></td></tr><tr><td style="font-weight:bold;vertical-align:top;">session_data_name</td><td style="vertical-align:top;">:</td><td><div>session_data_seacat_ingresos</div></td></tr><tr><td style="font-weight:bold;vertical-align:top;">session_file</td><td style="vertical-align:top;">:</td><td><div>&lt;open file &#x27;D:\\Usuarios\\Leo\\Mis Documentos\\Dropbox\\web2py\\applications\\SEACAT_ingresos\\sessions\\10.0.0.19-fb39e5f4-0daf-42dc-b192-77ca91017a82&#x27;, mode &#x27;rb+&#x27; at 0x0000000008F43F60&gt;</div></td></tr><tr><td style="font-weight:bold;vertical-align:top;">session_filename</td><td style="vertical-align:top;">:</td><td><div>D:\\Usuarios\\Leo\\Mis Documentos\\Dropbox\\web2py\\applications\\SEACAT_ingresos\\sessions\\10.0.0.19-fb39e5f4-0daf-42dc-b192-77ca91017a82</div></td></tr><tr><td style="font-weight:bold;vertical-align:top;">session_hash</td><td style="vertical-align:top;">:</td><td><div>3631a8def4e51e22596584692f7104b6</div></td></tr><tr><td style="font-weight:bold;vertical-align:top;">session_id</td><td style="vertical-align:top;">:</td><td><div>10.0.0.19-fb39e5f4-0daf-42dc-b192-77ca91017a82</div></td></tr><tr><td style="font-weight:bold;vertical-align:top;">session_id_name</td><td style="vertical-align:top;">:</td><td><div>session_id_seacat_ingresos</div></td></tr><tr><td style="font-weight:bold;vertical-align:top;">session_locked</td><td style="vertical-align:top;">:</td><td><div>True</div></td></tr><tr><td style="font-weight:bold;vertical-align:top;">session_masterapp</td><td style="vertical-align:top;">:</td><td><div>SEACAT_ingresos</div></td></tr><tr><td style="font-weight:bold;vertical-align:top;">session_new</td><td style="vertical-align:top;">:</td><td><div>False</div></td></tr><tr><td style="font-weight:bold;vertical-align:top;">session_storage_type</td><td style="vertical-align:top;">:</td><td><div>file</div></td></tr><tr><td style="font-weight:bold;vertical-align:top;">status</td><td style="vertical-align:top;">:</td><td><div>200</div></td></tr><tr><td style="font-weight:bold;vertical-align:top;">subtitle</td><td style="vertical-align:top;">:</td><td><div>v.0.0.1b</div></td></tr><tr><td style="font-weight:bold;vertical-align:top;">title</td><td style="vertical-align:top;">:</td><td><div>SEACAT</div></td></tr><tr><td style="font-weight:bold;vertical-align:top;">view</td><td style="vertical-align:top;">:</td><td><div>default/admin_user_memberships.html</div></td></tr></table></div>'
tRp340
sS'locals'
p341
(dp342
S'byte_count'
p343
S'5'
sS'self'
p344
S'<gluon.contrib.pg8000.protocol.Connection object>'
p345
sS'retval'
p346
S'[]'
p347
sS'bytes_read'
p348
S'0'
sssS'traceback'
p349
S'Traceback (most recent call last):\n  File "D:\\Usuarios\\Leo\\Mis Documentos\\Dropbox\\web2py\\gluon\\main.py", line 543, in wsgibase\n    BaseAdapter.close_all_instances(\'rollback\')\n  File "D:\\Usuarios\\Leo\\Mis Documentos\\Dropbox\\web2py\\gluon\\dal.py", line 558, in close_all_instances\n    db._adapter.close(action)\n  File "D:\\Usuarios\\Leo\\Mis Documentos\\Dropbox\\web2py\\gluon\\dal.py", line 538, in close\n    getattr(self, action)()\n  File "D:\\Usuarios\\Leo\\Mis Documentos\\Dropbox\\web2py\\gluon\\dal.py", line 1792, in rollback\n    return self.connection.rollback()\n  File "D:\\Usuarios\\Leo\\Mis Documentos\\Dropbox\\web2py\\gluon\\contrib\\pg8000\\dbapi.py", line 455, in _fn\n    return fn(self, *args, **kwargs)\n  File "D:\\Usuarios\\Leo\\Mis Documentos\\Dropbox\\web2py\\gluon\\contrib\\pg8000\\dbapi.py", line 551, in rollback\n    self.conn.rollback()\n  File "D:\\Usuarios\\Leo\\Mis Documentos\\Dropbox\\web2py\\gluon\\contrib\\pg8000\\interface.py", line 622, in rollback\n    self._rollback.execute()\n  File "D:\\Usuarios\\Leo\\Mis Documentos\\Dropbox\\web2py\\gluon\\contrib\\pg8000\\interface.py", line 166, in execute\n    self.c.close_portal(self._portal_name)\n  File "D:\\Usuarios\\Leo\\Mis Documentos\\Dropbox\\web2py\\gluon\\contrib\\pg8000\\protocol.py", line 1326, in close_portal\n    reader.handle_messages()\n  File "D:\\Usuarios\\Leo\\Mis Documentos\\Dropbox\\web2py\\gluon\\contrib\\pg8000\\protocol.py", line 906, in handle_messages\n    msg = self._conn._read_message()\n  File "D:\\Usuarios\\Leo\\Mis Documentos\\Dropbox\\web2py\\gluon\\contrib\\pg8000\\protocol.py", line 1033, in _read_message\n    bytes = self._read_bytes(5)\n  File "D:\\Usuarios\\Leo\\Mis Documentos\\Dropbox\\web2py\\gluon\\contrib\\pg8000\\protocol.py", line 1021, in _read_bytes\n    self._sock_buf = self._sock.recv(1024)\nerror: [Errno 10054] Se ha forzado la interrupci\xf3n de una conexi\xf3n existente por el host remoto\n'
p350
s.