(dp1
S'output'
p2
S"<type 'exceptions.SyntaxError'> Object exists and cannot be redefined: id"
p3
sS'layer'
p4
S'D:\\Usuarios\\Leo\\Mis Documentos\\Dropbox\\web2py\\applications\\SEACAT_ingresos\\views\\default/info.html'
p5
sS'code'
p6
S'response.write(\'<!--[if HTML5]><![endif]-->\\n<!DOCTYPE html>\\n<!-- paulirish.com/2008/conditional-stylesheets-vs-css-hacks-answer-neither/ -->\\n<!--[if lt IE 7]><html class="ie ie6 ie-lte9 ie-lte8 ie-lte7 no-js" lang="\', escape=False)\nresponse.write(T.accepted_language or \'en\')\nresponse.write(\'"> <![endif]-->\\n<!--[if IE 7]><html class="ie ie7 ie-lte9 ie-lte8 ie-lte7 no-js" lang="\', escape=False)\nresponse.write(T.accepted_language or \'en\')\nresponse.write(\'"> <![endif]-->\\n<!--[if IE 8]><html class="ie ie8 ie-lte9 ie-lte8 no-js" lang="\', escape=False)\nresponse.write(T.accepted_language or \'en\')\nresponse.write(\'"> <![endif]-->\\n<!--[if IE 9]><html class="ie9 ie-lte9 no-js" lang="\', escape=False)\nresponse.write(T.accepted_language or \'en\')\nresponse.write(\'"> <![endif]-->\\n<!--[if (gt IE 9)|!(IE)]><!--> <html class="no-js" lang="\', escape=False)\nresponse.write(T.accepted_language or \'en\')\nresponse.write(\'"> <!--<![endif]-->\\n<head>\\n<title>\', escape=False)\nresponse.write(response.title or request.application)\nresponse.write(\'</title>\\n  <!--[if !HTML5]>\\n      <meta http-equiv="X-UA-Compatible" content="IE=edge\', escape=False)\nresponse.write(not request.is_local and \',chrome=1\' or \'\')\nresponse.write(\'">\\n  <![endif]-->\\n  <!-- www.phpied.com/conditional-comments-block-downloads/ -->\\n  <!-- Always force latest IE rendering engine\\n       (even in intranet) & Chrome Frame\\n       Remove this if you use the .htaccess -->\\n\\t   \\n  <meta charset="utf-8" />\\n\\n  <!-- http://dev.w3.org/html5/markup/meta.name.html -->\\n  <meta name="application-name" content="\', escape=False)\nresponse.write(request.application)\nresponse.write(\'" />\\n\\n  <!-- Speaking of Google, don\\\'t forget to set your site up:\\n       http://google.com/webmasters -->\\n  <meta name="google-site-verification" content="" />\\n\\n  <!--  Mobile Viewport Fix\\n        j.mp/mobileviewport & davidbcalhoun.com/2010/viewport-metatag\\n        device-width: Occupy full width of the screen in its current orientation\\n        initial-scale = 1.0 retains dimensions instead of zooming out if page height > device height\\n        user-scalable = yes allows the user to zoom in -->\\n  <meta name="viewport" content="width=device-width, initial-scale=1.0" />\\n\\n  <link rel="shortcut icon" href="\', escape=False)\nresponse.write(URL(\'static\',\'images/favicon.ico\'))\nresponse.write(\'" type="image/x-icon">\\n  <link rel="apple-touch-icon" href="\', escape=False)\nresponse.write(URL(\'static\',\'images/favicon.png\'))\nresponse.write(\'">\\n\\n  <!-- All JavaScript at the bottom, except for Modernizr which enables\\n       HTML5 elements & feature detects -->\\n  <script src="\', escape=False)\nresponse.write(URL(\'static\',\'js/modernizr.custom.js\'))\nresponse.write(\'"></script>\\n\\n  <!-- include stylesheets -->\\n  \', escape=False)\nresponse.files.append(URL(\'static\',\'css/web2py.css\'))\nresponse.files.append(URL(\'static\',\'css/bootstrap.min.css\'))\nresponse.files.append(URL(\'static\',\'css/bootstrap-responsive.min.css\'))\nresponse.files.append(URL(\'static\',\'css/web2py_bootstrap.css\'))\nresponse.write(\'\\n\\n  \', escape=False)\nresponse.write(\'<script type="text/javascript"><!--\\n    // These variables are used by the web2py_ajax_init function in web2py_ajax.js (which is loaded below).\\n    var w2p_ajax_confirm_message = "\', escape=False)\nresponse.write(T(\'Are you sure you want to delete this object?\'))\nresponse.write(\'";\\n    var w2p_ajax_date_format = "\', escape=False)\nresponse.write(T(\'%Y-%m-%d\'))\nresponse.write(\'";\\n    var w2p_ajax_datetime_format = "\', escape=False)\nresponse.write(T(\'%Y-%m-%d %H:%M:%S\'))\nresponse.write(\'";\\n    var ajax_error_500 = \\\'\', escape=False)\nresponse.write(XML(T(\'An error occured, please %s the page\') % A(T(\'reload\'), _href=URL(args=request.args, vars=request.get_vars))))\nresponse.write("\'\\n    //--></script>\\n", escape=False)\nresponse.files.insert(0,URL(\'static\',\'js/jquery.js\'))\nresponse.files.insert(1,URL(\'static\',\'css/calendar.css\'))\nresponse.files.insert(2,URL(\'static\',\'js/calendar.js\'))\nresponse.files.insert(3,URL(\'static\',\'js/web2py.js\'))\nresponse.include_meta()\nresponse.include_files()\nresponse.write(\'\\n\', escape=False)\nresponse.write(\'\\n\\n  \', escape=False)\n# using sidebars need to know what sidebar you want to use\nleft_sidebar_enabled = globals().get(\'left_sidebar_enabled\',False)\nright_sidebar_enabled = globals().get(\'right_sidebar_enabled\',False)\nmiddle_columns = {0:\'span12\',1:\'span9\',2:\'span6\'}[\n(left_sidebar_enabled and 1 or 0)+(right_sidebar_enabled and 1 or 0)]\nresponse.write(\'\\n\\n  <!-- uncomment here to load jquery-ui\\n       <link rel="stylesheet" href="http://ajax.googleapis.com/ajax/libs/jqueryui/1.8.16/themes/base/jquery-ui.css" type="text/css" media="all" />\\n       <script src="http://ajax.googleapis.com/ajax/libs/jqueryui/1.8.16/jquery-ui.min.js" type="text/javascript"></script>\\n       uncomment to load jquery-ui //-->\\n  <noscript><link href="\', escape=False)\nresponse.write(URL(\'static\', \'css/web2py_bootstrap_nojs.css\'))\nresponse.write(\'" rel="stylesheet" type="text/css" /></noscript>\\n  \', escape=False)\nresponse.write(\'\\n</head>\\n\\n<body>\\n  <!-- Navbar ================================================== -->\\n    \', escape=False)\nif auth.is_logged_in():\n    response.write(\'\\n  <div class="navbar navbar-inverse navbar-fixed-top">\\n    <div class="flash">\', escape=False)\n    response.write(response.flash or \'\')\n    response.write(\'</div>\\n    <div class="navbar-inner">\\n      <div class="container">\\n        <!-- the next tag is necessary for bootstrap menus, do not remove -->\\n        <button type="button" class="btn btn-navbar" data-toggle="collapse" data-target=".nav-collapse">\\n          <span class="icon-bar"></span>\\n          <span class="icon-bar"></span>\\n          <span class="icon-bar"></span>\\n        </button>\\n\\t\', escape=False)\n    response.write(response.logo or \'\')\n    response.write(\'\\n        <ul id="navbar" class="nav pull-right">\', escape=False)\n    response.write(\'auth\' in globals() and auth.navbar(mode="dropdown") or \'\')\n    response.write(\'</ul>\\n        <div class="nav-collapse">\\n          \', escape=False)\n    is_mobile=request.user_agent().is_mobile\n    response.write(\'\\n          \', escape=False)\n    if response.menu:\n        response.write(\'\\n          \', escape=False)\n        response.write(MENU(response.menu, _class=\'mobile-menu nav\' if is_mobile else \'nav\',mobile=is_mobile,li_class=\'dropdown\',ul_class=\'dropdown-menu\'))\n        response.write(\'\\n          \', escape=False)\n        pass\n    response.write(\'\\n        </div><!--/.nav-collapse -->\\n      </div>\\n    </div>\\n  </div><!--/top navbar -->\\n    \', escape=False)\n    pass\nresponse.write(\'\\n  <div class="container">\\n   \\n      <!-- Masthead ================================================== -->\\n      <!-- Para que no aparezca ese t\\xc3\\xadtulo FEO\\n    <header class="mastheader row" id="header">\\n      \', escape=False)\nif response.title:\n    response.write(\'\\n        <div class="span12">\\n            <div class="page-header">\\n                <h1>\\n                    \', escape=False)\n    response.write(response.title)\n    response.write(\'\\n                    <small>\', escape=False)\n    response.write(response.subtitle or \'\')\n    response.write(\'</small>\\n                </h1>\\n            </div>\\n        </div>\\n\\t\', escape=False)\n    pass\nresponse.write(\'\\n    </header>\\n    -->\\n      \\n    <section id="main" class="main row">\\n        \', escape=False)\nif left_sidebar_enabled:\n    response.write(\'\\n        <div class="span3 left-sidebar">\\n            \', escape=False)\n    response.write(\'\\n            <h3>Left Sidebar</h3>\\n            <p></p>\\n            \', escape=False)\n    response.write(\'\\n        </div>\\n        \', escape=False)\n    pass\nresponse.write(\'\\n\\n        <div class="\', escape=False)\nresponse.write(middle_columns)\nresponse.write(\'">\\n            \', escape=False)\nresponse.write(\'\\n            \', escape=False)\nresponse.write(\'\\r\\n<p>\\r\\n    \', escape=False)\nresponse.write(A(IMG(_src=URL(\'static\',\'LogoP\xc3\xadoIX-Nuevo.png\'), _alt="<img:Logo P\xc3\xado IX>"), _href=URL(\'default\',\'index\')))\nresponse.write(\'\\r\\n<p>\\r\\n<h1>Informaci\\xc3\\xb3n</h1>\\r\\n\\r\\n<!-- \', escape=False)\nresponse.write(BEAUTIFY(response._vars))\nresponse.write(\' -->\\r\\n<p>\\r\\nPara obtener m\\xc3\\xa1s informaci\\xc3\\xb3n ten\\xc3\\xa9s que pasar por el Colegio!<br/>\\r\\n    \', escape=False)\ndb.image.id = 1\nresponse.write(\'\\r\\nTe esperamos en Yapey\\xc3\\xba 197, Ciudad Aut\\xc3\\xb3noma de Buenos Aires de 7:30 a 13:00hs.<br/>\\r\\n<br/>\\r\\nLas inscripciones para el 2015 finalizan el 20 de Septiembre de 2014.\\r\\n</p>\\r\\n\', escape=False)\nresponse.write(A(T("Go Back"), _href=URL(\'index\'), _class=\'btn\', _style=\'margin-top: 1em;\'))\nresponse.write(\'\\r\\n\', escape=False)\nresponse.write(\'\\n            \', escape=False)\nresponse.write(\'\\n        </div>\\n\\n        \', escape=False)\nif right_sidebar_enabled:\n    response.write(\'\\n        <div class="span3">\\n            \', escape=False)\n    response.write(\'\\n            <h3>Right Sidebar</h3>\\n            <p></p>\\n            \', escape=False)\n    response.write(\'\\n        </div>\\n        \', escape=False)\n    pass\nresponse.write(\'\\n    </section><!--/main-->\\n\\n    <!-- Footer ================================================== -->\\n    <div class="row">\\n        <footer class="footer span12" id="footer">\\n            <div class="footer-content">\\n                \', escape=False)\nresponse.write(\' <!-- this is default footer -->\\n                <div class="copyright pull-left">\', escape=False)\nresponse.write(T(\'Copyright\'))\nresponse.write(\' &#169; \', escape=False)\nresponse.write(request.now.year)\nresponse.write(\'</div>\\n                <div id="poweredBy" class="pull-right">\\n                    \', escape=False)\nresponse.write(T(\'Powered by\'))\nresponse.write(\'\\n                    <a href="http://www.web2py.com/">web2py</a>\\n                </div>\\n                \', escape=False)\nresponse.write(\'\\n            </div>\\n        </footer>\\n    </div>\\n\\n  </div> <!-- /container -->\\n\\n  <!-- The javascript =============================================\\n       (Placed at the end of the document so the pages load faster) -->\\n  <script src="\', escape=False)\nresponse.write(URL(\'static\',\'js/bootstrap.min.js\'))\nresponse.write(\'"></script>\\n  <script src="\', escape=False)\nresponse.write(URL(\'static\',\'js/web2py_bootstrap.js\'))\nresponse.write(\'"></script>\\n  <!--[if lt IE 7 ]>\\n      <script src="\', escape=False)\nresponse.write(URL(\'static\',\'js/dd_belatedpng.js\'))\nresponse.write(\'"></script>\\n      <script> DD_belatedPNG.fix(\\\'img, .png_bg\\\'); //fix any <img> or .png_bg background-images </script>\\n      <![endif]-->\\n  \\n  \', escape=False)\nif response.google_analytics_id:\n    response.write(\'\\n  <script src="\', escape=False)\n    response.write(URL(\'static\',\'js/analytics.min.js\'))\n    response.write(\'"></script>\\n  <script type="text/javascript">\\n  analytics.initialize({\\n    \\\'Google Analytics\\\':{trackingId:\\\'\', escape=False)\n    response.write(response.google_analytics_id)\n    response.write("\'} \\n  });</script>\\n  ", escape=False)\n    pass\nresponse.write(\'\\n  <script src="\', escape=False)\nresponse.write(URL(\'static\',\'js/share.js\',vars=dict(static=URL(\'static\',\'images\'))))\nresponse.write(\'"></script>\\n</body>\\n</html>\\n\', escape=False)'
p7
sS'snapshot'
p8
(dp9
S'exception'
p10
(dp11
S'__getslice__'
p12
S"<method-wrapper '__getslice__' of exceptions.SyntaxError object>"
p13
sS'text'
p14
S'None'
p15
sS'__str__'
p16
S"<method-wrapper '__str__' of exceptions.SyntaxError object>"
p17
sS'__reduce__'
p18
S'<built-in method __reduce__ of exceptions.SyntaxError object>'
p19
sS'__dict__'
p20
S'{}'
p21
sS'__sizeof__'
p22
S'<built-in method __sizeof__ of exceptions.SyntaxError object>'
p23
sS'__init__'
p24
S"<method-wrapper '__init__' of exceptions.SyntaxError object>"
p25
sS'__setattr__'
p26
S"<method-wrapper '__setattr__' of exceptions.SyntaxError object>"
p27
sS'__reduce_ex__'
p28
S'<built-in method __reduce_ex__ of exceptions.SyntaxError object>'
p29
sS'__new__'
p30
S'<built-in method __new__ of type object>'
p31
sS'__format__'
p32
S'<built-in method __format__ of exceptions.SyntaxError object>'
p33
sS'__class__'
p34
S"<type 'exceptions.SyntaxError'>"
p35
sS'filename'
p36
S'None'
p37
sS'lineno'
p38
S'None'
p39
sS'msg'
p40
S"'Object exists and cannot be redefined: id'"
p41
sS'__doc__'
p42
S"'Invalid syntax.'"
p43
sS'__getitem__'
p44
S"<method-wrapper '__getitem__' of exceptions.SyntaxError object>"
p45
sS'__setstate__'
p46
S'<built-in method __setstate__ of exceptions.SyntaxError object>'
p47
sS'__getattribute__'
p48
S"<method-wrapper '__getattribute__' of exceptions.SyntaxError object>"
p49
sS'print_file_and_line'
p50
S'None'
p51
sS'args'
p52
S"('Object exists and cannot be redefined: id',)"
p53
sS'__subclasshook__'
p54
S'<built-in method __subclasshook__ of type object>'
p55
sS'offset'
p56
S'None'
p57
sS'__unicode__'
p58
S'<built-in method __unicode__ of exceptions.SyntaxError object>'
p59
sS'__delattr__'
p60
S"<method-wrapper '__delattr__' of exceptions.SyntaxError object>"
p61
sS'__repr__'
p62
S"<method-wrapper '__repr__' of exceptions.SyntaxError object>"
p63
sS'__hash__'
p64
S"<method-wrapper '__hash__' of exceptions.SyntaxError object>"
p65
ssS'evalue'
p66
S'Object exists and cannot be redefined: id'
p67
sS'request'
p68
cgluon.html
XML_unpickle
p69
(S'sra\x00\x00<div><table><tr><td style="font-weight:bold;vertical-align:top;">ajax</td><td style="vertical-align:top;">:</td><td><div>False</div></td></tr><tr><td style="font-weight:bold;vertical-align:top;">application</td><td style="vertical-align:top;">:</td><td><div>SEACAT_ingresos</div></td></tr><tr><td style="font-weight:bold;vertical-align:top;">args</td><td style="vertical-align:top;">:</td><td><div><table></table></div></td></tr><tr><td style="font-weight:bold;vertical-align:top;">cid</td><td style="vertical-align:top;">:</td><td><div>None</div></td></tr><tr><td style="font-weight:bold;vertical-align:top;">client</td><td style="vertical-align:top;">:</td><td><div>10.0.0.19</div></td></tr><tr><td style="font-weight:bold;vertical-align:top;">controller</td><td style="vertical-align:top;">:</td><td><div>default</div></td></tr><tr><td style="font-weight:bold;vertical-align:top;">cookies</td><td style="vertical-align:top;">:</td><td><div><table><tr><td style="font-weight:bold;vertical-align:top;">session_id_admin</td><td style="vertical-align:top;">:</td><td><div>10.0.0.19-1352923c-ddb6-4b27-936a-3c420351c593<table><tr><td style="font-weight:bold;vertical-align:top;">comment</td><td style="vertical-align:top;">:</td><td><div></div></td></tr><tr><td style="font-weight:bold;vertical-align:top;">domain</td><td style="vertical-align:top;">:</td><td><div></div></td></tr><tr><td style="font-weight:bold;vertical-align:top;">expires</td><td style="vertical-align:top;">:</td><td><div></div></td></tr><tr><td style="font-weight:bold;vertical-align:top;">httponly</td><td style="vertical-align:top;">:</td><td><div></div></td></tr><tr><td style="font-weight:bold;vertical-align:top;">max-age</td><td style="vertical-align:top;">:</td><td><div></div></td></tr><tr><td style="font-weight:bold;vertical-align:top;">path</td><td style="vertical-align:top;">:</td><td><div></div></td></tr><tr><td style="font-weight:bold;vertical-align:top;">secure</td><td style="vertical-align:top;">:</td><td><div></div></td></tr><tr><td style="font-weight:bold;vertical-align:top;">version</td><td style="vertical-align:top;">:</td><td><div></div></td></tr></table></div></td></tr><tr><td style="font-weight:bold;vertical-align:top;">session_id_seacat_ingresos</td><td style="vertical-align:top;">:</td><td><div>10.0.0.19-caec7bb4-8743-4897-8918-097041e90beb<table><tr><td style="font-weight:bold;vertical-align:top;">comment</td><td style="vertical-align:top;">:</td><td><div></div></td></tr><tr><td style="font-weight:bold;vertical-align:top;">domain</td><td style="vertical-align:top;">:</td><td><div></div></td></tr><tr><td style="font-weight:bold;vertical-align:top;">expires</td><td style="vertical-align:top;">:</td><td><div></div></td></tr><tr><td style="font-weight:bold;vertical-align:top;">httponly</td><td style="vertical-align:top;">:</td><td><div></div></td></tr><tr><td style="font-weight:bold;vertical-align:top;">max-age</td><td style="vertical-align:top;">:</td><td><div></div></td></tr><tr><td style="font-weight:bold;vertical-align:top;">path</td><td style="vertical-align:top;">:</td><td><div></div></td></tr><tr><td style="font-weight:bold;vertical-align:top;">secure</td><td style="vertical-align:top;">:</td><td><div></div></td></tr><tr><td style="font-weight:bold;vertical-align:top;">version</td><td style="vertical-align:top;">:</td><td><div></div></td></tr></table></div></td></tr><tr><td style="font-weight:bold;vertical-align:top;">session_id_welcome</td><td style="vertical-align:top;">:</td><td><div>10.0.0.19-bf84d399-ae6b-4f38-ba31-bad9b4c95dbe<table><tr><td style="font-weight:bold;vertical-align:top;">comment</td><td style="vertical-align:top;">:</td><td><div></div></td></tr><tr><td style="font-weight:bold;vertical-align:top;">domain</td><td style="vertical-align:top;">:</td><td><div></div></td></tr><tr><td style="font-weight:bold;vertical-align:top;">expires</td><td style="vertical-align:top;">:</td><td><div></div></td></tr><tr><td style="font-weight:bold;vertical-align:top;">httponly</td><td style="vertical-align:top;">:</td><td><div></div></td></tr><tr><td style="font-weight:bold;vertical-align:top;">max-age</td><td style="vertical-align:top;">:</td><td><div></div></td></tr><tr><td style="font-weight:bold;vertical-align:top;">path</td><td style="vertical-align:top;">:</td><td><div></div></td></tr><tr><td style="font-weight:bold;vertical-align:top;">secure</td><td style="vertical-align:top;">:</td><td><div></div></td></tr><tr><td style="font-weight:bold;vertical-align:top;">version</td><td style="vertical-align:top;">:</td><td><div></div></td></tr></table></div></td></tr></table></div></td></tr><tr><td style="font-weight:bold;vertical-align:top;">env</td><td style="vertical-align:top;">:</td><td><div><table><tr><td style="font-weight:bold;vertical-align:top;">HTTP_ACCEPT</td><td style="vertical-align:top;">:</td><td><div>text/html,application/xhtml+xml,application/xml;q=0.9,image/webp,*/*;q=0.8</div></td></tr><tr><td style="font-weight:bold;vertical-align:top;">HTTP_ACCEPT_ENCODING</td><td style="vertical-align:top;">:</td><td><div>gzip,deflate,sdch</div></td></tr><tr><td style="font-weight:bold;vertical-align:top;">HTTP_ACCEPT_LANGUAGE</td><td style="vertical-align:top;">:</td><td><div>es,es-419;q=0.8,en-US;q=0.6,en;q=0.4</div></td></tr><tr><td style="font-weight:bold;vertical-align:top;">HTTP_CONNECTION</td><td style="vertical-align:top;">:</td><td><div>keep-alive</div></td></tr><tr><td style="font-weight:bold;vertical-align:top;">HTTP_COOKIE</td><td style="vertical-align:top;">:</td><td><div>session_id_welcome=10.0.0.19-bf84d399-ae6b-4f38-ba31-bad9b4c95dbe; session_id_seacat_ingresos=10.0.0.19-caec7bb4-8743-4897-8918-097041e90beb; session_id_admin=10.0.0.19-1352923c-ddb6-4b27-936a-3c420351c593</div></td></tr><tr><td style="font-weight:bold;vertical-align:top;">HTTP_HOST</td><td style="vertical-align:top;">:</td><td><div>10.0.0.19:8000</div></td></tr><tr><td style="font-weight:bold;vertical-align:top;">HTTP_REFERER</td><td style="vertical-align:top;">:</td><td><div>http://10.0.0.19:8000/admin/default/edit/SEACAT_ingresos/views/default/info.html?id=views__default__info__html</div></td></tr><tr><td style="font-weight:bold;vertical-align:top;">HTTP_USER_AGENT</td><td style="vertical-align:top;">:</td><td><div>Mozilla/5.0 (Windows NT 6.1; WOW64) AppleWebKit/537.36 (KHTML, like Gecko) Chrome/31.0.1650.63 Safari/537.36</div></td></tr><tr><td style="font-weight:bold;vertical-align:top;">PATH_INFO</td><td style="vertical-align:top;">:</td><td><div>/SEACAT_ingresos/default/info</div></td></tr><tr><td style="font-weight:bold;vertical-align:top;">QUERY_STRING</td><td style="vertical-align:top;">:</td><td><div></div></td></tr><tr><td style="font-weight:bold;vertical-align:top;">REMOTE_ADDR</td><td style="vertical-align:top;">:</td><td><div>10.0.0.19</div></td></tr><tr><td style="font-weight:bold;vertical-align:top;">REMOTE_PORT</td><td style="vertical-align:top;">:</td><td><div>53672</div></td></tr><tr><td style="font-weight:bold;vertical-align:top;">REQUEST_METHOD</td><td style="vertical-align:top;">:</td><td><div>GET</div></td></tr><tr><td style="font-weight:bold;vertical-align:top;">SCRIPT_NAME</td><td style="vertical-align:top;">:</td><td><div></div></td></tr><tr><td style="font-weight:bold;vertical-align:top;">SERVER_NAME</td><td style="vertical-align:top;">:</td><td><div>Larrea-W7</div></td></tr><tr><td style="font-weight:bold;vertical-align:top;">SERVER_PORT</td><td style="vertical-align:top;">:</td><td><div>8000</div></td></tr><tr><td style="font-weight:bold;vertical-align:top;">SERVER_PROTOCOL</td><td style="vertical-align:top;">:</td><td><div>HTTP/1.1</div></td></tr><tr><td style="font-weight:bold;vertical-align:top;">SERVER_SOFTWARE</td><td style="vertical-align:top;">:</td><td><div>Rocket 1.2.6</div></td></tr><tr><td style="font-weight:bold;vertical-align:top;">app_folders</td><td style="vertical-align:top;">:</td><td><div>set([&#x27;D:\\\\Usuarios\\\\Leo\\\\Mis Documentos\\\\Dropbox\\\\web2py\\\\applications\\\\welcome\\\\&#x27;, &#x27;D:\\\\Usuarios\\\\Leo\\\\Mis Documentos\\\\Dropbox\\\\web2py\\\\applications\\\\admin\\\\&#x27;, &#x27;D:\\\\Usuarios\\\\Leo\\\\Mis Documentos\\\\Dropbox\\\\web2py\\\\applications\\\\SEACAT_ingresos\\\\&#x27;])</div></td></tr><tr><td style="font-weight:bold;vertical-align:top;">applications_parent</td><td style="vertical-align:top;">:</td><td><div>D:\\Usuarios\\Leo\\Mis Documentos\\Dropbox\\web2py</div></td></tr><tr><td style="font-weight:bold;vertical-align:top;">cmd_args</td><td style="vertical-align:top;">:</td><td><div><table></table></div></td></tr><tr><td style="font-weight:bold;vertical-align:top;">cmd_options</td><td style="vertical-align:top;">:</td><td><div>&lt;Values at 0x3a00b08: {&#x27;verbose&#x27;: False, &#x27;ip&#x27;: &#x27;127.0.0.1&#x27;, &#x27;debuglevel&#x27;: 30, &#x27;with_scheduler&#x27;: False, &#x27;ips&#x27;: [&#x27;fe80::2121:4df9:cfc2:896b%20&#x27;, &#x27;192.168.62.1&#x27;, &#x27;fe80::c00d:daa6:7e9b:759a%10&#x27;, &#x27;192.168.150.1&#x27;, &#x27;10.0.0.19&#x27;, &#x27;fe80::d86d:56c0:a307:313b%19&#x27;, &#x27;fe80::991a:a3f3:d9a1:8cb2%17&#x27;, &#x27;192.168.56.1&#x27;], &#x27;shutdown_timeout&#x27;: 5, &#x27;taskbar&#x27;: False, &#x27;with_coverage&#x27;: False, &#x27;port&#x27;: 8000, &#x27;maxthreads&#x27;: None, &#x27;softcron&#x27;: False, &#x27;server_name&#x27;: &#x27;Larrea-W7&#x27;, &#x27;bpython&#x27;: False, &#x27;nogui&#x27;: False, &#x27;pid_filename&#x27;: &#x27;httpserver.pid&#x27;, &#x27;extcron&#x27;: False, &#x27;runcron&#x27;: False, &#x27;run_system_tests&#x27;: False, &#x27;test&#x27;: None, &#x27;folder&#x27;: &#x27;D:\\\\Usuarios\\\\Leo\\\\Mis Documentos\\\\Dropbox\\\\web2py&#x27;, &#x27;config&#x27;: &#x27;&#x27;, &#x27;import_models&#x27;: False, &#x27;winservice&#x27;: &#x27;&#x27;, &#x27;shell&#x27;: None, &#x27;run&#x27;: &#x27;&#x27;, &#x27;log_filename&#x27;: &#x27;httpserver.log&#x27;, &#x27;profiler_dir&#x27;: None, &#x27;args&#x27;: [&#x27;&#x27;], &#x27;socket_timeout&#x27;: 5, &#x27;ssl_ca_certificate&#x27;: None, &#x27;scheduler&#x27;: None, &#x27;interfaces&#x27;: None, &#x27;ssl_private_key&#x27;: &#x27;&#x27;, &#x27;scheduler_groups&#x27;: None, &#x27;password&#x27;: &#x27;&lt;ask&gt;&#x27;, &#x27;request_queue_size&#x27;: 5, &#x27;ssl_certificate&#x27;: &#x27;&#x27;, &#x27;cronjob&#x27;: False, &#x27;numthreads&#x27;: None, &#x27;quiet&#x27;: False, &#x27;minthreads&#x27;: None, &#x27;timeout&#x27;: 10, &#x27;plain&#x27;: False, &#x27;nobanner&#x27;: False}&gt;</div></td></tr><tr><td style="font-weight:bold;vertical-align:top;">db_sessions</td><td style="vertical-align:top;">:</td><td><div>set([])</div></td></tr><tr><td style="font-weight:bold;vertical-align:top;">debugging</td><td style="vertical-align:top;">:</td><td><div>True</div></td></tr><tr><td style="font-weight:bold;vertical-align:top;">gluon_parent</td><td style="vertical-align:top;">:</td><td><div>D:\\Usuarios\\Leo\\Mis Documentos\\Dropbox\\web2py</div></td></tr><tr><td style="font-weight:bold;vertical-align:top;">http_accept</td><td style="vertical-align:top;">:</td><td><div>text/html,application/xhtml+xml,application/xml;q=0.9,image/webp,*/*;q=0.8</div></td></tr><tr><td style="font-weight:bold;vertical-align:top;">http_accept_encoding</td><td style="vertical-align:top;">:</td><td><div>gzip,deflate,sdch</div></td></tr><tr><td style="font-weight:bold;vertical-align:top;">http_accept_language</td><td style="vertical-align:top;">:</td><td><div>es,es-419;q=0.8,en-US;q=0.6,en;q=0.4</div></td></tr><tr><td style="font-weight:bold;vertical-align:top;">http_connection</td><td style="vertical-align:top;">:</td><td><div>keep-alive</div></td></tr><tr><td style="font-weight:bold;vertical-align:top;">http_cookie</td><td style="vertical-align:top;">:</td><td><div>session_id_welcome=10.0.0.19-bf84d399-ae6b-4f38-ba31-bad9b4c95dbe; session_id_seacat_ingresos=10.0.0.19-caec7bb4-8743-4897-8918-097041e90beb; session_id_admin=10.0.0.19-1352923c-ddb6-4b27-936a-3c420351c593</div></td></tr><tr><td style="font-weight:bold;vertical-align:top;">http_host</td><td style="vertical-align:top;">:</td><td><div>10.0.0.19:8000</div></td></tr><tr><td style="font-weight:bold;vertical-align:top;">http_referer</td><td style="vertical-align:top;">:</td><td><div>http://10.0.0.19:8000/admin/default/edit/SEACAT_ingresos/views/default/info.html?id=views__default__info__html</div></td></tr><tr><td style="font-weight:bold;vertical-align:top;">http_user_agent</td><td style="vertical-align:top;">:</td><td><div>Mozilla/5.0 (Windows NT 6.1; WOW64) AppleWebKit/537.36 (KHTML, like Gecko) Chrome/31.0.1650.63 Safari/537.36</div></td></tr><tr><td style="font-weight:bold;vertical-align:top;">is_jython</td><td style="vertical-align:top;">:</td><td><div>False</div></td></tr><tr><td style="font-weight:bold;vertical-align:top;">is_pypy</td><td style="vertical-align:top;">:</td><td><div>False</div></td></tr><tr><td style="font-weight:bold;vertical-align:top;">is_source</td><td style="vertical-align:top;">:</td><td><div>True</div></td></tr><tr><td style="font-weight:bold;vertical-align:top;">local_hosts</td><td style="vertical-align:top;">:</td><td><div><table><tr><td><div>fe80::2121:4df9:cfc2:896b%20</div></td></tr><tr><td><div>192.168.62.1</div></td></tr><tr><td><div>fe80::c00d:daa6:7e9b:759a%10</div></td></tr><tr><td><div>192.168.150.1</div></td></tr><tr><td><div>Larrea-W7</div></td></tr><tr><td><div>10.0.0.19</div></td></tr><tr><td><div>::ffff:127.0.0.1</div></td></tr><tr><td><div>::1</div></td></tr><tr><td><div>fe80::d86d:56c0:a307:313b%19</div></td></tr><tr><td><div>fe80::991a:a3f3:d9a1:8cb2%17</div></td></tr><tr><td><div>127.0.0.1</div></td></tr><tr><td><div>192.168.56.1</div></td></tr></table></div></td></tr><tr><td style="font-weight:bold;vertical-align:top;">path_info</td><td style="vertical-align:top;">:</td><td><div>/SEACAT_ingresos/default/info</div></td></tr><tr><td style="font-weight:bold;vertical-align:top;">query_string</td><td style="vertical-align:top;">:</td><td><div></div></td></tr><tr><td style="font-weight:bold;vertical-align:top;">remote_addr</td><td style="vertical-align:top;">:</td><td><div>10.0.0.19</div></td></tr><tr><td style="font-weight:bold;vertical-align:top;">remote_port</td><td style="vertical-align:top;">:</td><td><div>53672</div></td></tr><tr><td style="font-weight:bold;vertical-align:top;">request_method</td><td style="vertical-align:top;">:</td><td><div>GET</div></td></tr><tr><td style="font-weight:bold;vertical-align:top;">request_uri</td><td style="vertical-align:top;">:</td><td><div>/SEACAT_ingresos/default/info</div></td></tr><tr><td style="font-weight:bold;vertical-align:top;">script_name</td><td style="vertical-align:top;">:</td><td><div></div></td></tr><tr><td style="font-weight:bold;vertical-align:top;">server_name</td><td style="vertical-align:top;">:</td><td><div>Larrea-W7</div></td></tr><tr><td style="font-weight:bold;vertical-align:top;">server_port</td><td style="vertical-align:top;">:</td><td><div>8000</div></td></tr><tr><td style="font-weight:bold;vertical-align:top;">server_protocol</td><td style="vertical-align:top;">:</td><td><div>HTTP/1.1</div></td></tr><tr><td style="font-weight:bold;vertical-align:top;">server_software</td><td style="vertical-align:top;">:</td><td><div>Rocket 1.2.6</div></td></tr><tr><td style="font-weight:bold;vertical-align:top;">web2py_path</td><td style="vertical-align:top;">:</td><td><div>D:\\Usuarios\\Leo\\Mis Documentos\\Dropbox\\web2py</div></td></tr><tr><td style="font-weight:bold;vertical-align:top;">web2py_version</td><td style="vertical-align:top;">:</td><td><div>2.7.4-stable+timestamp.2013.10.14.15.16.29</div></td></tr><tr><td style="font-weight:bold;vertical-align:top;">wsgi.errors</td><td style="vertical-align:top;">:</td><td><div>&lt;open file &#x27;&lt;stderr&gt;&#x27;, mode &#x27;w&#x27; at 0x0000000001D351E0&gt;</div></td></tr><tr><td style="font-weight:bold;vertical-align:top;">wsgi.file_wrapper</td><td style="vertical-align:top;">:</td><td><div>&lt;class wsgiref.util.FileWrapper at 0x000000000398E4C8&gt;</div></td></tr><tr><td style="font-weight:bold;vertical-align:top;">wsgi.input</td><td style="vertical-align:top;">:</td><td><div>&lt;socket._fileobject object at 0x00000000093716D8&gt;</div></td></tr><tr><td style="font-weight:bold;vertical-align:top;">wsgi.multiprocess</td><td style="vertical-align:top;">:</td><td><div>False</div></td></tr><tr><td style="font-weight:bold;vertical-align:top;">wsgi.multithread</td><td style="vertical-align:top;">:</td><td><div>True</div></td></tr><tr><td style="font-weight:bold;vertical-align:top;">wsgi.run_once</td><td style="vertical-align:top;">:</td><td><div>False</div></td></tr><tr><td style="font-weight:bold;vertical-align:top;">wsgi.url_scheme</td><td style="vertical-align:top;">:</td><td><div>http</div></td></tr><tr><td style="font-weight:bold;vertical-align:top;">wsgi.version</td><td style="vertical-align:top;">:</td><td><div><table><tr><td><div>1</div></td></tr><tr><td><div>0</div></td></tr></table></div></td></tr><tr><td style="font-weight:bold;vertical-align:top;">wsgi_errors</td><td style="vertical-align:top;">:</td><td><div>&lt;open file &#x27;&lt;stderr&gt;&#x27;, mode &#x27;w&#x27; at 0x0000000001D351E0&gt;</div></td></tr><tr><td style="font-weight:bold;vertical-align:top;">wsgi_file_wrapper</td><td style="vertical-align:top;">:</td><td><div>&lt;class wsgiref.util.FileWrapper at 0x000000000398E4C8&gt;</div></td></tr><tr><td style="font-weight:bold;vertical-align:top;">wsgi_input</td><td style="vertical-align:top;">:</td><td><div>&lt;socket._fileobject object at 0x00000000093716D8&gt;</div></td></tr><tr><td style="font-weight:bold;vertical-align:top;">wsgi_multiprocess</td><td style="vertical-align:top;">:</td><td><div>False</div></td></tr><tr><td style="font-weight:bold;vertical-align:top;">wsgi_multithread</td><td style="vertical-align:top;">:</td><td><div>True</div></td></tr><tr><td style="font-weight:bold;vertical-align:top;">wsgi_run_once</td><td style="vertical-align:top;">:</td><td><div>False</div></td></tr><tr><td style="font-weight:bold;vertical-align:top;">wsgi_url_scheme</td><td style="vertical-align:top;">:</td><td><div>http</div></td></tr><tr><td style="font-weight:bold;vertical-align:top;">wsgi_version</td><td style="vertical-align:top;">:</td><td><div><table><tr><td><div>1</div></td></tr><tr><td><div>0</div></td></tr></table></div></td></tr></table></div></td></tr><tr><td style="font-weight:bold;vertical-align:top;">extension</td><td style="vertical-align:top;">:</td><td><div>html</div></td></tr><tr><td style="font-weight:bold;vertical-align:top;">folder</td><td style="vertical-align:top;">:</td><td><div>D:\\Usuarios\\Leo\\Mis Documentos\\Dropbox\\web2py\\applications\\SEACAT_ingresos\\</div></td></tr><tr><td style="font-weight:bold;vertical-align:top;">function</td><td style="vertical-align:top;">:</td><td><div>info</div></td></tr><tr><td style="font-weight:bold;vertical-align:top;">global_settings</td><td style="vertical-align:top;">:</td><td><div><table><tr><td style="font-weight:bold;vertical-align:top;">app_folders</td><td style="vertical-align:top;">:</td><td><div>set([&#x27;D:\\\\Usuarios\\\\Leo\\\\Mis Documentos\\\\Dropbox\\\\web2py\\\\applications\\\\welcome\\\\&#x27;, &#x27;D:\\\\Usuarios\\\\Leo\\\\Mis Documentos\\\\Dropbox\\\\web2py\\\\applications\\\\admin\\\\&#x27;, &#x27;D:\\\\Usuarios\\\\Leo\\\\Mis Documentos\\\\Dropbox\\\\web2py\\\\applications\\\\SEACAT_ingresos\\\\&#x27;])</div></td></tr><tr><td style="font-weight:bold;vertical-align:top;">applications_parent</td><td style="vertical-align:top;">:</td><td><div>D:\\Usuarios\\Leo\\Mis Documentos\\Dropbox\\web2py</div></td></tr><tr><td style="font-weight:bold;vertical-align:top;">cmd_args</td><td style="vertical-align:top;">:</td><td><div><table></table></div></td></tr><tr><td style="font-weight:bold;vertical-align:top;">cmd_options</td><td style="vertical-align:top;">:</td><td><div>&lt;Values at 0x3a00b08: {&#x27;verbose&#x27;: False, &#x27;ip&#x27;: &#x27;127.0.0.1&#x27;, &#x27;debuglevel&#x27;: 30, &#x27;with_scheduler&#x27;: False, &#x27;ips&#x27;: [&#x27;fe80::2121:4df9:cfc2:896b%20&#x27;, &#x27;192.168.62.1&#x27;, &#x27;fe80::c00d:daa6:7e9b:759a%10&#x27;, &#x27;192.168.150.1&#x27;, &#x27;10.0.0.19&#x27;, &#x27;fe80::d86d:56c0:a307:313b%19&#x27;, &#x27;fe80::991a:a3f3:d9a1:8cb2%17&#x27;, &#x27;192.168.56.1&#x27;], &#x27;shutdown_timeout&#x27;: 5, &#x27;taskbar&#x27;: False, &#x27;with_coverage&#x27;: False, &#x27;port&#x27;: 8000, &#x27;maxthreads&#x27;: None, &#x27;softcron&#x27;: False, &#x27;server_name&#x27;: &#x27;Larrea-W7&#x27;, &#x27;bpython&#x27;: False, &#x27;nogui&#x27;: False, &#x27;pid_filename&#x27;: &#x27;httpserver.pid&#x27;, &#x27;extcron&#x27;: False, &#x27;runcron&#x27;: False, &#x27;run_system_tests&#x27;: False, &#x27;test&#x27;: None, &#x27;folder&#x27;: &#x27;D:\\\\Usuarios\\\\Leo\\\\Mis Documentos\\\\Dropbox\\\\web2py&#x27;, &#x27;config&#x27;: &#x27;&#x27;, &#x27;import_models&#x27;: False, &#x27;winservice&#x27;: &#x27;&#x27;, &#x27;shell&#x27;: None, &#x27;run&#x27;: &#x27;&#x27;, &#x27;log_filename&#x27;: &#x27;httpserver.log&#x27;, &#x27;profiler_dir&#x27;: None, &#x27;args&#x27;: [&#x27;&#x27;], &#x27;socket_timeout&#x27;: 5, &#x27;ssl_ca_certificate&#x27;: None, &#x27;scheduler&#x27;: None, &#x27;interfaces&#x27;: None, &#x27;ssl_private_key&#x27;: &#x27;&#x27;, &#x27;scheduler_groups&#x27;: None, &#x27;password&#x27;: &#x27;&lt;ask&gt;&#x27;, &#x27;request_queue_size&#x27;: 5, &#x27;ssl_certificate&#x27;: &#x27;&#x27;, &#x27;cronjob&#x27;: False, &#x27;numthreads&#x27;: None, &#x27;quiet&#x27;: False, &#x27;minthreads&#x27;: None, &#x27;timeout&#x27;: 10, &#x27;plain&#x27;: False, &#x27;nobanner&#x27;: False}&gt;</div></td></tr><tr><td style="font-weight:bold;vertical-align:top;">db_sessions</td><td style="vertical-align:top;">:</td><td><div>set([])</div></td></tr><tr><td style="font-weight:bold;vertical-align:top;">debugging</td><td style="vertical-align:top;">:</td><td><div>True</div></td></tr><tr><td style="font-weight:bold;vertical-align:top;">gluon_parent</td><td style="vertical-align:top;">:</td><td><div>D:\\Usuarios\\Leo\\Mis Documentos\\Dropbox\\web2py</div></td></tr><tr><td style="font-weight:bold;vertical-align:top;">is_jython</td><td style="vertical-align:top;">:</td><td><div>False</div></td></tr><tr><td style="font-weight:bold;vertical-align:top;">is_pypy</td><td style="vertical-align:top;">:</td><td><div>False</div></td></tr><tr><td style="font-weight:bold;vertical-align:top;">is_source</td><td style="vertical-align:top;">:</td><td><div>True</div></td></tr><tr><td style="font-weight:bold;vertical-align:top;">local_hosts</td><td style="vertical-align:top;">:</td><td><div><table><tr><td><div>fe80::2121:4df9:cfc2:896b%20</div></td></tr><tr><td><div>192.168.62.1</div></td></tr><tr><td><div>fe80::c00d:daa6:7e9b:759a%10</div></td></tr><tr><td><div>192.168.150.1</div></td></tr><tr><td><div>Larrea-W7</div></td></tr><tr><td><div>10.0.0.19</div></td></tr><tr><td><div>::ffff:127.0.0.1</div></td></tr><tr><td><div>::1</div></td></tr><tr><td><div>fe80::d86d:56c0:a307:313b%19</div></td></tr><tr><td><div>fe80::991a:a3f3:d9a1:8cb2%17</div></td></tr><tr><td><div>127.0.0.1</div></td></tr><tr><td><div>192.168.56.1</div></td></tr></table></div></td></tr><tr><td style="font-weight:bold;vertical-align:top;">web2py_version</td><td style="vertical-align:top;">:</td><td><div>2.7.4-stable+timestamp.2013.10.14.15.16.29</div></td></tr></table></div></td></tr><tr><td style="font-weight:bold;vertical-align:top;">is_https</td><td style="vertical-align:top;">:</td><td><div>False</div></td></tr><tr><td style="font-weight:bold;vertical-align:top;">is_local</td><td style="vertical-align:top;">:</td><td><div>True</div></td></tr><tr><td style="font-weight:bold;vertical-align:top;">is_restful</td><td style="vertical-align:top;">:</td><td><div>False</div></td></tr><tr><td style="font-weight:bold;vertical-align:top;">now</td><td style="vertical-align:top;">:</td><td><div>datetime.datetime(2014, 1, 8, 9, 58, 7, 198000)</div></td></tr><tr><td style="font-weight:bold;vertical-align:top;">raw_args</td><td style="vertical-align:top;">:</td><td><div></div></td></tr><tr><td style="font-weight:bold;vertical-align:top;">raw_extension</td><td style="vertical-align:top;">:</td><td><div>None</div></td></tr><tr><td style="font-weight:bold;vertical-align:top;">url</td><td style="vertical-align:top;">:</td><td><div>/SEACAT_ingresos/default/info</div></td></tr><tr><td style="font-weight:bold;vertical-align:top;">utcnow</td><td style="vertical-align:top;">:</td><td><div>datetime.datetime(2014, 1, 8, 12, 58, 7, 198000)</div></td></tr><tr><td style="font-weight:bold;vertical-align:top;">uuid</td><td style="vertical-align:top;">:</td><td><div>SEACAT_ingresos/10.0.0.19.2014-01-08.09-58-07.562e97b2-b33b-4b8e-8d61-d863c37295a9</div></td></tr><tr><td style="font-weight:bold;vertical-align:top;">wsgi</td><td style="vertical-align:top;">:</td><td><div>&lt;gluon.main.LazyWSGI object at 0x000000000953B710&gt;</div></td></tr></table></div>'
tRp70
sS'frames'
p71
(lp72
(dp73
S'file'
p74
S'D:\\Usuarios\\Leo\\Mis Documentos\\Dropbox\\web2py\\gluon\\restricted.py'
p75
sS'dump'
p76
(dp77
S'environment'
p78
S"{'A': <class 'gluon.html.A'>, 'ANY_OF': <class 'gluon.validators.ANY_OF'>, 'Auth': <class 'gluon.tools.Auth'>, 'B': <class 'gluon.html.B'>, 'BEAUTIFY': <class 'gluon.html.BEAUTIFY'>, 'BODY': <class 'gluon.html.BODY'>, 'BR': <class 'gluon.html.BR'>, 'BUTTON': <class 'gluon.html.BUTTON'>, 'CAT': <class 'gluon.html.CAT'>, 'CENTER': <class 'gluon.html.CENTER'>, ...}"
p79
sS'ccode'
p80
S'<code object <module> at 0000000009AFD530, file ...SEACAT_ingresos\\views\\default/info.html", line 1>'
p81
ssS'lnum'
p82
I217
sS'lines'
p83
(dp84
I212
S'    try:'
p85
sI213
S'        if isinstance(code, types.CodeType):'
p86
sI214
S'            ccode = code'
p87
sI215
S'        else:'
p88
sI216
S'            ccode = compile2(code, layer)'
p89
sI217
S'        exec ccode in environment'
p90
sI218
S'    except HTTP:'
p91
sI219
S'        raise'
p92
sI220
S'    except RestrictedError:'
p93
sI221
S'        # do not encapsulate (obfuscate) the original RestrictedError'
p94
ssS'call'
p95
S'(code=\'response.write(\\\'<!--[if HTML5]><![endif]-->\\\\n<!D...(\\\'"></script>\\\\n</body>\\\\n</html>\\\\n\\\', escape=False)\', environment={\'A\': <class \'gluon.html.A\'>, \'ANY_OF\': <class \'gluon.validators.ANY_OF\'>, \'Auth\': <class \'gluon.tools.Auth\'>, \'B\': <class \'gluon.html.B\'>, \'BEAUTIFY\': <class \'gluon.html.BEAUTIFY\'>, \'BODY\': <class \'gluon.html.BODY\'>, \'BR\': <class \'gluon.html.BR\'>, \'BUTTON\': <class \'gluon.html.BUTTON\'>, \'CAT\': <class \'gluon.html.CAT\'>, \'CENTER\': <class \'gluon.html.CENTER\'>, ...}, layer=r\'D:\\Usuarios\\Leo\\Mis Documentos\\Dropbox\\web2py\\applications\\SEACAT_ingresos\\views\\default/info.html\')'
p96
sS'func'
p97
S'restricted'
p98
sa(dp99
g74
S'D:\\Usuarios\\Leo\\Mis Documentos\\Dropbox\\web2py\\applications\\SEACAT_ingresos\\views\\default\\info.html'
p100
sg76
(dp101
sg82
I95
sg83
(dp102
I96
S"response.write('\\r\\nTe esperamos en Yapey\\xc3\\xba 197, Ciudad Aut\\xc3\\xb3noma de Buenos Aires de 7:30 a 13:00hs.<br/>\\r\\n<br/>\\r\\nLas inscripciones para el 2015 finalizan el 20 de Septiembre de 2014.\\r\\n</p>\\r\\n', escape=False)"
p103
sI97
S'response.write(A(T("Go Back"), _href=URL(\'index\'), _class=\'btn\', _style=\'margin-top: 1em;\'))'
p104
sI98
S"response.write('\\r\\n', escape=False)"
p105
sI99
S"response.write('\\n            ', escape=False)"
p106
sI100
S"response.write('\\n        </div>\\n\\n        ', escape=False)"
p107
sI101
S'if right_sidebar_enabled:'
p108
sI102
S'    response.write(\'\\n        <div class="span3">\\n            \', escape=False)'
p109
sI103
S"    response.write('\\n            <h3>Right Sidebar</h3>\\n            <p></p>\\n            ', escape=False)"
p110
sI104
S"    response.write('\\n        </div>\\n        ', escape=False)"
p111
sI105
S'    pass'
p112
sI86
S'response.write(\'\\n\\n        <div class="\', escape=False)'
p113
sI87
S'response.write(middle_columns)'
p114
sI88
S'response.write(\'">\\n            \', escape=False)'
p115
sI89
S"response.write('\\n            ', escape=False)"
p116
sI90
S"response.write('\\r\\n<p>\\r\\n    ', escape=False)"
p117
sI91
S'response.write(A(IMG(_src=URL(\'static\',\'LogoP\xc3\xadoIX-Nuevo.png\'), _alt="<img:Logo P\xc3\xado IX>"), _href=URL(\'default\',\'index\')))'
p118
sI92
S"response.write('\\r\\n<p>\\r\\n<h1>Informaci\\xc3\\xb3n</h1>\\r\\n\\r\\n<!-- ', escape=False)"
p119
sI93
S'response.write(BEAUTIFY(response._vars))'
p120
sI94
S"response.write(' -->\\r\\n<p>\\r\\nPara obtener m\\xc3\\xa1s informaci\\xc3\\xb3n ten\\xc3\\xa9s que pasar por el Colegio!<br/>\\r\\n    ', escape=False)"
p121
sI95
S'db.image.id = 1'
p122
ssg95
S'()'
p123
sg97
S'<module>'
p124
sa(dp125
g74
S'D:\\Usuarios\\Leo\\Mis Documentos\\Dropbox\\web2py\\gluon\\dal.py'
p126
sg76
(dp127
S'builtinSyntaxError'
p128
S"<type 'exceptions.SyntaxError'>"
p129
sS'key'
p130
S"'id'"
p131
ssg82
I8654
sg83
(dp132
I8649
S''
sI8650
S'    __getattr__ = __getitem__'
p133
sI8651
S''
sI8652
S'    def __setattr__(self, key, value):'
p134
sI8653
S"        if key[:1]!='_' and key in self:"
p135
sI8654
S"            raise SyntaxError('Object exists and cannot be redefined: %s' % key)"
p136
sI8655
S'        osetattr(self,key,value)'
p137
sI8656
S''
sI8657
S'    def __delitem__(self, key):'
p138
sI8658
S'        if isinstance(key, dict):'
p139
ssg95
S"(self=<Table image (id,name,file)>, key='id', value=1)"
p140
sg97
g26
sasS'pyver'
p141
S'Python 2.7.3: C:\\Python27\\python.exe (prefix: C:\\Python27)'
p142
sS'session'
p143
g69
(S's\xff\t\x00\x00<div><table><tr><td style="font-weight:bold;vertical-align:top;">auth</td><td style="vertical-align:top;">:</td><td><div><table><tr><td style="font-weight:bold;vertical-align:top;">expiration</td><td style="vertical-align:top;">:</td><td><div>3600</div></td></tr><tr><td style="font-weight:bold;vertical-align:top;">hmac_key</td><td style="vertical-align:top;">:</td><td><div>66cf3495-824c-4d70-968b-533176efa412</div></td></tr><tr><td style="font-weight:bold;vertical-align:top;">last_visit</td><td style="vertical-align:top;">:</td><td><div>datetime.datetime(2014, 1, 8, 9, 54, 27, 465000)</div></td></tr><tr><td style="font-weight:bold;vertical-align:top;">remember</td><td style="vertical-align:top;">:</td><td><div>False</div></td></tr><tr><td style="font-weight:bold;vertical-align:top;">user</td><td style="vertical-align:top;">:</td><td><div><table><tr><td style="font-weight:bold;vertical-align:top;">email</td><td style="vertical-align:top;">:</td><td><div>colomboleandro@pioix.edu.ar</div></td></tr><tr><td style="font-weight:bold;vertical-align:top;">first_name</td><td style="vertical-align:top;">:</td><td><div>Leandro E.</div></td></tr><tr><td style="font-weight:bold;vertical-align:top;">id</td><td style="vertical-align:top;">:</td><td><div>1L</div></td></tr><tr><td style="font-weight:bold;vertical-align:top;">last_login</td><td style="vertical-align:top;">:</td><td><div>None</div></td></tr><tr><td style="font-weight:bold;vertical-align:top;">last_name</td><td style="vertical-align:top;">:</td><td><div>Colombo Vi\xc3\xb1a</div></td></tr><tr><td style="font-weight:bold;vertical-align:top;">obs</td><td style="vertical-align:top;">:</td><td><div>None</div></td></tr><tr><td style="font-weight:bold;vertical-align:top;">registration_id</td><td style="vertical-align:top;">:</td><td><div></div></td></tr><tr><td style="font-weight:bold;vertical-align:top;">registration_key</td><td style="vertical-align:top;">:</td><td><div></div></td></tr><tr><td style="font-weight:bold;vertical-align:top;">reset_password_key</td><td style="vertical-align:top;">:</td><td><div></div></td></tr></table></div></td></tr><tr><td style="font-weight:bold;vertical-align:top;">user_groups</td><td style="vertical-align:top;">:</td><td><div><table><tr><td style="font-weight:bold;vertical-align:top;">1</td><td style="vertical-align:top;">:</td><td><div>root</div></td></tr></table></div></td></tr></table></div></td></tr><tr><td style="font-weight:bold;vertical-align:top;">flash</td><td style="vertical-align:top;">:</td><td><div>None</div></td></tr></table></div>'
tRp144
sS'etype'
p145
S"<type 'exceptions.SyntaxError'>"
p146
sS'date'
p147
S'Wed Jan 08 09:58:08 2014'
p148
sS'response'
p149
g69
(S's\x1a6\x00\x00<div><table><tr><td style="font-weight:bold;vertical-align:top;">body</td><td style="vertical-align:top;">:</td><td><div>&lt;cStringIO.StringO object at 0x00000000092E4C00&gt;</div></td></tr><tr><td style="font-weight:bold;vertical-align:top;">cookies</td><td style="vertical-align:top;">:</td><td><div><table><tr><td style="font-weight:bold;vertical-align:top;">session_id_seacat_ingresos</td><td style="vertical-align:top;">:</td><td><div>10.0.0.19-caec7bb4-8743-4897-8918-097041e90beb<table><tr><td style="font-weight:bold;vertical-align:top;">comment</td><td style="vertical-align:top;">:</td><td><div></div></td></tr><tr><td style="font-weight:bold;vertical-align:top;">domain</td><td style="vertical-align:top;">:</td><td><div></div></td></tr><tr><td style="font-weight:bold;vertical-align:top;">expires</td><td style="vertical-align:top;">:</td><td><div></div></td></tr><tr><td style="font-weight:bold;vertical-align:top;">httponly</td><td style="vertical-align:top;">:</td><td><div></div></td></tr><tr><td style="font-weight:bold;vertical-align:top;">max-age</td><td style="vertical-align:top;">:</td><td><div></div></td></tr><tr><td style="font-weight:bold;vertical-align:top;">path</td><td style="vertical-align:top;">:</td><td><div>/</div></td></tr><tr><td style="font-weight:bold;vertical-align:top;">secure</td><td style="vertical-align:top;">:</td><td><div></div></td></tr><tr><td style="font-weight:bold;vertical-align:top;">version</td><td style="vertical-align:top;">:</td><td><div></div></td></tr></table></div></td></tr></table></div></td></tr><tr><td style="font-weight:bold;vertical-align:top;">delimiters</td><td style="vertical-align:top;">:</td><td><div><table><tr><td><div>{{</div></td></tr><tr><td><div>}}</div></td></tr></table></div></td></tr><tr><td style="font-weight:bold;vertical-align:top;">files</td><td style="vertical-align:top;">:</td><td><div><table><tr><td><div>/SEACAT_ingresos/static/js/jquery.js</div></td></tr><tr><td><div>/SEACAT_ingresos/static/css/calendar.css</div></td></tr><tr><td><div>/SEACAT_ingresos/static/js/calendar.js</div></td></tr><tr><td><div>/SEACAT_ingresos/static/js/web2py.js</div></td></tr><tr><td><div>/SEACAT_ingresos/static/css/web2py.css</div></td></tr><tr><td><div>/SEACAT_ingresos/static/css/bootstrap.min.css</div></td></tr><tr><td><div>/SEACAT_ingresos/static/css/bootstrap-responsive.min.css</div></td></tr><tr><td><div>/SEACAT_ingresos/static/css/web2py_bootstrap.css</div></td></tr></table></div></td></tr><tr><td style="font-weight:bold;vertical-align:top;">flash</td><td style="vertical-align:top;">:</td><td><div></div></td></tr><tr><td style="font-weight:bold;vertical-align:top;">generic_patterns</td><td style="vertical-align:top;">:</td><td><div><table><tr><td><div>*</div></td></tr></table></div></td></tr><tr><td style="font-weight:bold;vertical-align:top;">google_analytics_id</td><td style="vertical-align:top;">:</td><td><div>None</div></td></tr><tr><td style="font-weight:bold;vertical-align:top;">headers</td><td style="vertical-align:top;">:</td><td><div><table><tr><td style="font-weight:bold;vertical-align:top;">X-Powered-By</td><td style="vertical-align:top;">:</td><td><div>web2py</div></td></tr></table></div></td></tr><tr><td style="font-weight:bold;vertical-align:top;">logo</td><td style="vertical-align:top;">:</td><td><div><a class="brand" data-w2p_disable_with="default" href="http://www.web2py.com/"><b>web<span>2</span>py</b>&trade;&nbsp;</a></div></td></tr><tr><td style="font-weight:bold;vertical-align:top;">menu</td><td style="vertical-align:top;">:</td><td><div><table><tr><td><div><table><tr><td><div>P\xc3\xa1gina Principal</div></td></tr><tr><td><div>False</div></td></tr><tr><td><div>/SEACAT_ingresos/default/index</div></td></tr><tr><td><div><table></table></div></td></tr></table></div></td></tr><tr><td><div><table><tr><td><div><span class="highlighted">web2py</span></div></td></tr><tr><td><div>False</div></td></tr><tr><td><div>http://web2py.com</div></td></tr><tr><td><div><table><tr><td><div><table><tr><td><div>Mis Sitios</div></td></tr><tr><td><div>False</div></td></tr><tr><td><div>/admin/default/site</div></td></tr></table></div></td></tr><tr><td><div><table><tr><td><div>Esta Aplicaci\xc3\xb3n</div></td></tr><tr><td><div>False</div></td></tr><tr><td><div>/admin/default/design/SEACAT_ingresos</div></td></tr><tr><td><div>[(&lt;lazyT &#x27;Controller&#x27;&gt;, False, &#x27;/admin/default/edit/SEACAT_ingresos/controllers/default.py&#x27;), (&lt;lazyT &#x27;View&#x27;&gt;, False, &#x27;/admin/default/edit/SEACAT_ingresos/views/default/info.html&#x27;), (&lt;lazyT &#x27;Layout&#x27;&gt;, False, &#x27;/admin/default/edit/SEACAT_ingresos/views/layout.html&#x27;), (&lt;lazyT &#x27;Stylesheet&#x27;&gt;, False, &#x27;/admin/default/edit/SEACAT_ingresos/static/css/web2py.css&#x27;), (&lt;lazyT &#x27;DB Model&#x27;&gt;, False, &#x27;/admin/default/edit/SEACAT_ingresos/models/db.py&#x27;), (&lt;lazyT &#x27;Menu Model&#x27;&gt;, False, &#x27;/admin/default/edit/SEACAT_ingresos/models/menu.py&#x27;), (&lt;lazyT &#x27;Database&#x27;&gt;, False, &#x27;/SEACAT_ingresos/appadmin/index&#x27;), (&lt;lazyT &#x27;Errors&#x27;&gt;, False, &#x27;/admin/default/errors/SEACAT_ingresos&#x27;), (&lt;lazyT &#x27;About&#x27;&gt;, False, &#x27;/admin/default/about/SEACAT_ingresos&#x27;)]</div></td></tr></table></div></td></tr><tr><td><div><table><tr><td><div>web2py.com</div></td></tr><tr><td><div>False</div></td></tr><tr><td><div>http://www.web2py.com</div></td></tr><tr><td><div>[(&lt;lazyT &#x27;Download&#x27;&gt;, False, &#x27;http://www.web2py.com/examples/default/download&#x27;), (&lt;lazyT &#x27;Support&#x27;&gt;, False, &#x27;http://www.web2py.com/examples/default/support&#x27;), (&lt;lazyT &#x27;Demo&#x27;&gt;, False, &#x27;http://web2py.com/demo_admin&#x27;), (&lt;lazyT &#x27;Quick Examples&#x27;&gt;, False, &#x27;http://web2py.com/examples/default/examples&#x27;), (&lt;lazyT &#x27;FAQ&#x27;&gt;, False, &#x27;http://web2py.com/AlterEgo&#x27;), (&lt;lazyT &#x27;Videos&#x27;&gt;, False, &#x27;http://www.web2py.com/examples/default/videos/&#x27;), (&lt;lazyT &#x27;Free Applications&#x27;&gt;, False, &#x27;http://web2py.com/appliances&#x27;), (&lt;lazyT &#x27;Plugins&#x27;&gt;, False, &#x27;http://web2py.com/plugins&#x27;), (&lt;lazyT &#x27;Layouts&#x27;&gt;, False, &#x27;http://web2py.com/layouts&#x27;), (&lt;lazyT &#x27;Recipes&#x27;&gt;, False, &#x27;http://web2pyslices.com/&#x27;), (&lt;lazyT &#x27;Semantic&#x27;&gt;, False, &#x27;http://web2py.com/semantic&#x27;)]</div></td></tr></table></div></td></tr><tr><td><div><table><tr><td><div>Documentaci\xc3\xb3n</div></td></tr><tr><td><div>False</div></td></tr><tr><td><div>http://www.web2py.com/book</div></td></tr><tr><td><div>[(&lt;lazyT &#x27;Preface&#x27;&gt;, False, &#x27;http://www.web2py.com/book/default/chapter/00&#x27;), (&lt;lazyT &#x27;Introduction&#x27;&gt;, False, &#x27;http://www.web2py.com/book/default/chapter/01&#x27;), (&lt;lazyT &#x27;Python&#x27;&gt;, False, &#x27;http://www.web2py.com/book/default/chapter/02&#x27;), (&lt;lazyT &#x27;Overview&#x27;&gt;, False, &#x27;http://www.web2py.com/book/default/chapter/03&#x27;), (&lt;lazyT &#x27;The Core&#x27;&gt;, False, &#x27;http://www.web2py.com/book/default/chapter/04&#x27;), (&lt;lazyT &#x27;The Views&#x27;&gt;, False, &#x27;http://www.web2py.com/book/default/chapter/05&#x27;), (&lt;lazyT &#x27;Database&#x27;&gt;, False, &#x27;http://www.web2py.com/book/default/chapter/06&#x27;), (&lt;lazyT &#x27;Forms and Validators&#x27;&gt;, False, &#x27;http://www.web2py.com/book/default/chapter/07&#x27;), (&lt;lazyT &#x27;Email and SMS&#x27;&gt;, False, &#x27;http://www.web2py.com/book/default/chapter/08&#x27;), (&lt;lazyT &#x27;Access Control&#x27;&gt;, False, &#x27;http://www.web2py.com/book/default/chapter/09&#x27;), (&lt;lazyT &#x27;Services&#x27;&gt;, False, &#x27;http://www.web2py.com/book/default/chapter/10&#x27;), (&lt;lazyT &#x27;Ajax Recipes&#x27;&gt;, False, &#x27;http://www.web2py.com/book/default/chapter/11&#x27;), (&lt;lazyT &#x27;Components and Plugins&#x27;&gt;, False, &#x27;http://www.web2py.com/book/default/chapter/12&#x27;), (&lt;lazyT &#x27;Deployment Recipes&#x27;&gt;, False, &#x27;http://www.web2py.com/book/default/chapter/13&#x27;), (&lt;lazyT &#x27;Other Recipes&#x27;&gt;, False, &#x27;http://www.web2py.com/book/default/chapter/14&#x27;), (&lt;lazyT &#x27;Buy this book&#x27;&gt;, False, &#x27;http://stores.lulu.com/web2py&#x27;)]</div></td></tr></table></div></td></tr><tr><td><div><table><tr><td><div>Comunidad</div></td></tr><tr><td><div>False</div></td></tr><tr><td><div>None</div></td></tr><tr><td><div>[(&lt;lazyT &#x27;Groups&#x27;&gt;, False, &#x27;http://www.web2py.com/examples/default/usergroups&#x27;), (&lt;lazyT &#x27;Twitter&#x27;&gt;, False, &#x27;http://twitter.com/web2py&#x27;), (&lt;lazyT &#x27;Live Chat&#x27;&gt;, False, &#x27;http://webchat.freenode.net/?channels=web2py&#x27;)]</div></td></tr></table></div></td></tr><tr><td><div><table><tr><td><div>Plugins</div></td></tr><tr><td><div>False</div></td></tr><tr><td><div>None</div></td></tr><tr><td><div>[(&#x27;plugin_wiki&#x27;, False, &#x27;http://web2py.com/examples/default/download&#x27;), (&lt;lazyT &#x27;Other Plugins&#x27;&gt;, False, &#x27;http://web2py.com/plugins&#x27;), (&lt;lazyT &#x27;Layout Plugins&#x27;&gt;, False, &#x27;http://web2py.com/layouts&#x27;)]</div></td></tr></table></div></td></tr></table></div></td></tr></table></div></td></tr><tr><td><div><table><tr><td><div><span class="highlighted">root</span></div></td></tr><tr><td><div>False</div></td></tr><tr><td><div>/SEACAT_ingresos/default/appadmin</div></td></tr></table></div></td></tr></table></div></td></tr><tr><td style="font-weight:bold;vertical-align:top;">meta</td><td style="vertical-align:top;">:</td><td><div><table><tr><td style="font-weight:bold;vertical-align:top;">author</td><td style="vertical-align:top;">:</td><td><div>Leandro E. Colombo Vi\xc3\xb1a</div></td></tr><tr><td style="font-weight:bold;vertical-align:top;">description</td><td style="vertical-align:top;">:</td><td><div>Sistema de Inscripciones para el Colegio P\xc3\xado IX</div></td></tr><tr><td style="font-weight:bold;vertical-align:top;">generator</td><td style="vertical-align:top;">:</td><td><div>Web2py Web Framework</div></td></tr><tr><td style="font-weight:bold;vertical-align:top;">keywords</td><td style="vertical-align:top;">:</td><td><div>Inscripciones P\xc3\xado IX</div></td></tr></table></div></td></tr><tr><td style="font-weight:bold;vertical-align:top;">models_to_run</td><td style="vertical-align:top;">:</td><td><div><table><tr><td><div>^\\w+\\.py$</div></td></tr><tr><td><div>^default/\\w+\\.py$</div></td></tr><tr><td><div>^default/info/\\w+\\.py$</div></td></tr></table></div></td></tr><tr><td style="font-weight:bold;vertical-align:top;">postprocessing</td><td style="vertical-align:top;">:</td><td><div><table></table></div></td></tr><tr><td style="font-weight:bold;vertical-align:top;">session_client</td><td style="vertical-align:top;">:</td><td><div>10.0.0.19</div></td></tr><tr><td style="font-weight:bold;vertical-align:top;">session_cookie_compression_level</td><td style="vertical-align:top;">:</td><td><div>None</div></td></tr><tr><td style="font-weight:bold;vertical-align:top;">session_cookie_expires</td><td style="vertical-align:top;">:</td><td><div>None</div></td></tr><tr><td style="font-weight:bold;vertical-align:top;">session_cookie_key</td><td style="vertical-align:top;">:</td><td><div>None</div></td></tr><tr><td style="font-weight:bold;vertical-align:top;">session_data_name</td><td style="vertical-align:top;">:</td><td><div>session_data_seacat_ingresos</div></td></tr><tr><td style="font-weight:bold;vertical-align:top;">session_file</td><td style="vertical-align:top;">:</td><td><div>&lt;open file &#x27;D:\\Usuarios\\Leo\\Mis Documentos\\Dropbox\\web2py\\applications\\SEACAT_ingresos\\sessions\\10.0.0.19-caec7bb4-8743-4897-8918-097041e90beb&#x27;, mode &#x27;rb+&#x27; at 0x000000000901BD20&gt;</div></td></tr><tr><td style="font-weight:bold;vertical-align:top;">session_filename</td><td style="vertical-align:top;">:</td><td><div>D:\\Usuarios\\Leo\\Mis Documentos\\Dropbox\\web2py\\applications\\SEACAT_ingresos\\sessions\\10.0.0.19-caec7bb4-8743-4897-8918-097041e90beb</div></td></tr><tr><td style="font-weight:bold;vertical-align:top;">session_hash</td><td style="vertical-align:top;">:</td><td><div>a0cc1a32a747bdc169e11e5767499961</div></td></tr><tr><td style="font-weight:bold;vertical-align:top;">session_id</td><td style="vertical-align:top;">:</td><td><div>10.0.0.19-caec7bb4-8743-4897-8918-097041e90beb</div></td></tr><tr><td style="font-weight:bold;vertical-align:top;">session_id_name</td><td style="vertical-align:top;">:</td><td><div>session_id_seacat_ingresos</div></td></tr><tr><td style="font-weight:bold;vertical-align:top;">session_locked</td><td style="vertical-align:top;">:</td><td><div>True</div></td></tr><tr><td style="font-weight:bold;vertical-align:top;">session_masterapp</td><td style="vertical-align:top;">:</td><td><div>SEACAT_ingresos</div></td></tr><tr><td style="font-weight:bold;vertical-align:top;">session_new</td><td style="vertical-align:top;">:</td><td><div>False</div></td></tr><tr><td style="font-weight:bold;vertical-align:top;">session_storage_type</td><td style="vertical-align:top;">:</td><td><div>file</div></td></tr><tr><td style="font-weight:bold;vertical-align:top;">status</td><td style="vertical-align:top;">:</td><td><div>200</div></td></tr><tr><td style="font-weight:bold;vertical-align:top;">subtitle</td><td style="vertical-align:top;">:</td><td><div>v.0.0.1b</div></td></tr><tr><td style="font-weight:bold;vertical-align:top;">title</td><td style="vertical-align:top;">:</td><td><div>SEACAT</div></td></tr><tr><td style="font-weight:bold;vertical-align:top;">view</td><td style="vertical-align:top;">:</td><td><div>default/info.html</div></td></tr></table></div>'
tRp150
sS'locals'
p151
(dp152
S'self'
p153
S'<Table image (id,name,file)>'
p154
sS'value'
p155
S'1'
sS'key'
p156
S"'id'"
p157
sssS'traceback'
p158
S'Traceback (most recent call last):\n  File "D:\\Usuarios\\Leo\\Mis Documentos\\Dropbox\\web2py\\gluon\\restricted.py", line 217, in restricted\n    exec ccode in environment\n  File "D:\\Usuarios\\Leo\\Mis Documentos\\Dropbox\\web2py\\applications\\SEACAT_ingresos\\views\\default/info.html", line 95, in <module>\n  File "D:\\Usuarios\\Leo\\Mis Documentos\\Dropbox\\web2py\\gluon\\dal.py", line 8654, in __setattr__\n    raise SyntaxError(\'Object exists and cannot be redefined: %s\' % key)\nSyntaxError: Object exists and cannot be redefined: id\n'
p159
s.