(dp1
S'output'
p2
S"<class 'gluon.contrib.pg8000.errors.ProgrammingError'> ('ERROR', '42P01', 'no existe la relaci\\xc3\\xb3n \\xc2\\xabauth_permission\\xc2\\xbb')"
p3
sS'layer'
p4
S'/home/leo/Dropbox/web2py/applications/SEACAT_ingresos/models/menu.py'
p5
sS'code'
p6
S'# -*- coding: utf-8 -*-\n# this file is released under public domain and you can use without limitations\n\n#########################################################################\n## Customize your APP title, subtitle and menus here\n#########################################################################\n\n#response.logo = A(B(\'web\',SPAN(2),\'py\'),XML(\'&trade;&nbsp;\'),\n#                  _class="brand",_href="http://www.web2py.com/")\n#response.title = request.application.replace(\'_\',\' \').title()\n#response.subtitle = T(\'customize me!\')\n\n## read more at http://dev.w3.org/html5/markup/meta.name.html\n#response.meta.author = \'Your Name <you@example.com>\'\n#response.meta.description = \'a cool new app\'\n#response.meta.keywords = \'web2py, python, framework\'\n#response.meta.generator = \'Web2py Web Framework\'\n\n## your http://google.com/analytics id\nresponse.google_analytics_id = None\n\n#########################################################################\n## My Own APP Title, subtitle and menu!\n#########################################################################\nresponse.logo = A(IMG(_src=URL(\'static\', \'Logo_seacat_mini.png\'), \n                      _alt="Logo de SEACAT"), \n                  _class="brand", \n                  _href=URL(\'default\', \'index\'))\nresponse.title = \'SEACAT\'\nresponse.subtitle = \'v.0.0.1b\'\n\nresponse.meta.author = \'Leandro E. Colombo Vi\xc3\xb1a <colomboleandro@pioix.edu.ar>\'\nresponse.meta.description = \'Sistema de Inscripciones para el Colegio P\xc3\xado IX\'\nresponse.meta.keywords = \'Inscripciones, P\xc3\xado IX, Ingresantes, SEACAT\'\nresponse.meta.generator = \'Web2py Web Framework\'\n\n#########################################################################\n## this is the main application menu add/remove items as required\n#########################################################################\n\n## Top level Menu:\nresponse.menu = [\n                 [T(\'Home\'), False, URL(\'default\', \'index\'), []],\n                 [T(\'New\'), False, None, []],\n                 [T(\'View\'), False, None, []],\n                 [T(\'Help\'), False, URL(\'default\', \'help\'), []],\n]\n\n## EXAMPLES:\n#response.menu.insert(2, [T(\'TEST\'), False, None, []])\n#response.menu[2][3].insert(0, [T(\'test1\'), False, None, []])\n#response.menu[2][3].insert(1, [T(\'test2\'), False, None, []])\nif auth.has_permission(\'create new father\', db.auth_user):\n    response.menu[1][3].insert(0, [T("Father"), False, URL(\'new_father\')])\n\nif auth.has_permission(\'view users list\', db.auth_user):\n    response.menu[2][3].insert(0, [T("Users List"), False, URL(request.application, \'admin\', \'users_list\')])\n\nif auth.has_permission(\'view fathers list\', db.auth_user):\n    response.menu[2][3].insert(0, [T("Fathers List"), False, URL(\'fathers_list\')])\n\nif auth.has_permission(\'create new user\', db.auth_user):\n    response.menu[1][3].append([T("User"), False, URL(request.application, \'admin\', \'new_user\')])\n\nif auth.has_membership(\'root\'):\n    response.menu.insert(2, [SPAN(T("Admin"), _class=\'highlighted\'), False, None, [\n                                                       [T("Database"), False, URL(request.application, \'appadmin\', \'index\')],\n                                                       [T("Upload Image"), False, URL(request.application, \'admin\', \'upload_image\')],\n                                                       [T("Users"), False, URL(request.application, \'admin\', \'admin_users\')],\n                                                       [T("Users Groups"), False, URL(request.application, \'admin\', \'admin_user_groups\')],\n                                                       [T("Users Memberships"), False, URL(request.application, \'admin\', \'admin_user_memberships\')],\n                                                       [T("Users Permissions"), False, URL(request.application, \'admin\', \'admin_user_permissions\')],\n                                                       ]])\n\nDEVELOPMENT_MENU = False\n\n#########################################################################\n## provide shortcuts for development. remove in production\n#########################################################################\n\ndef _():\n    # shortcuts\n    app = request.application\n    ctr = request.controller\n    # useful links to internal and external resources\n    response.menu += [\n        (SPAN(\'web2py\', _class=\'highlighted\'), False, \'http://web2py.com\', [\n        (T(\'My Sites\'), False, URL(\'admin\', \'default\', \'site\')),\n        (T(\'This App\'), False, URL(\'admin\', \'default\', \'design/%s\' % app), [\n        (T(\'Controller\'), False,\n         URL(\n         \'admin\', \'default\', \'edit/%s/controllers/%s.py\' % (app, ctr))),\n        (T(\'View\'), False,\n         URL(\n         \'admin\', \'default\', \'edit/%s/views/%s\' % (app, response.view))),\n        (T(\'Layout\'), False,\n         URL(\n         \'admin\', \'default\', \'edit/%s/views/layout.html\' % app)),\n        (T(\'Stylesheet\'), False,\n         URL(\n         \'admin\', \'default\', \'edit/%s/static/css/web2py.css\' % app)),\n        (T(\'DB Model\'), False,\n         URL(\n         \'admin\', \'default\', \'edit/%s/models/db.py\' % app)),\n        (T(\'Menu Model\'), False,\n         URL(\n         \'admin\', \'default\', \'edit/%s/models/menu.py\' % app)),\n        (T(\'Database\'), False, URL(app, \'appadmin\', \'index\')),\n        (T(\'Errors\'), False, URL(\n         \'admin\', \'default\', \'errors/\' + app)),\n        (T(\'About\'), False, URL(\n         \'admin\', \'default\', \'about/\' + app)),\n        ]),\n            (\'web2py.com\', False, \'http://www.web2py.com\', [\n             (T(\'Download\'), False,\n              \'http://www.web2py.com/examples/default/download\'),\n             (T(\'Support\'), False,\n              \'http://www.web2py.com/examples/default/support\'),\n             (T(\'Demo\'), False, \'http://web2py.com/demo_admin\'),\n             (T(\'Quick Examples\'), False,\n              \'http://web2py.com/examples/default/examples\'),\n             (T(\'FAQ\'), False, \'http://web2py.com/AlterEgo\'),\n             (T(\'Videos\'), False,\n              \'http://www.web2py.com/examples/default/videos/\'),\n             (T(\'Free Applications\'),\n              False, \'http://web2py.com/appliances\'),\n             (T(\'Plugins\'), False, \'http://web2py.com/plugins\'),\n             (T(\'Layouts\'), False, \'http://web2py.com/layouts\'),\n             (T(\'Recipes\'), False, \'http://web2pyslices.com/\'),\n             (T(\'Semantic\'), False, \'http://web2py.com/semantic\'),\n             ]),\n            (T(\'Documentation\'), False, \'http://www.web2py.com/book\', [\n             (T(\'Preface\'), False,\n              \'http://www.web2py.com/book/default/chapter/00\'),\n             (T(\'Introduction\'), False,\n              \'http://www.web2py.com/book/default/chapter/01\'),\n             (T(\'Python\'), False,\n              \'http://www.web2py.com/book/default/chapter/02\'),\n             (T(\'Overview\'), False,\n              \'http://www.web2py.com/book/default/chapter/03\'),\n             (T(\'The Core\'), False,\n              \'http://www.web2py.com/book/default/chapter/04\'),\n             (T(\'The Views\'), False,\n              \'http://www.web2py.com/book/default/chapter/05\'),\n             (T(\'Database\'), False,\n              \'http://www.web2py.com/book/default/chapter/06\'),\n             (T(\'Forms and Validators\'), False,\n              \'http://www.web2py.com/book/default/chapter/07\'),\n             (T(\'Email and SMS\'), False,\n              \'http://www.web2py.com/book/default/chapter/08\'),\n             (T(\'Access Control\'), False,\n              \'http://www.web2py.com/book/default/chapter/09\'),\n             (T(\'Services\'), False,\n              \'http://www.web2py.com/book/default/chapter/10\'),\n             (T(\'Ajax Recipes\'), False,\n              \'http://www.web2py.com/book/default/chapter/11\'),\n             (T(\'Components and Plugins\'), False,\n              \'http://www.web2py.com/book/default/chapter/12\'),\n             (T(\'Deployment Recipes\'), False,\n              \'http://www.web2py.com/book/default/chapter/13\'),\n             (T(\'Other Recipes\'), False,\n              \'http://www.web2py.com/book/default/chapter/14\'),\n             (T(\'Buy this book\'), False,\n              \'http://stores.lulu.com/web2py\'),\n             ]),\n            (T(\'Community\'), False, None, [\n             (T(\'Groups\'), False,\n              \'http://www.web2py.com/examples/default/usergroups\'),\n                        (T(\'Twitter\'), False, \'http://twitter.com/web2py\'),\n                        (T(\'Live Chat\'), False,\n                         \'http://webchat.freenode.net/?channels=web2py\'),\n                        ]),\n                (T(\'Plugins\'), False, None, [\n                        (\'plugin_wiki\', False,\n                         \'http://web2py.com/examples/default/download\'),\n                        (T(\'Other Plugins\'), False,\n                         \'http://web2py.com/plugins\'),\n                        (T(\'Layout Plugins\'),\n                         False, \'http://web2py.com/layouts\'),\n                        ])\n                ]\n         )]\n\nif DEVELOPMENT_MENU: _()\n\n#if "auth" in locals(): auth.wikimenu()\n'
p7
sS'snapshot'
p8
(dp9
S'exception'
p10
(dp11
S'__module__'
p12
S"'gluon.contrib.pg8000.errors'"
p13
sS'__getslice__'
p14
S"<method-wrapper '__getslice__' of ProgrammingError object>"
p15
sS'__str__'
p16
S"<method-wrapper '__str__' of ProgrammingError object>"
p17
sS'__reduce__'
p18
S'<built-in method __reduce__ of ProgrammingError object>'
p19
sS'__dict__'
p20
S'{}'
p21
sS'__sizeof__'
p22
S'<built-in method __sizeof__ of ProgrammingError object>'
p23
sS'__weakref__'
p24
S'None'
p25
sS'__init__'
p26
S"<method-wrapper '__init__' of ProgrammingError object>"
p27
sS'__setattr__'
p28
S"<method-wrapper '__setattr__' of ProgrammingError object>"
p29
sS'__reduce_ex__'
p30
S'<built-in method __reduce_ex__ of ProgrammingError object>'
p31
sS'__new__'
p32
S'<built-in method __new__ of type object>'
p33
sS'__format__'
p34
S'<built-in method __format__ of ProgrammingError object>'
p35
sS'__class__'
p36
S"<class 'gluon.contrib.pg8000.errors.ProgrammingError'>"
p37
sS'__doc__'
p38
S'None'
p39
sS'__getitem__'
p40
S"<method-wrapper '__getitem__' of ProgrammingError object>"
p41
sS'__setstate__'
p42
S'<built-in method __setstate__ of ProgrammingError object>'
p43
sS'__getattribute__'
p44
S"<method-wrapper '__getattribute__' of ProgrammingError object>"
p45
sS'args'
p46
S"('ERROR', '42P01', 'no existe la relaci\\xc3\\xb3n \\xc2\\xabauth_permission\\xc2\\xbb')"
p47
sS'__subclasshook__'
p48
S'<built-in method __subclasshook__ of type object>'
p49
sS'__unicode__'
p50
S'<built-in method __unicode__ of ProgrammingError object>'
p51
sS'__delattr__'
p52
S"<method-wrapper '__delattr__' of ProgrammingError object>"
p53
sS'__repr__'
p54
S"<method-wrapper '__repr__' of ProgrammingError object>"
p55
sS'__hash__'
p56
S"<method-wrapper '__hash__' of ProgrammingError object>"
p57
ssS'evalue'
p58
S"('ERROR', '42P01', 'no existe la relaci\\xc3\\xb3n \\xc2\\xabauth_permission\\xc2\\xbb')"
p59
sS'request'
p60
cgluon.html
XML_unpickle
p61
(S's\xdfe\x00\x00<div><table><tr><td style="font-weight:bold;vertical-align:top;">ajax</td><td style="vertical-align:top;">:</td><td><div>False</div></td></tr><tr><td style="font-weight:bold;vertical-align:top;">application</td><td style="vertical-align:top;">:</td><td><div>SEACAT_ingresos</div></td></tr><tr><td style="font-weight:bold;vertical-align:top;">args</td><td style="vertical-align:top;">:</td><td><div><table></table></div></td></tr><tr><td style="font-weight:bold;vertical-align:top;">cid</td><td style="vertical-align:top;">:</td><td><div>None</div></td></tr><tr><td style="font-weight:bold;vertical-align:top;">client</td><td style="vertical-align:top;">:</td><td><div>127.0.0.1</div></td></tr><tr><td style="font-weight:bold;vertical-align:top;">controller</td><td style="vertical-align:top;">:</td><td><div>admin</div></td></tr><tr><td style="font-weight:bold;vertical-align:top;">cookies</td><td style="vertical-align:top;">:</td><td><div><table><tr><td style="font-weight:bold;vertical-align:top;">session_id_admin</td><td style="vertical-align:top;">:</td><td><div>127.0.0.1-890a02b4-d81a-452d-b5f4-fe4e888bcdeb<table><tr><td style="font-weight:bold;vertical-align:top;">comment</td><td style="vertical-align:top;">:</td><td><div></div></td></tr><tr><td style="font-weight:bold;vertical-align:top;">domain</td><td style="vertical-align:top;">:</td><td><div></div></td></tr><tr><td style="font-weight:bold;vertical-align:top;">expires</td><td style="vertical-align:top;">:</td><td><div></div></td></tr><tr><td style="font-weight:bold;vertical-align:top;">httponly</td><td style="vertical-align:top;">:</td><td><div></div></td></tr><tr><td style="font-weight:bold;vertical-align:top;">max-age</td><td style="vertical-align:top;">:</td><td><div></div></td></tr><tr><td style="font-weight:bold;vertical-align:top;">path</td><td style="vertical-align:top;">:</td><td><div></div></td></tr><tr><td style="font-weight:bold;vertical-align:top;">secure</td><td style="vertical-align:top;">:</td><td><div></div></td></tr><tr><td style="font-weight:bold;vertical-align:top;">version</td><td style="vertical-align:top;">:</td><td><div></div></td></tr></table></div></td></tr><tr><td style="font-weight:bold;vertical-align:top;">session_id_isbp</td><td style="vertical-align:top;">:</td><td><div>127.0.0.1-f7d6e8bc-faca-433a-87b3-3d7e74279bdd<table><tr><td style="font-weight:bold;vertical-align:top;">comment</td><td style="vertical-align:top;">:</td><td><div></div></td></tr><tr><td style="font-weight:bold;vertical-align:top;">domain</td><td style="vertical-align:top;">:</td><td><div></div></td></tr><tr><td style="font-weight:bold;vertical-align:top;">expires</td><td style="vertical-align:top;">:</td><td><div></div></td></tr><tr><td style="font-weight:bold;vertical-align:top;">httponly</td><td style="vertical-align:top;">:</td><td><div></div></td></tr><tr><td style="font-weight:bold;vertical-align:top;">max-age</td><td style="vertical-align:top;">:</td><td><div></div></td></tr><tr><td style="font-weight:bold;vertical-align:top;">path</td><td style="vertical-align:top;">:</td><td><div></div></td></tr><tr><td style="font-weight:bold;vertical-align:top;">secure</td><td style="vertical-align:top;">:</td><td><div></div></td></tr><tr><td style="font-weight:bold;vertical-align:top;">version</td><td style="vertical-align:top;">:</td><td><div></div></td></tr></table></div></td></tr><tr><td style="font-weight:bold;vertical-align:top;">session_id_pgday</td><td style="vertical-align:top;">:</td><td><div>127.0.0.1-4b839bf6-587f-4a54-9d21-64fdbe2253ae<table><tr><td style="font-weight:bold;vertical-align:top;">comment</td><td style="vertical-align:top;">:</td><td><div></div></td></tr><tr><td style="font-weight:bold;vertical-align:top;">domain</td><td style="vertical-align:top;">:</td><td><div></div></td></tr><tr><td style="font-weight:bold;vertical-align:top;">expires</td><td style="vertical-align:top;">:</td><td><div></div></td></tr><tr><td style="font-weight:bold;vertical-align:top;">httponly</td><td style="vertical-align:top;">:</td><td><div></div></td></tr><tr><td style="font-weight:bold;vertical-align:top;">max-age</td><td style="vertical-align:top;">:</td><td><div></div></td></tr><tr><td style="font-weight:bold;vertical-align:top;">path</td><td style="vertical-align:top;">:</td><td><div></div></td></tr><tr><td style="font-weight:bold;vertical-align:top;">secure</td><td style="vertical-align:top;">:</td><td><div></div></td></tr><tr><td style="font-weight:bold;vertical-align:top;">version</td><td style="vertical-align:top;">:</td><td><div></div></td></tr></table></div></td></tr><tr><td style="font-weight:bold;vertical-align:top;">session_id_seacat_ingresos</td><td style="vertical-align:top;">:</td><td><div>127.0.0.1-a2589693-9f4a-40df-9f14-2fe733002bfd<table><tr><td style="font-weight:bold;vertical-align:top;">comment</td><td style="vertical-align:top;">:</td><td><div></div></td></tr><tr><td style="font-weight:bold;vertical-align:top;">domain</td><td style="vertical-align:top;">:</td><td><div></div></td></tr><tr><td style="font-weight:bold;vertical-align:top;">expires</td><td style="vertical-align:top;">:</td><td><div></div></td></tr><tr><td style="font-weight:bold;vertical-align:top;">httponly</td><td style="vertical-align:top;">:</td><td><div></div></td></tr><tr><td style="font-weight:bold;vertical-align:top;">max-age</td><td style="vertical-align:top;">:</td><td><div></div></td></tr><tr><td style="font-weight:bold;vertical-align:top;">path</td><td style="vertical-align:top;">:</td><td><div></div></td></tr><tr><td style="font-weight:bold;vertical-align:top;">secure</td><td style="vertical-align:top;">:</td><td><div></div></td></tr><tr><td style="font-weight:bold;vertical-align:top;">version</td><td style="vertical-align:top;">:</td><td><div></div></td></tr></table></div></td></tr><tr><td style="font-weight:bold;vertical-align:top;">session_id_welcome</td><td style="vertical-align:top;">:</td><td><div>127.0.0.1-e036a97f-f1cb-4429-807f-e6a9668cde90<table><tr><td style="font-weight:bold;vertical-align:top;">comment</td><td style="vertical-align:top;">:</td><td><div></div></td></tr><tr><td style="font-weight:bold;vertical-align:top;">domain</td><td style="vertical-align:top;">:</td><td><div></div></td></tr><tr><td style="font-weight:bold;vertical-align:top;">expires</td><td style="vertical-align:top;">:</td><td><div></div></td></tr><tr><td style="font-weight:bold;vertical-align:top;">httponly</td><td style="vertical-align:top;">:</td><td><div></div></td></tr><tr><td style="font-weight:bold;vertical-align:top;">max-age</td><td style="vertical-align:top;">:</td><td><div></div></td></tr><tr><td style="font-weight:bold;vertical-align:top;">path</td><td style="vertical-align:top;">:</td><td><div></div></td></tr><tr><td style="font-weight:bold;vertical-align:top;">secure</td><td style="vertical-align:top;">:</td><td><div></div></td></tr><tr><td style="font-weight:bold;vertical-align:top;">version</td><td style="vertical-align:top;">:</td><td><div></div></td></tr></table></div></td></tr></table></div></td></tr><tr><td style="font-weight:bold;vertical-align:top;">env</td><td style="vertical-align:top;">:</td><td><div><table><tr><td style="font-weight:bold;vertical-align:top;">HTTP_ACCEPT</td><td style="vertical-align:top;">:</td><td><div>text/html,application/xhtml+xml,application/xml;q=0.9,*/*;q=0.8</div></td></tr><tr><td style="font-weight:bold;vertical-align:top;">HTTP_ACCEPT_ENCODING</td><td style="vertical-align:top;">:</td><td><div>gzip,deflate,sdch</div></td></tr><tr><td style="font-weight:bold;vertical-align:top;">HTTP_ACCEPT_LANGUAGE</td><td style="vertical-align:top;">:</td><td><div>es,es-419;q=0.8,en-US;q=0.6,en;q=0.4</div></td></tr><tr><td style="font-weight:bold;vertical-align:top;">HTTP_CACHE_CONTROL</td><td style="vertical-align:top;">:</td><td><div>max-age=0</div></td></tr><tr><td style="font-weight:bold;vertical-align:top;">HTTP_CONNECTION</td><td style="vertical-align:top;">:</td><td><div>keep-alive</div></td></tr><tr><td style="font-weight:bold;vertical-align:top;">HTTP_COOKIE</td><td style="vertical-align:top;">:</td><td><div>session_id_isbp=127.0.0.1-f7d6e8bc-faca-433a-87b3-3d7e74279bdd; __utma=96992031.17915714.1390050310.1390050310.1390057708.2; __utmc=96992031; __utmz=96992031.1390050310.1.1.utmcsr=(direct)|utmccn=(direct)|utmcmd=(none); session_id_pgday=127.0.0.1-4b839bf6-587f-4a54-9d21-64fdbe2253ae; session_id_welcome=127.0.0.1-e036a97f-f1cb-4429-807f-e6a9668cde90; session_id_admin=127.0.0.1-890a02b4-d81a-452d-b5f4-fe4e888bcdeb; session_id_seacat_ingresos=127.0.0.1-a2589693-9f4a-40df-9f14-2fe733002bfd</div></td></tr><tr><td style="font-weight:bold;vertical-align:top;">HTTP_HOST</td><td style="vertical-align:top;">:</td><td><div>127.0.0.1:8000</div></td></tr><tr><td style="font-weight:bold;vertical-align:top;">HTTP_USER_AGENT</td><td style="vertical-align:top;">:</td><td><div>Mozilla/5.0 (X11; Linux x86_64) AppleWebKit/537.36 (KHTML, like Gecko) Chrome/28.0.1500.95 Safari/537.36</div></td></tr><tr><td style="font-weight:bold;vertical-align:top;">PATH_INFO</td><td style="vertical-align:top;">:</td><td><div>/SEACAT_ingresos/admin/index</div></td></tr><tr><td style="font-weight:bold;vertical-align:top;">QUERY_STRING</td><td style="vertical-align:top;">:</td><td><div></div></td></tr><tr><td style="font-weight:bold;vertical-align:top;">REMOTE_ADDR</td><td style="vertical-align:top;">:</td><td><div>127.0.0.1</div></td></tr><tr><td style="font-weight:bold;vertical-align:top;">REMOTE_PORT</td><td style="vertical-align:top;">:</td><td><div>54105</div></td></tr><tr><td style="font-weight:bold;vertical-align:top;">REQUEST_METHOD</td><td style="vertical-align:top;">:</td><td><div>GET</div></td></tr><tr><td style="font-weight:bold;vertical-align:top;">SCRIPT_NAME</td><td style="vertical-align:top;">:</td><td><div></div></td></tr><tr><td style="font-weight:bold;vertical-align:top;">SERVER_NAME</td><td style="vertical-align:top;">:</td><td><div>larrea-lmde</div></td></tr><tr><td style="font-weight:bold;vertical-align:top;">SERVER_PORT</td><td style="vertical-align:top;">:</td><td><div>8000</div></td></tr><tr><td style="font-weight:bold;vertical-align:top;">SERVER_PROTOCOL</td><td style="vertical-align:top;">:</td><td><div>HTTP/1.1</div></td></tr><tr><td style="font-weight:bold;vertical-align:top;">SERVER_SOFTWARE</td><td style="vertical-align:top;">:</td><td><div>Rocket 1.2.6</div></td></tr><tr><td style="font-weight:bold;vertical-align:top;">app_folders</td><td style="vertical-align:top;">:</td><td><div>set([&#x27;/home/leo/Dropbox/web2py/applications/SEACAT_ingresos/&#x27;, &#x27;/home/leo/Dropbox/web2py/applications/admin/&#x27;, &#x27;/home/leo/Dropbox/web2py/applications/welcome/&#x27;])</div></td></tr><tr><td style="font-weight:bold;vertical-align:top;">applications_parent</td><td style="vertical-align:top;">:</td><td><div>/home/leo/Dropbox/web2py</div></td></tr><tr><td style="font-weight:bold;vertical-align:top;">cmd_args</td><td style="vertical-align:top;">:</td><td><div><table></table></div></td></tr><tr><td style="font-weight:bold;vertical-align:top;">cmd_options</td><td style="vertical-align:top;">:</td><td><div>&lt;Values at 0x1f5b1b8: {&#x27;verbose&#x27;: False, &#x27;ip&#x27;: &#x27;127.0.0.1&#x27;, &#x27;debuglevel&#x27;: 30, &#x27;with_scheduler&#x27;: False, &#x27;ips&#x27;: [&#x27;127.0.1.1&#x27;], &#x27;shutdown_timeout&#x27;: 5, &#x27;taskbar&#x27;: False, &#x27;with_coverage&#x27;: False, &#x27;port&#x27;: 8000, &#x27;maxthreads&#x27;: None, &#x27;softcron&#x27;: False, &#x27;server_name&#x27;: &#x27;larrea-lmde&#x27;, &#x27;bpython&#x27;: False, &#x27;nogui&#x27;: False, &#x27;pid_filename&#x27;: &#x27;httpserver.pid&#x27;, &#x27;extcron&#x27;: False, &#x27;runcron&#x27;: False, &#x27;run_system_tests&#x27;: False, &#x27;test&#x27;: None, &#x27;folder&#x27;: &#x27;/home/leo/Dropbox/web2py&#x27;, &#x27;config&#x27;: &#x27;&#x27;, &#x27;minthreads&#x27;: None, &#x27;shell&#x27;: None, &#x27;run&#x27;: &#x27;&#x27;, &#x27;log_filename&#x27;: &#x27;httpserver.log&#x27;, &#x27;profiler_dir&#x27;: None, &#x27;args&#x27;: [&#x27;&#x27;], &#x27;socket_timeout&#x27;: 5, &#x27;ssl_ca_certificate&#x27;: None, &#x27;scheduler&#x27;: None, &#x27;interfaces&#x27;: None, &#x27;ssl_private_key&#x27;: &#x27;&#x27;, &#x27;scheduler_groups&#x27;: None, &#x27;password&#x27;: &#x27;&lt;ask&gt;&#x27;, &#x27;request_queue_size&#x27;: 5, &#x27;ssl_certificate&#x27;: &#x27;&#x27;, &#x27;cronjob&#x27;: False, &#x27;numthreads&#x27;: None, &#x27;quiet&#x27;: False, &#x27;import_models&#x27;: False, &#x27;timeout&#x27;: 10, &#x27;plain&#x27;: False, &#x27;nobanner&#x27;: False}&gt;</div></td></tr><tr><td style="font-weight:bold;vertical-align:top;">db_sessions</td><td style="vertical-align:top;">:</td><td><div>set([])</div></td></tr><tr><td style="font-weight:bold;vertical-align:top;">debugging</td><td style="vertical-align:top;">:</td><td><div>True</div></td></tr><tr><td style="font-weight:bold;vertical-align:top;">gluon_parent</td><td style="vertical-align:top;">:</td><td><div>/home/leo/Dropbox/web2py</div></td></tr><tr><td style="font-weight:bold;vertical-align:top;">http_accept</td><td style="vertical-align:top;">:</td><td><div>text/html,application/xhtml+xml,application/xml;q=0.9,*/*;q=0.8</div></td></tr><tr><td style="font-weight:bold;vertical-align:top;">http_accept_encoding</td><td style="vertical-align:top;">:</td><td><div>gzip,deflate,sdch</div></td></tr><tr><td style="font-weight:bold;vertical-align:top;">http_accept_language</td><td style="vertical-align:top;">:</td><td><div>es,es-419;q=0.8,en-US;q=0.6,en;q=0.4</div></td></tr><tr><td style="font-weight:bold;vertical-align:top;">http_cache_control</td><td style="vertical-align:top;">:</td><td><div>max-age=0</div></td></tr><tr><td style="font-weight:bold;vertical-align:top;">http_connection</td><td style="vertical-align:top;">:</td><td><div>keep-alive</div></td></tr><tr><td style="font-weight:bold;vertical-align:top;">http_cookie</td><td style="vertical-align:top;">:</td><td><div>session_id_isbp=127.0.0.1-f7d6e8bc-faca-433a-87b3-3d7e74279bdd; __utma=96992031.17915714.1390050310.1390050310.1390057708.2; __utmc=96992031; __utmz=96992031.1390050310.1.1.utmcsr=(direct)|utmccn=(direct)|utmcmd=(none); session_id_pgday=127.0.0.1-4b839bf6-587f-4a54-9d21-64fdbe2253ae; session_id_welcome=127.0.0.1-e036a97f-f1cb-4429-807f-e6a9668cde90; session_id_admin=127.0.0.1-890a02b4-d81a-452d-b5f4-fe4e888bcdeb; session_id_seacat_ingresos=127.0.0.1-a2589693-9f4a-40df-9f14-2fe733002bfd</div></td></tr><tr><td style="font-weight:bold;vertical-align:top;">http_host</td><td style="vertical-align:top;">:</td><td><div>127.0.0.1:8000</div></td></tr><tr><td style="font-weight:bold;vertical-align:top;">http_user_agent</td><td style="vertical-align:top;">:</td><td><div>Mozilla/5.0 (X11; Linux x86_64) AppleWebKit/537.36 (KHTML, like Gecko) Chrome/28.0.1500.95 Safari/537.36</div></td></tr><tr><td style="font-weight:bold;vertical-align:top;">is_jython</td><td style="vertical-align:top;">:</td><td><div>False</div></td></tr><tr><td style="font-weight:bold;vertical-align:top;">is_pypy</td><td style="vertical-align:top;">:</td><td><div>False</div></td></tr><tr><td style="font-weight:bold;vertical-align:top;">is_source</td><td style="vertical-align:top;">:</td><td><div>True</div></td></tr><tr><td style="font-weight:bold;vertical-align:top;">local_hosts</td><td style="vertical-align:top;">:</td><td><div><table><tr><td><div>127.0.1.1</div></td></tr><tr><td><div>::1</div></td></tr><tr><td><div>larrea-lmde</div></td></tr><tr><td><div>::ffff:127.0.0.1</div></td></tr><tr><td><div>127.0.0.1</div></td></tr></table></div></td></tr><tr><td style="font-weight:bold;vertical-align:top;">path_info</td><td style="vertical-align:top;">:</td><td><div>/SEACAT_ingresos/admin/index</div></td></tr><tr><td style="font-weight:bold;vertical-align:top;">query_string</td><td style="vertical-align:top;">:</td><td><div></div></td></tr><tr><td style="font-weight:bold;vertical-align:top;">remote_addr</td><td style="vertical-align:top;">:</td><td><div>127.0.0.1</div></td></tr><tr><td style="font-weight:bold;vertical-align:top;">remote_port</td><td style="vertical-align:top;">:</td><td><div>54105</div></td></tr><tr><td style="font-weight:bold;vertical-align:top;">request_method</td><td style="vertical-align:top;">:</td><td><div>GET</div></td></tr><tr><td style="font-weight:bold;vertical-align:top;">request_uri</td><td style="vertical-align:top;">:</td><td><div>/SEACAT_ingresos/admin/index</div></td></tr><tr><td style="font-weight:bold;vertical-align:top;">script_name</td><td style="vertical-align:top;">:</td><td><div></div></td></tr><tr><td style="font-weight:bold;vertical-align:top;">server_name</td><td style="vertical-align:top;">:</td><td><div>larrea-lmde</div></td></tr><tr><td style="font-weight:bold;vertical-align:top;">server_port</td><td style="vertical-align:top;">:</td><td><div>8000</div></td></tr><tr><td style="font-weight:bold;vertical-align:top;">server_protocol</td><td style="vertical-align:top;">:</td><td><div>HTTP/1.1</div></td></tr><tr><td style="font-weight:bold;vertical-align:top;">server_software</td><td style="vertical-align:top;">:</td><td><div>Rocket 1.2.6</div></td></tr><tr><td style="font-weight:bold;vertical-align:top;">web2py_path</td><td style="vertical-align:top;">:</td><td><div>/home/leo/Dropbox/web2py</div></td></tr><tr><td style="font-weight:bold;vertical-align:top;">web2py_version</td><td style="vertical-align:top;">:</td><td><div>2.8.2-stable+timestamp.2013.11.28.13.54.07</div></td></tr><tr><td style="font-weight:bold;vertical-align:top;">wsgi.errors</td><td style="vertical-align:top;">:</td><td><div>&lt;open file &#x27;&lt;stderr&gt;&#x27;, mode &#x27;w&#x27; at 0x7fe2536a01e0&gt;</div></td></tr><tr><td style="font-weight:bold;vertical-align:top;">wsgi.file_wrapper</td><td style="vertical-align:top;">:</td><td><div>&lt;class wsgiref.util.FileWrapper at 0x1ed1050&gt;</div></td></tr><tr><td style="font-weight:bold;vertical-align:top;">wsgi.input</td><td style="vertical-align:top;">:</td><td><div>&lt;socket._fileobject object at 0x7fe24032d450&gt;</div></td></tr><tr><td style="font-weight:bold;vertical-align:top;">wsgi.multiprocess</td><td style="vertical-align:top;">:</td><td><div>False</div></td></tr><tr><td style="font-weight:bold;vertical-align:top;">wsgi.multithread</td><td style="vertical-align:top;">:</td><td><div>True</div></td></tr><tr><td style="font-weight:bold;vertical-align:top;">wsgi.run_once</td><td style="vertical-align:top;">:</td><td><div>False</div></td></tr><tr><td style="font-weight:bold;vertical-align:top;">wsgi.url_scheme</td><td style="vertical-align:top;">:</td><td><div>http</div></td></tr><tr><td style="font-weight:bold;vertical-align:top;">wsgi.version</td><td style="vertical-align:top;">:</td><td><div><table><tr><td><div>1</div></td></tr><tr><td><div>0</div></td></tr></table></div></td></tr><tr><td style="font-weight:bold;vertical-align:top;">wsgi_errors</td><td style="vertical-align:top;">:</td><td><div>&lt;open file &#x27;&lt;stderr&gt;&#x27;, mode &#x27;w&#x27; at 0x7fe2536a01e0&gt;</div></td></tr><tr><td style="font-weight:bold;vertical-align:top;">wsgi_file_wrapper</td><td style="vertical-align:top;">:</td><td><div>&lt;class wsgiref.util.FileWrapper at 0x1ed1050&gt;</div></td></tr><tr><td style="font-weight:bold;vertical-align:top;">wsgi_input</td><td style="vertical-align:top;">:</td><td><div>&lt;socket._fileobject object at 0x7fe24032d450&gt;</div></td></tr><tr><td style="font-weight:bold;vertical-align:top;">wsgi_multiprocess</td><td style="vertical-align:top;">:</td><td><div>False</div></td></tr><tr><td style="font-weight:bold;vertical-align:top;">wsgi_multithread</td><td style="vertical-align:top;">:</td><td><div>True</div></td></tr><tr><td style="font-weight:bold;vertical-align:top;">wsgi_run_once</td><td style="vertical-align:top;">:</td><td><div>False</div></td></tr><tr><td style="font-weight:bold;vertical-align:top;">wsgi_url_scheme</td><td style="vertical-align:top;">:</td><td><div>http</div></td></tr><tr><td style="font-weight:bold;vertical-align:top;">wsgi_version</td><td style="vertical-align:top;">:</td><td><div><table><tr><td><div>1</div></td></tr><tr><td><div>0</div></td></tr></table></div></td></tr></table></div></td></tr><tr><td style="font-weight:bold;vertical-align:top;">extension</td><td style="vertical-align:top;">:</td><td><div>html</div></td></tr><tr><td style="font-weight:bold;vertical-align:top;">folder</td><td style="vertical-align:top;">:</td><td><div>/home/leo/Dropbox/web2py/applications/SEACAT_ingresos/</div></td></tr><tr><td style="font-weight:bold;vertical-align:top;">function</td><td style="vertical-align:top;">:</td><td><div>index</div></td></tr><tr><td style="font-weight:bold;vertical-align:top;">global_settings</td><td style="vertical-align:top;">:</td><td><div><table><tr><td style="font-weight:bold;vertical-align:top;">app_folders</td><td style="vertical-align:top;">:</td><td><div>set([&#x27;/home/leo/Dropbox/web2py/applications/SEACAT_ingresos/&#x27;, &#x27;/home/leo/Dropbox/web2py/applications/admin/&#x27;, &#x27;/home/leo/Dropbox/web2py/applications/welcome/&#x27;])</div></td></tr><tr><td style="font-weight:bold;vertical-align:top;">applications_parent</td><td style="vertical-align:top;">:</td><td><div>/home/leo/Dropbox/web2py</div></td></tr><tr><td style="font-weight:bold;vertical-align:top;">cmd_args</td><td style="vertical-align:top;">:</td><td><div><table></table></div></td></tr><tr><td style="font-weight:bold;vertical-align:top;">cmd_options</td><td style="vertical-align:top;">:</td><td><div>&lt;Values at 0x1f5b1b8: {&#x27;verbose&#x27;: False, &#x27;ip&#x27;: &#x27;127.0.0.1&#x27;, &#x27;debuglevel&#x27;: 30, &#x27;with_scheduler&#x27;: False, &#x27;ips&#x27;: [&#x27;127.0.1.1&#x27;], &#x27;shutdown_timeout&#x27;: 5, &#x27;taskbar&#x27;: False, &#x27;with_coverage&#x27;: False, &#x27;port&#x27;: 8000, &#x27;maxthreads&#x27;: None, &#x27;softcron&#x27;: False, &#x27;server_name&#x27;: &#x27;larrea-lmde&#x27;, &#x27;bpython&#x27;: False, &#x27;nogui&#x27;: False, &#x27;pid_filename&#x27;: &#x27;httpserver.pid&#x27;, &#x27;extcron&#x27;: False, &#x27;runcron&#x27;: False, &#x27;run_system_tests&#x27;: False, &#x27;test&#x27;: None, &#x27;folder&#x27;: &#x27;/home/leo/Dropbox/web2py&#x27;, &#x27;config&#x27;: &#x27;&#x27;, &#x27;minthreads&#x27;: None, &#x27;shell&#x27;: None, &#x27;run&#x27;: &#x27;&#x27;, &#x27;log_filename&#x27;: &#x27;httpserver.log&#x27;, &#x27;profiler_dir&#x27;: None, &#x27;args&#x27;: [&#x27;&#x27;], &#x27;socket_timeout&#x27;: 5, &#x27;ssl_ca_certificate&#x27;: None, &#x27;scheduler&#x27;: None, &#x27;interfaces&#x27;: None, &#x27;ssl_private_key&#x27;: &#x27;&#x27;, &#x27;scheduler_groups&#x27;: None, &#x27;password&#x27;: &#x27;&lt;ask&gt;&#x27;, &#x27;request_queue_size&#x27;: 5, &#x27;ssl_certificate&#x27;: &#x27;&#x27;, &#x27;cronjob&#x27;: False, &#x27;numthreads&#x27;: None, &#x27;quiet&#x27;: False, &#x27;import_models&#x27;: False, &#x27;timeout&#x27;: 10, &#x27;plain&#x27;: False, &#x27;nobanner&#x27;: False}&gt;</div></td></tr><tr><td style="font-weight:bold;vertical-align:top;">db_sessions</td><td style="vertical-align:top;">:</td><td><div>set([])</div></td></tr><tr><td style="font-weight:bold;vertical-align:top;">debugging</td><td style="vertical-align:top;">:</td><td><div>True</div></td></tr><tr><td style="font-weight:bold;vertical-align:top;">gluon_parent</td><td style="vertical-align:top;">:</td><td><div>/home/leo/Dropbox/web2py</div></td></tr><tr><td style="font-weight:bold;vertical-align:top;">is_jython</td><td style="vertical-align:top;">:</td><td><div>False</div></td></tr><tr><td style="font-weight:bold;vertical-align:top;">is_pypy</td><td style="vertical-align:top;">:</td><td><div>False</div></td></tr><tr><td style="font-weight:bold;vertical-align:top;">is_source</td><td style="vertical-align:top;">:</td><td><div>True</div></td></tr><tr><td style="font-weight:bold;vertical-align:top;">local_hosts</td><td style="vertical-align:top;">:</td><td><div><table><tr><td><div>127.0.1.1</div></td></tr><tr><td><div>::1</div></td></tr><tr><td><div>larrea-lmde</div></td></tr><tr><td><div>::ffff:127.0.0.1</div></td></tr><tr><td><div>127.0.0.1</div></td></tr></table></div></td></tr><tr><td style="font-weight:bold;vertical-align:top;">web2py_version</td><td style="vertical-align:top;">:</td><td><div>2.8.2-stable+timestamp.2013.11.28.13.54.07</div></td></tr></table></div></td></tr><tr><td style="font-weight:bold;vertical-align:top;">is_https</td><td style="vertical-align:top;">:</td><td><div>False</div></td></tr><tr><td style="font-weight:bold;vertical-align:top;">is_local</td><td style="vertical-align:top;">:</td><td><div>True</div></td></tr><tr><td style="font-weight:bold;vertical-align:top;">is_restful</td><td style="vertical-align:top;">:</td><td><div>False</div></td></tr><tr><td style="font-weight:bold;vertical-align:top;">now</td><td style="vertical-align:top;">:</td><td><div>datetime.datetime(2014, 1, 21, 20, 52, 10, 292128)</div></td></tr><tr><td style="font-weight:bold;vertical-align:top;">raw_args</td><td style="vertical-align:top;">:</td><td><div></div></td></tr><tr><td style="font-weight:bold;vertical-align:top;">raw_extension</td><td style="vertical-align:top;">:</td><td><div>None</div></td></tr><tr><td style="font-weight:bold;vertical-align:top;">url</td><td style="vertical-align:top;">:</td><td><div>/SEACAT_ingresos/admin/index</div></td></tr><tr><td style="font-weight:bold;vertical-align:top;">utcnow</td><td style="vertical-align:top;">:</td><td><div>datetime.datetime(2014, 1, 21, 23, 52, 10, 292156)</div></td></tr><tr><td style="font-weight:bold;vertical-align:top;">uuid</td><td style="vertical-align:top;">:</td><td><div>SEACAT_ingresos/127.0.0.1.2014-01-21.20-52-10.7bbb9445-1f11-4f7c-9de2-946010fa717d</div></td></tr><tr><td style="font-weight:bold;vertical-align:top;">wsgi</td><td style="vertical-align:top;">:</td><td><div>&lt;gluon.main.LazyWSGI object at 0x7fe2342dc7d0&gt;</div></td></tr></table></div>'
tRp62
sS'frames'
p63
(lp64
(dp65
S'file'
p66
S'/home/leo/Dropbox/web2py/gluon/restricted.py'
p67
sS'dump'
p68
(dp69
S'environment'
p70
S"{'A': <class 'gluon.html.A'>, 'ANY_OF': <class 'gluon.validators.ANY_OF'>, 'Auth': <class 'gluon.tools.Auth'>, 'B': <class 'gluon.html.B'>, 'BEAUTIFY': <class 'gluon.html.BEAUTIFY'>, 'BODY': <class 'gluon.html.BODY'>, 'BR': <class 'gluon.html.BR'>, 'BUTTON': <class 'gluon.html.BUTTON'>, 'CAT': <class 'gluon.html.CAT'>, 'CENTER': <class 'gluon.html.CENTER'>, ...}"
p71
sS'ccode'
p72
S'<code object <module> at 0x7fe21c499c30, file "/...cations/SEACAT_ingresos/models/menu.py", line 20>'
p73
ssS'lnum'
p74
I217
sS'lines'
p75
(dp76
I212
S'    try:'
p77
sI213
S'        if isinstance(code, types.CodeType):'
p78
sI214
S'            ccode = code'
p79
sI215
S'        else:'
p80
sI216
S'            ccode = compile2(code, layer)'
p81
sI217
S'        exec ccode in environment'
p82
sI218
S'    except HTTP:'
p83
sI219
S'        raise'
p84
sI220
S'    except RestrictedError:'
p85
sI221
S'        # do not encapsulate (obfuscate) the original RestrictedError'
p86
ssS'call'
p87
S'(code=\'# -*- coding: utf-8 -*-\\n# this file is released ...NU: _()\\n\\n#if "auth" in locals(): auth.wikimenu()\\n\', environment={\'A\': <class \'gluon.html.A\'>, \'ANY_OF\': <class \'gluon.validators.ANY_OF\'>, \'Auth\': <class \'gluon.tools.Auth\'>, \'B\': <class \'gluon.html.B\'>, \'BEAUTIFY\': <class \'gluon.html.BEAUTIFY\'>, \'BODY\': <class \'gluon.html.BODY\'>, \'BR\': <class \'gluon.html.BR\'>, \'BUTTON\': <class \'gluon.html.BUTTON\'>, \'CAT\': <class \'gluon.html.CAT\'>, \'CENTER\': <class \'gluon.html.CENTER\'>, ...}, layer=\'/home/leo/Dropbox/web2py/applications/SEACAT_ingresos/models/menu.py\')'
p88
sS'func'
p89
S'restricted'
p90
sa(dp91
g66
S'/home/leo/Dropbox/web2py/applications/SEACAT_ingresos/models/menu.py'
p92
sg68
(dp93
S'db.auth_user'
p94
S'<Table auth_user (id,first_name,last_name,email,...bs,is_active,created_by,modified_on,modified_by)>'
p95
sS'db'
p96
S'<DAL uri="postgres:******@wspio1.pioix.edu.ar/seacat">'
p97
sS'auth.has_permission'
p98
S'<bound method Auth.has_permission of <gluon.tools.Auth object>>'
p99
sS'auth'
p100
S'<gluon.tools.Auth object>'
p101
ssg74
I53
sg75
(dp102
I48
S''
sI49
S'## EXAMPLES:'
p103
sI50
S"#response.menu.insert(2, [T('TEST'), False, None, []])"
p104
sI51
S"#response.menu[2][3].insert(0, [T('test1'), False, None, []])"
p105
sI52
S"#response.menu[2][3].insert(1, [T('test2'), False, None, []])"
p106
sI53
S"if auth.has_permission('create new father', db.auth_user):"
p107
sI54
S'    response.menu[1][3].insert(0, [T("Father"), False, URL(\'new_father\')])'
p108
sI55
S''
sI56
S"if auth.has_permission('view users list', db.auth_user):"
p109
sI57
S'    response.menu[2][3].insert(0, [T("Users List"), False, URL(request.application, \'admin\', \'users_list\')])'
p110
ssg87
S'()'
p111
sg89
S'<module>'
p112
sa(dp113
g66
S'/home/leo/Dropbox/web2py/gluon/tools.py'
p114
sg68
(dp115
S'record_id'
p116
S'0'
sS'permission.group_id'
p117
S'<gluon.dal.Field object>'
p118
sS').select'
p119
S'undefined'
p120
sS'permission'
p121
S'<Table auth_permission (id,group_id,name,table_n...e,created_on,created_by,modified_on,modified_by)>'
p122
ssg74
I3430
sg75
(dp123
I3425
S'        else:'
p124
sI3426
S'            groups = set([group_id])'
p125
sI3427
S'        permission = self.table_permission()'
p126
sI3428
S'        rows = self.db(permission.name == name)(permission.table_name'
p127
sI3429
S'                 == str(table_name))(permission.record_id'
p128
sI3430
S'                 == record_id).select(permission.group_id)'
p129
sI3431
S'        groups_required = set([row.group_id for row in rows])'
p130
sI3432
S'        if record_id:'
p131
sI3433
S'            rows = self.db(permission.name'
p132
sI3434
S'                            == name)(permission.table_name'
p133
ssg87
S"(self=<gluon.tools.Auth object>, name='create new father', table_name=<Table auth_user (id,first_name,last_name,email,...bs,is_active,created_by,modified_on,modified_by)>, record_id=0, user_id=None, group_id=None)"
p134
sg89
S'has_permission'
p135
sa(dp136
g66
S'/home/leo/Dropbox/web2py/gluon/dal.py'
p137
sg68
(dp138
S'self.query'
p139
S"<Query (((auth_permission.name = 'create new fat...uth_user')) AND (auth_permission.record_id = 0))>"
p140
sS'adapter.select'
p141
S'<bound method PostgreSQLAdapter.select of <gluon.dal.PostgreSQLAdapter object>>'
p142
sS'fields'
p143
S'[<gluon.dal.Field object>]'
p144
sS'adapter'
p145
S'<gluon.dal.PostgreSQLAdapter object>'
p146
sS'attributes'
p147
g21
sS'self'
p148
S"<Set (((auth_permission.name = 'create new fathe...uth_user')) AND (auth_permission.record_id = 0))>"
p149
ssg74
I10335
sg75
(dp150
I10336
S''
sI10337
S'    def nested_select(self,*fields,**attributes):'
p151
sI10338
S'        return Expression(self.db,self._select(*fields,**attributes))'
p152
sI10339
S''
sI10330
S"                                    attributes.get('join',None),"
p153
sI10331
S"                                    attributes.get('left',None),"
p154
sI10332
S"                                    attributes.get('orderby',None),"
p155
sI10333
S"                                    attributes.get('groupby',None))"
p156
sI10334
S'        fields = adapter.expand_all(fields, tablenames)'
p157
sI10335
S'        return adapter.select(self.query,fields,attributes)'
p158
ssg87
S"(self=<Set (((auth_permission.name = 'create new fathe...uth_user')) AND (auth_permission.record_id = 0))>, *fields=[<gluon.dal.Field object>], **attributes={})"
p159
sg89
S'select'
p160
sa(dp161
g66
S'/home/leo/Dropbox/web2py/gluon/dal.py'
p162
sg68
(dp163
S'fields'
p164
S'[<gluon.dal.Field object>]'
p165
sS'self'
p166
S'<gluon.dal.PostgreSQLAdapter object>'
p167
sS'attributes'
p168
g21
sS'self._select_aux'
p169
S'<bound method PostgreSQLAdapter._select_aux of <gluon.dal.PostgreSQLAdapter object>>'
p170
sS'sql'
p171
S'"SELECT  auth_permission.group_id FROM auth_permi...uth_user\')) AND (auth_permission.record_id = 0));"'
p172
ssg74
I1831
sg75
(dp173
I1826
S'            return cache_model('
p174
sI1827
S'                key,'
p175
sI1828
S'                lambda self=self,args=args:self._select_aux(*args),'
p176
sI1829
S'                time_expire)'
p177
sI1830
S'        else:'
p178
sI1831
S'            return self._select_aux(sql,fields,attributes)'
p179
sI1832
S''
sI1833
S'    def _count(self, query, distinct=None):'
p180
sI1834
S'        tablenames = self.tables(query)'
p181
sI1835
S'        if query:'
p182
ssg87
S"(self=<gluon.dal.PostgreSQLAdapter object>, query=<Query (((auth_permission.name = 'create new fat...uth_user')) AND (auth_permission.record_id = 0))>, fields=[<gluon.dal.Field object>], attributes={})"
p183
sg89
g160
sa(dp184
g66
S'/home/leo/Dropbox/web2py/gluon/dal.py'
p185
sg68
(dp186
S'self'
p187
S'<gluon.dal.PostgreSQLAdapter object>'
p188
sS'self.execute'
p189
S'<bound method PostgreSQLAdapter.execute of <gluon.dal.PostgreSQLAdapter object>>'
p190
sS'sql'
p191
S'"SELECT  auth_permission.group_id FROM auth_permi...uth_user\')) AND (auth_permission.record_id = 0));"'
p192
ssg74
I1796
sg75
(dp193
I1792
S'    def _select_aux(self,sql,fields,attributes):'
p194
sI1793
S'        args_get = attributes.get'
p195
sI1794
S"        cache = args_get('cache',None)"
p196
sI1795
S'        if not cache:'
p197
sI1796
S'            self.execute(sql)'
p198
sI1797
S'            rows = self._fetchall()'
p199
sI1798
S'        else:'
p200
sI1799
S'            (cache_model, time_expire) = cache'
p201
sI1800
S"            key = self.uri + '/' + sql + '/rows'"
p202
sI1791
S''
ssg87
S'(self=<gluon.dal.PostgreSQLAdapter object>, sql="SELECT  auth_permission.group_id FROM auth_permi...uth_user\')) AND (auth_permission.record_id = 0));", fields=[<gluon.dal.Field object>], attributes={})'
p203
sg89
S'_select_aux'
p204
sa(dp205
g66
S'/home/leo/Dropbox/web2py/gluon/dal.py'
p206
sg68
(dp207
S'a'
S'("SELECT  auth_permission.group_id FROM auth_permi...uth_user\')) AND (auth_permission.record_id = 0));",)'
p208
sS'self'
p209
S'<gluon.dal.PostgreSQLAdapter object>'
p210
sS'b'
g21
sS'self.log_execute'
p211
S'<bound method PostgreSQLAdapter.log_execute of <gluon.dal.PostgreSQLAdapter object>>'
p212
ssg74
I1916
sg75
(dp213
I1920
S'        if isinstance(obj, CALLABLETYPES):'
p214
sI1911
S'        self.db._timings.append((command,time.time()-t0))'
p215
sI1912
S'        del self.db._timings[:-TIMINGSSIZE]'
p216
sI1913
S'        return ret'
p217
sI1914
S''
sI1915
S'    def execute(self, *a, **b):'
p218
sI1916
S'        return self.log_execute(*a, **b)'
p219
sI1917
S''
sI1918
S'    def represent(self, obj, fieldtype):'
p220
sI1919
S'        field_is_type = fieldtype.startswith'
p221
ssg87
S'(self=<gluon.dal.PostgreSQLAdapter object>, *a=("SELECT  auth_permission.group_id FROM auth_permi...uth_user\')) AND (auth_permission.record_id = 0));",), **b={})'
p222
sg89
S'execute'
p223
sa(dp224
g66
S'/home/leo/Dropbox/web2py/gluon/dal.py'
p225
sg68
(dp226
S'a'
S'("SELECT  auth_permission.group_id FROM auth_permi...uth_user\')) AND (auth_permission.record_id = 0));",)'
p227
sS'b'
g21
sS'self'
p228
S'<gluon.dal.PostgreSQLAdapter object>'
p229
sS'ret'
p230
g120
sS'self.cursor'
p231
S'<gluon.contrib.pg8000.dbapi.CursorWrapper object>'
p232
sS'command'
p233
S'"SELECT  auth_permission.group_id FROM auth_permi...uth_user\')) AND (auth_permission.record_id = 0));"'
p234
sS'self.cursor.execute'
p235
S'<bound method CursorWrapper._fn of <gluon.contrib.pg8000.dbapi.CursorWrapper object>>'
p236
ssg74
I1910
sg75
(dp237
I1905
S'            command = self.filter_sql_command(command)'
p238
sI1906
S'        if self.db._debug:'
p239
sI1907
S"            LOGGER.debug('SQL: %s' % command)"
p240
sI1908
S'        self.db._lastsql = command'
p241
sI1909
S'        t0 = time.time()'
p242
sI1910
S'        ret = self.cursor.execute(command, *a[1:], **b)'
p243
sI1911
S'        self.db._timings.append((command,time.time()-t0))'
p244
sI1912
S'        del self.db._timings[:-TIMINGSSIZE]'
p245
sI1913
S'        return ret'
p246
sI1914
S''
ssg87
S'(self=<gluon.dal.PostgreSQLAdapter object>, *a=("SELECT  auth_permission.group_id FROM auth_permi...uth_user\')) AND (auth_permission.record_id = 0));",), **b={})'
p247
sg89
S'log_execute'
p248
sa(dp249
g66
S'/home/leo/Dropbox/web2py/gluon/contrib/pg8000/dbapi.py'
p250
sg68
(dp251
S'self'
p252
S'<gluon.contrib.pg8000.dbapi.CursorWrapper object>'
p253
sS'args'
p254
S'("SELECT  auth_permission.group_id FROM auth_permi...uth_user\')) AND (auth_permission.record_id = 0));",)'
p255
sS'fn'
p256
S'<function execute>'
p257
sS'kwargs'
p258
g21
ssg74
I246
sg75
(dp259
I241
S''
sI242
S'def require_open_cursor(fn):'
p260
sI243
S'    def _fn(self, *args, **kwargs):'
p261
sI244
S'        if self.cursor == None:'
p262
sI245
S'            raise CursorClosedError()'
p263
sI246
S'        return fn(self, *args, **kwargs)'
p264
sI247
S'    return _fn'
p265
sI248
S''
sI249
S'##'
p266
sI250
S'# The class of object returned by the {@link #ConnectionWrapper.cursor cursor method}.'
p267
ssg87
S'(self=<gluon.contrib.pg8000.dbapi.CursorWrapper object>, *args=("SELECT  auth_permission.group_id FROM auth_permi...uth_user\')) AND (auth_permission.record_id = 0));",), **kwargs={})'
p268
sg89
S'_fn'
p269
sa(dp270
g66
S'/home/leo/Dropbox/web2py/gluon/contrib/pg8000/dbapi.py'
p271
sg68
(dp272
S'self._execute'
p273
S'<bound method CursorWrapper._execute of <gluon.contrib.pg8000.dbapi.CursorWrapper object>>'
p274
sS'self'
p275
S'<gluon.contrib.pg8000.dbapi.CursorWrapper object>'
p276
sS'args'
p277
S'()'
p278
sS'operation'
p279
S'"SELECT  auth_permission.group_id FROM auth_permi...uth_user\')) AND (auth_permission.record_id = 0));"'
p280
ssg74
I317
sg75
(dp281
I320
S'        new_query, new_args = convert_paramstyle(paramstyle, operation, args)'
p282
sI321
S'        try:'
p283
sI312
S'    @require_open_cursor'
p284
sI313
S'    def execute(self, operation, args=()):'
p285
sI314
S'        if not self._connection.in_transaction:'
p286
sI315
S'            self._connection.begin()'
p287
sI316
S'        self._override_rowcount = None'
p288
sI317
S'        self._execute(operation, args)'
p289
sI318
S''
sI319
S'    def _execute(self, operation, args=()):'
p290
ssg87
S'(self=<gluon.contrib.pg8000.dbapi.CursorWrapper object>, operation="SELECT  auth_permission.group_id FROM auth_permi...uth_user\')) AND (auth_permission.record_id = 0));", args=())'
p291
sg89
g223
sa(dp292
g66
S'/home/leo/Dropbox/web2py/gluon/contrib/pg8000/dbapi.py'
p293
sg68
(dp294
S'new_args'
p295
S'()'
p296
sS'self.cursor'
p297
S'<gluon.contrib.pg8000.interface.Cursor object>'
p298
sS'self'
p299
S'<gluon.contrib.pg8000.dbapi.CursorWrapper object>'
p300
sS'new_query'
p301
S'"SELECT  auth_permission.group_id FROM auth_permi...uth_user\')) AND (auth_permission.record_id = 0));"'
p302
sS'self.cursor.execute'
p303
S'<bound method Cursor.execute of <gluon.contrib.pg8000.interface.Cursor object>>'
p304
ssg74
I322
sg75
(dp305
I320
S'        new_query, new_args = convert_paramstyle(paramstyle, operation, args)'
p306
sI321
S'        try:'
p307
sI322
S'            self.cursor.execute(new_query, *new_args)'
p308
sI323
S'        except ConnectionClosedError:'
p309
sI324
S"            # can't rollback in this case"
p310
sI325
S'            raise'
p311
sI326
S'        except:'
p312
sI317
S'        self._execute(operation, args)'
p313
sI318
S''
sI319
S'    def _execute(self, operation, args=()):'
p314
ssg87
S'(self=<gluon.contrib.pg8000.dbapi.CursorWrapper object>, operation="SELECT  auth_permission.group_id FROM auth_permi...uth_user\')) AND (auth_permission.record_id = 0));", args=())'
p315
sg89
S'_execute'
p316
sa(dp317
g66
S'/home/leo/Dropbox/web2py/gluon/contrib/pg8000/interface.py'
p318
sg68
(dp319
S'x'
g120
sS'args'
p320
S'()'
p321
sS'builtintype'
p322
S"<type 'type'>"
p323
sS'self._stmt'
p324
S'<gluon.contrib.pg8000.interface.PreparedStatement object>'
p325
sS'self'
p326
S'<gluon.contrib.pg8000.interface.Cursor object>'
p327
sS'self.connection'
p328
S'<gluon.contrib.pg8000.interface.Connection object>'
p329
sS'global PreparedStatement'
p330
S"<class 'gluon.contrib.pg8000.interface.PreparedStatement'>"
p331
sS'statement_name'
p332
g120
sS'query'
p333
S'"SELECT  auth_permission.group_id FROM auth_permi...uth_user\')) AND (auth_permission.record_id = 0));"'
p334
ssg74
I398
sg75
(dp335
I393
S'                # use PostgreSQL Simple Query Protocol'
p336
sI394
S'                ## print "SimpleQuery:", query'
p337
sI395
S'                self._stmt = SimpleStatement(self.connection, query)'
p338
sI396
S'            else:'
p339
sI397
S'                # use PostgreSQL Extended Query Protocol'
p340
sI398
S'                self._stmt = PreparedStatement(self.connection, query, statement_name="", *[{"type": type(x), "value": x} for x in args])'
p341
sI399
S'            self._stmt.execute(*args, **kwargs)'
p342
sI400
S'        finally:'
p343
sI401
S'            self.connection._unnamed_prepared_statement_lock.release()'
p344
sI402
S''
ssg87
S'(self=<gluon.contrib.pg8000.interface.Cursor object>, query="SELECT  auth_permission.group_id FROM auth_permi...uth_user\')) AND (auth_permission.record_id = 0));", *args=(), **kwargs={})'
p345
sg89
g223
sa(dp346
g66
S'/home/leo/Dropbox/web2py/gluon/contrib/pg8000/interface.py'
p347
sg68
(dp348
S'self.c'
p349
S'<gluon.contrib.pg8000.protocol.Connection object>'
p350
sS'self'
p351
S'<gluon.contrib.pg8000.interface.PreparedStatement object>'
p352
sS'self.c.parse'
p353
S'<bound method Connection._fn of <gluon.contrib.pg8000.protocol.Connection object>>'
p354
sS'self._statement_name'
p355
S"''"
p356
sS'self._parse_row_desc'
p357
g120
sS'statement'
p358
S'"SELECT  auth_permission.group_id FROM auth_permi...uth_user\')) AND (auth_permission.record_id = 0));"'
p359
sS'types'
p360
S'()'
p361
ssg74
I138
sg75
(dp362
I133
S'        self._statement_name = kwargs.get("statement_name", "pg8000_statement_%s" % self._statement_number)'
p363
sI134
S'        self._row_desc = None'
p364
sI135
S'        self._cached_rows = []'
p365
sI136
S'        self._ongoing_row_count = 0'
p366
sI137
S'        self._command_complete = True'
p367
sI138
S'        self._parse_row_desc = self.c.parse(self._statement_name, statement, types)'
p368
sI139
S'        self._lock = threading.RLock()'
p369
sI140
S''
sI141
S'    def close(self):'
p370
sI142
S'        if self._statement_name != "": # don\'t close unnamed statement'
p371
ssg87
S'(self=<gluon.contrib.pg8000.interface.PreparedStatement object>, connection=<gluon.contrib.pg8000.interface.Connection object>, statement="SELECT  auth_permission.group_id FROM auth_permi...uth_user\')) AND (auth_permission.record_id = 0));", *types=(), **kwargs={\'statement_name\': \'\'})'
p372
sg89
g26
sa(dp373
g66
S'/home/leo/Dropbox/web2py/gluon/contrib/pg8000/protocol.py'
p374
sg68
(dp375
S'self'
p376
S'<gluon.contrib.pg8000.protocol.Connection object>'
p377
sS'args'
p378
S'(\'\', "SELECT  auth_permission.group_id FROM auth_permi...uth_user\')) AND (auth_permission.record_id = 0));", ())'
p379
sS'fn'
p380
S'<function parse>'
p381
sS'kwargs'
p382
g21
ssg74
I943
sg75
(dp383
I938
S''
sI939
S'def sync_on_error(fn):'
p384
sI940
S'    def _fn(self, *args, **kwargs):'
p385
sI941
S'        try:'
p386
sI942
S'            self._sock_lock.acquire()'
p387
sI943
S'            return fn(self, *args, **kwargs)'
p388
sI944
S'        except:'
p389
sI945
S'            self._sync()'
p390
sI946
S'            raise'
p391
sI947
S'        finally:'
p392
ssg87
S'(self=<gluon.contrib.pg8000.protocol.Connection object>, *args=(\'\', "SELECT  auth_permission.group_id FROM auth_permi...uth_user\')) AND (auth_permission.record_id = 0));", ()), **kwargs={})'
p393
sg89
g269
sa(dp394
g66
S'/home/leo/Dropbox/web2py/gluon/contrib/pg8000/protocol.py'
p395
sg68
(dp396
S'reader.handle_messages'
p397
S'<bound method MessageReader.handle_messages of <gluon.contrib.pg8000.protocol.MessageReader object>>'
p398
sS'reader'
p399
S'<gluon.contrib.pg8000.protocol.MessageReader object>'
p400
ssg74
I1104
sg75
(dp401
I1099
S'        reader.add_message(NoData, lambda msg: (None, param_fc))'
p402
sI1100
S''
sI1101
S'        # Common row description response'
p403
sI1102
S'        reader.add_message(RowDescription, lambda msg: (msg, param_fc))'
p404
sI1103
S''
sI1104
S'        return reader.handle_messages()'
p405
sI1105
S''
sI1106
S'    @sync_on_error'
p406
sI1107
S'    def bind(self, portal, statement, params, parse_data, copy_stream):'
p407
sI1108
S'        self.verifyState("ready")'
p408
ssg87
S'(self=<gluon.contrib.pg8000.protocol.Connection object>, statement=\'\', qs="SELECT  auth_permission.group_id FROM auth_permi...uth_user\')) AND (auth_permission.record_id = 0));", param_types=[])'
p409
sg89
S'parse'
p410
sa(dp411
g66
S'/home/leo/Dropbox/web2py/gluon/contrib/pg8000/protocol.py'
p412
sg68
(dp413
S'exc'
p414
S"ProgrammingError('ERROR', '42P01', 'no existe la relaci\\xc3\\xb3n \\xc2\\xabauth_permission\\xc2\\xbb')"
p415
ssg74
I929
sg75
(dp416
I928
S'                if not self.delay_raising_exception:'
p417
sI929
S'                    raise exc'
p418
sI930
S'            elif isinstance(msg, NoticeResponse):'
p419
sI931
S'                self._conn.handleNoticeResponse(msg)'
p420
sI932
S'            elif isinstance(msg, ParameterStatus):'
p421
sI933
S'                self._conn.handleParameterStatus(msg)'
p422
sI924
S'            if msg_handled:'
p423
sI925
S'                continue'
p424
sI926
S'            elif isinstance(msg, ErrorResponse):'
p425
sI927
S'                exc = msg.createException()'
p426
ssg87
S'(self=<gluon.contrib.pg8000.protocol.MessageReader object>)'
p427
sg89
S'handle_messages'
p428
sasS'pyver'
p429
S'Python 2.7.5+: /usr/bin/python (prefix: /usr)'
p430
sS'session'
p431
g61
(S's\xb9\x01\x00\x00<div><table><tr><td style="font-weight:bold;vertical-align:top;">flash</td><td style="vertical-align:top;">:</td><td><div></div></td></tr><tr><td style="font-weight:bold;vertical-align:top;">last_orderby</td><td style="vertical-align:top;">:</td><td><div>None</div></td></tr><tr><td style="font-weight:bold;vertical-align:top;">last_query</td><td style="vertical-align:top;">:</td><td><div>db.auth_group.id&gt;0</div></td></tr></table></div>'
tRp432
sS'etype'
p433
S"<class 'gluon.contrib.pg8000.errors.ProgrammingError'>"
p434
sS'date'
p435
S'Tue Jan 21 20:52:10 2014'
p436
sS'response'
p437
g61
(S's\xa2\x1f\x00\x00<div><table><tr><td style="font-weight:bold;vertical-align:top;">body</td><td style="vertical-align:top;">:</td><td><div>&lt;cStringIO.StringO object at 0x7fe2382b9b20&gt;</div></td></tr><tr><td style="font-weight:bold;vertical-align:top;">cookies</td><td style="vertical-align:top;">:</td><td><div><table><tr><td style="font-weight:bold;vertical-align:top;">session_id_seacat_ingresos</td><td style="vertical-align:top;">:</td><td><div>127.0.0.1-a2589693-9f4a-40df-9f14-2fe733002bfd<table><tr><td style="font-weight:bold;vertical-align:top;">comment</td><td style="vertical-align:top;">:</td><td><div></div></td></tr><tr><td style="font-weight:bold;vertical-align:top;">domain</td><td style="vertical-align:top;">:</td><td><div></div></td></tr><tr><td style="font-weight:bold;vertical-align:top;">expires</td><td style="vertical-align:top;">:</td><td><div></div></td></tr><tr><td style="font-weight:bold;vertical-align:top;">httponly</td><td style="vertical-align:top;">:</td><td><div></div></td></tr><tr><td style="font-weight:bold;vertical-align:top;">max-age</td><td style="vertical-align:top;">:</td><td><div></div></td></tr><tr><td style="font-weight:bold;vertical-align:top;">path</td><td style="vertical-align:top;">:</td><td><div>/</div></td></tr><tr><td style="font-weight:bold;vertical-align:top;">secure</td><td style="vertical-align:top;">:</td><td><div></div></td></tr><tr><td style="font-weight:bold;vertical-align:top;">version</td><td style="vertical-align:top;">:</td><td><div></div></td></tr></table></div></td></tr></table></div></td></tr><tr><td style="font-weight:bold;vertical-align:top;">delimiters</td><td style="vertical-align:top;">:</td><td><div><table><tr><td><div>{{</div></td></tr><tr><td><div>}}</div></td></tr></table></div></td></tr><tr><td style="font-weight:bold;vertical-align:top;">files</td><td style="vertical-align:top;">:</td><td><div><table></table></div></td></tr><tr><td style="font-weight:bold;vertical-align:top;">flash</td><td style="vertical-align:top;">:</td><td><div></div></td></tr><tr><td style="font-weight:bold;vertical-align:top;">generic_patterns</td><td style="vertical-align:top;">:</td><td><div><table><tr><td><div>*</div></td></tr></table></div></td></tr><tr><td style="font-weight:bold;vertical-align:top;">google_analytics_id</td><td style="vertical-align:top;">:</td><td><div>None</div></td></tr><tr><td style="font-weight:bold;vertical-align:top;">headers</td><td style="vertical-align:top;">:</td><td><div><table><tr><td style="font-weight:bold;vertical-align:top;">X-Powered-By</td><td style="vertical-align:top;">:</td><td><div>web2py</div></td></tr></table></div></td></tr><tr><td style="font-weight:bold;vertical-align:top;">logo</td><td style="vertical-align:top;">:</td><td><div><a class="brand" data-w2p_disable_with="default" href="/SEACAT_ingresos/default/index"><img alt="Logo de SEACAT" src="/SEACAT_ingresos/static/Logo_seacat_mini.png" /></a></div></td></tr><tr><td style="font-weight:bold;vertical-align:top;">menu</td><td style="vertical-align:top;">:</td><td><div><table><tr><td><div><table><tr><td><div>P\xc3\xa1gina Principal</div></td></tr><tr><td><div>False</div></td></tr><tr><td><div>/SEACAT_ingresos/default/index</div></td></tr><tr><td><div><table></table></div></td></tr></table></div></td></tr><tr><td><div><table><tr><td><div>Nuevo</div></td></tr><tr><td><div>False</div></td></tr><tr><td><div>None</div></td></tr><tr><td><div><table></table></div></td></tr></table></div></td></tr><tr><td><div><table><tr><td><div>Vista</div></td></tr><tr><td><div>False</div></td></tr><tr><td><div>None</div></td></tr><tr><td><div><table></table></div></td></tr></table></div></td></tr><tr><td><div><table><tr><td><div>Ayuda</div></td></tr><tr><td><div>False</div></td></tr><tr><td><div>/SEACAT_ingresos/default/help</div></td></tr><tr><td><div><table></table></div></td></tr></table></div></td></tr></table></div></td></tr><tr><td style="font-weight:bold;vertical-align:top;">meta</td><td style="vertical-align:top;">:</td><td><div><table><tr><td style="font-weight:bold;vertical-align:top;">author</td><td style="vertical-align:top;">:</td><td><div>Leandro E. Colombo Vi\xc3\xb1a &lt;colomboleandro@pioix.edu.ar&gt;</div></td></tr><tr><td style="font-weight:bold;vertical-align:top;">description</td><td style="vertical-align:top;">:</td><td><div>Sistema de Inscripciones para el Colegio P\xc3\xado IX</div></td></tr><tr><td style="font-weight:bold;vertical-align:top;">generator</td><td style="vertical-align:top;">:</td><td><div>Web2py Web Framework</div></td></tr><tr><td style="font-weight:bold;vertical-align:top;">keywords</td><td style="vertical-align:top;">:</td><td><div>Inscripciones, P\xc3\xado IX, Ingresantes, SEACAT</div></td></tr></table></div></td></tr><tr><td style="font-weight:bold;vertical-align:top;">models_to_run</td><td style="vertical-align:top;">:</td><td><div><table><tr><td><div>^\\w+\\.py$</div></td></tr><tr><td><div>^admin/\\w+\\.py$</div></td></tr><tr><td><div>^admin/index/\\w+\\.py$</div></td></tr></table></div></td></tr><tr><td style="font-weight:bold;vertical-align:top;">postprocessing</td><td style="vertical-align:top;">:</td><td><div><table></table></div></td></tr><tr><td style="font-weight:bold;vertical-align:top;">session_client</td><td style="vertical-align:top;">:</td><td><div>127.0.0.1</div></td></tr><tr><td style="font-weight:bold;vertical-align:top;">session_cookie_compression_level</td><td style="vertical-align:top;">:</td><td><div>None</div></td></tr><tr><td style="font-weight:bold;vertical-align:top;">session_cookie_expires</td><td style="vertical-align:top;">:</td><td><div>None</div></td></tr><tr><td style="font-weight:bold;vertical-align:top;">session_cookie_key</td><td style="vertical-align:top;">:</td><td><div>None</div></td></tr><tr><td style="font-weight:bold;vertical-align:top;">session_data_name</td><td style="vertical-align:top;">:</td><td><div>session_data_seacat_ingresos</div></td></tr><tr><td style="font-weight:bold;vertical-align:top;">session_file</td><td style="vertical-align:top;">:</td><td><div>&lt;open file &#x27;/home/leo/Dropbox/web2py/applications/SEACAT_ingresos/sessions/127.0.0.1-a2589693-9f4a-40df-9f14-2fe733002bfd&#x27;, mode &#x27;rb+&#x27; at 0x1f43390&gt;</div></td></tr><tr><td style="font-weight:bold;vertical-align:top;">session_filename</td><td style="vertical-align:top;">:</td><td><div>/home/leo/Dropbox/web2py/applications/SEACAT_ingresos/sessions/127.0.0.1-a2589693-9f4a-40df-9f14-2fe733002bfd</div></td></tr><tr><td style="font-weight:bold;vertical-align:top;">session_hash</td><td style="vertical-align:top;">:</td><td><div>9877129e8e0ad9b77090c1c237383306</div></td></tr><tr><td style="font-weight:bold;vertical-align:top;">session_id</td><td style="vertical-align:top;">:</td><td><div>127.0.0.1-a2589693-9f4a-40df-9f14-2fe733002bfd</div></td></tr><tr><td style="font-weight:bold;vertical-align:top;">session_id_name</td><td style="vertical-align:top;">:</td><td><div>session_id_seacat_ingresos</div></td></tr><tr><td style="font-weight:bold;vertical-align:top;">session_locked</td><td style="vertical-align:top;">:</td><td><div>True</div></td></tr><tr><td style="font-weight:bold;vertical-align:top;">session_masterapp</td><td style="vertical-align:top;">:</td><td><div>SEACAT_ingresos</div></td></tr><tr><td style="font-weight:bold;vertical-align:top;">session_new</td><td style="vertical-align:top;">:</td><td><div>False</div></td></tr><tr><td style="font-weight:bold;vertical-align:top;">session_storage_type</td><td style="vertical-align:top;">:</td><td><div>file</div></td></tr><tr><td style="font-weight:bold;vertical-align:top;">status</td><td style="vertical-align:top;">:</td><td><div>200</div></td></tr><tr><td style="font-weight:bold;vertical-align:top;">subtitle</td><td style="vertical-align:top;">:</td><td><div>v.0.0.1b</div></td></tr><tr><td style="font-weight:bold;vertical-align:top;">title</td><td style="vertical-align:top;">:</td><td><div>SEACAT</div></td></tr><tr><td style="font-weight:bold;vertical-align:top;">view</td><td style="vertical-align:top;">:</td><td><div>admin/index.html</div></td></tr></table></div>'
tRp438
sS'locals'
p439
(dp440
S'exc'
p441
S"ProgrammingError('ERROR', '42P01', 'no existe la relaci\\xc3\\xb3n \\xc2\\xabauth_permission\\xc2\\xbb')"
p442
sS'msg_class'
p443
S"<class 'gluon.contrib.pg8000.protocol.RowDescription'>"
p444
sS'self'
p445
S'<gluon.contrib.pg8000.protocol.MessageReader object>'
p446
sg46
S'()'
p447
sS'handler'
p448
S'<function <lambda>>'
p449
sS'kwargs'
p450
g21
sS'msg'
p451
S"<ErrorResponse ERROR 42P01 'no existe la relaci\\xc3\\xb3n \\xc2\\xabauth_permission\\xc2\\xbb'>"
p452
sS'msg_handled'
p453
S'False'
p454
sssS'traceback'
p455
S'Traceback (most recent call last):\n  File "/home/leo/Dropbox/web2py/gluon/restricted.py", line 217, in restricted\n    exec ccode in environment\n  File "/home/leo/Dropbox/web2py/applications/SEACAT_ingresos/models/menu.py", line 53, in <module>\n    if auth.has_permission(\'create new father\', db.auth_user):\n  File "/home/leo/Dropbox/web2py/gluon/tools.py", line 3430, in has_permission\n    == record_id).select(permission.group_id)\n  File "/home/leo/Dropbox/web2py/gluon/dal.py", line 10335, in select\n    return adapter.select(self.query,fields,attributes)\n  File "/home/leo/Dropbox/web2py/gluon/dal.py", line 1831, in select\n    return self._select_aux(sql,fields,attributes)\n  File "/home/leo/Dropbox/web2py/gluon/dal.py", line 1796, in _select_aux\n    self.execute(sql)\n  File "/home/leo/Dropbox/web2py/gluon/dal.py", line 1916, in execute\n    return self.log_execute(*a, **b)\n  File "/home/leo/Dropbox/web2py/gluon/dal.py", line 1910, in log_execute\n    ret = self.cursor.execute(command, *a[1:], **b)\n  File "/home/leo/Dropbox/web2py/gluon/contrib/pg8000/dbapi.py", line 246, in _fn\n    return fn(self, *args, **kwargs)\n  File "/home/leo/Dropbox/web2py/gluon/contrib/pg8000/dbapi.py", line 317, in execute\n    self._execute(operation, args)\n  File "/home/leo/Dropbox/web2py/gluon/contrib/pg8000/dbapi.py", line 322, in _execute\n    self.cursor.execute(new_query, *new_args)\n  File "/home/leo/Dropbox/web2py/gluon/contrib/pg8000/interface.py", line 398, in execute\n    self._stmt = PreparedStatement(self.connection, query, statement_name="", *[{"type": type(x), "value": x} for x in args])\n  File "/home/leo/Dropbox/web2py/gluon/contrib/pg8000/interface.py", line 138, in __init__\n    self._parse_row_desc = self.c.parse(self._statement_name, statement, types)\n  File "/home/leo/Dropbox/web2py/gluon/contrib/pg8000/protocol.py", line 943, in _fn\n    return fn(self, *args, **kwargs)\n  File "/home/leo/Dropbox/web2py/gluon/contrib/pg8000/protocol.py", line 1104, in parse\n    return reader.handle_messages()\n  File "/home/leo/Dropbox/web2py/gluon/contrib/pg8000/protocol.py", line 929, in handle_messages\n    raise exc\nProgrammingError: (\'ERROR\', \'42P01\', \'no existe la relaci\\xc3\\xb3n \\xc2\\xabauth_permission\\xc2\\xbb\')\n'
p456
s.