(dp1
S'output'
p2
S"<class 'gluon.contrib.pg8000.errors.ProgrammingError'> ('ERROR', '23502', 'la columna \\xc2\\xabdob\\xc2\\xbb contiene valores nulos')"
p3
sS'layer'
p4
S'/home/leo/Dropbox/web2py/applications/SEACAT_ingresos/models/db.py'
p5
sS'code'
p6
S'# -*- coding: utf-8 -*-\n\n#########################################################################\n## This scaffolding model makes your app work on Google App Engine too\n## File is released under public domain and you can use without limitations\n#########################################################################\n\n## if SSL/HTTPS is properly configured and you want all HTTP requests to\n## be redirected to HTTPS, uncomment the line below:\n# request.requires_https()\n\nif not request.env.web2py_runtime_gae:\n    ## if NOT running on Google App Engine use SQLite or other DB\n    #db = DAL(\'sqlite://storage.sqlite\',pool_size=1,check_reserved=[\'all\'])\n    ## To connect to a PostgreSQL DB: postgres://username:password@server/database\n    ## DBURI contains the string to configure de DB it\'s stored in 0.py\n    db = DAL(DBURI, check_reserved=[DB_ENGINE])\nelse:\n    ## connect to Google BigTable (optional \'google:datastore://namespace\')\n    db = DAL(\'google:datastore\')\n    ## store sessions and tickets there\n    session.connect(request, response, db=db)\n    ## or store session in Memcache, Redis, etc.\n    ## from gluon.contrib.memdb import MEMDB\n    ## from google.appengine.api.memcache import Client\n    ## session.connect(request, response, db = MEMDB(Client()))\n\n## by default give a view/generic.extension to all actions from localhost\n## none otherwise. a pattern can be \'controller/function.extension\'\nresponse.generic_patterns = [\'*\'] if request.is_local else []\n## (optional) optimize handling of static files\n# response.optimize_css = \'concat,minify,inline\'\n# response.optimize_js = \'concat,minify,inline\'\n\n#########################################################################\n## Here is sample code if you need for\n## - email capabilities\n## - authentication (registration, login, logout, ... )\n## - authorization (role based authorization)\n## - services (xml, csv, json, xmlrpc, jsonrpc, amf, rss)\n## - old style crud actions\n## (more options discussed in gluon/tools.py)\n#########################################################################\n\nfrom gluon.tools import Auth, Crud, Service, PluginManager, prettydate\nauth = Auth(db)\ncrud, service, plugins = Crud(db), Service(), PluginManager()\n\n## Adding "last_login" and "obs" fields to \'auth_user\' table\nauth.settings.extra_fields[\'auth_user\'] = [\n                                           Field(\'middle_name\', label=T("Middle Name")),\n                                           Field(\'gender\', required=True, requires=IS_IN_SET([T("Male"), T("Female")]), label=T("Gender")),\n                                           Field(\'created_on\', \'datetime\', label=T("Created On"), writable=False, readable=True),\n                                           Field(\'last_login\', \'datetime\', label=T("Last Login"), writable=False, readable=True),\n                                           Field(\'obs\', \'text\', label=T("Observations")),\n                                           Field(\'personal_data_id\', \'reference personal_data\', writable=False, readable=False, requires=IS_IN_DB(db, \'personal_data.id\'), label=T("Personal Data ID")),\n                                           Field(\'address_id\', \'reference address\', writable=False, readable=False, requires=IS_IN_DB(db, \'address.id\'), label=T("Address ID"))\n                                           ]\n## create all tables needed by auth if not custom tables\nauth.define_tables(username=False, signature=True)\n\n## Changing format to \'auth_user\' table:\ndb.auth_user._format = \'%(last_name)s\'+", "+\'%(first_name)s\'+" "+\'%(middle_name)s\'\n\n## Settings for \'first_name\' field:\ndb.auth_user.first_name.required=True\ndb.auth_user.first_name.requires=[IS_NOT_EMPTY(), IS_ALPHANUMERIC()]\n\n## Settings for \'last_name\' field:\ndb.auth_user.last_name.required=True\ndb.auth_user.last_name.requires=IS_NOT_EMPTY()\n\n## Setting email to unique\ndb.auth_user.email.requires = [IS_EMAIL(), IS_NOT_IN_DB(db, \'auth_user.email\')]\ndb.auth_user.email.unique=True\ndb.auth_user.email.error_message=T("This email is already in our database, please choose another one")\n\n## Changing attributes:\ndb.auth_group.description.readable = True\n\n## Removing "remember me" feature at login form\nauth.settings.remember_me_form = False\n\n## Defining new table for Images:\ndb.define_table(\'images\',\n                Field(\'name\', label=T("Name")),\n                Field(\'file\', \'upload\', label=T("File"), required=True)\n                )\n\n## Defining new table for address:\nprovinces = ["Buenos Aires",\n             "Catamarca",\n             "Ciudad Aut\xc3\xb3noma de Buenos Aires",\n             "Chaco",\n             "Chubut",\n             "Corrientes",\n             "C\xc3\xb3rdoba",\n             "Entre R\xc3\xados",\n             "Formosa",\n             "Jujuy",\n             "La Pampa",\n             "La Rioja",\n             "Mendoza",\n             "Misiones",\n             "Neuqu\xc3\xa9n",\n             "R\xc3\xado Negro",\n             "Salta",\n             "San Juan",\n             "San Luis",\n             "Santa Cruz",\n             "Santa Fe",\n             "Santiago del Estero",\n             "Tierra del Fuego, Ant\xc3\xa1rtida e Islas del Atl\xc3\xa1ntico Sur",\n             "Tucum\xc3\xa1n"\n             ]\ndb.define_table(\'address\',\n                Field(\'street\', required=True, notnull=True, label=T("Street")),\n                Field(\'building\', \'integer\', label=T("Building")),\n                Field(\'floor\', label=T("Floor")),\n                Field(\'door\', label=T("Door")),\n                Field(\'apartment\', label=T("Apartment")),\n                Field(\'street1\', label=T("Street 1")),\n                Field(\'street2\', label=T("Street 2")),\n                Field(\'zip_code\', label=T("ZIP Code")),\n                Field(\'loc\', default=provinces[2], label=T("Locality")),\n                Field(\'prov\', requires=IS_IN_SET(provinces), default=provinces[2], label=T("Province")),\n                Field(\'obs\', \'text\', label=T("Observations")),\n                format=\'%(street)s\'+" "+\'%(building)s\'+" "+\'%(floor)s\'+" "+\'%(door)s\'+" "+\'%(apartment)s\'\n                )\n\n## Defining new table for personal data\ndoc_type_set = [\'DNI\', \'LE\', \'LC\', T("PASSPORT")]\ntel_type_set = [T("Line"), T("Cell Phone"), T("Other")]\nvalid_image_extensions = (\'jpeg\', \'jpg\', \'png\')\nphoto_size = (640, 480)\navatar_size = (300, 300)\ndb.define_table(\'personal_data\',\n                Field(\'doc_type\', required=True, requires=IS_IN_SET(doc_type_set), notnull=True, default=doc_type_set[0], label=T("Document Type")),\n                Field(\'doc\', \'string\', length=8, required=True, requires=IS_MATCH(\'\\d{8}\'), notnull=True, unique=True, label=T("Document"), comment=T("Insert only numbers without dots. i.e.: 12654897")),\n                Field(\'nac\', required=True, notnull=True, default="Argentina", label=T("Nacionality")),\n                Field(\'cuil\', \'string\', length=11, requires=IS_MATCH(\'\\d{11}\'), notnull=True, unique=True, label="CUIL"),\n                Field(\'dob\', \'date\', required=True, notnull=True, label=T("Day of Birth")),\n                ## Commented because they are in \'auth_user\' table:\n                #Field(\'first_name\', required=True, notnull=True, label=T("First Name")),\n                #Field(\'middle_name\', label=T("Middle Name")),\n                #Field(\'last_name\', required=True, notnull=True, label=T("Last Name")),\n                #Field(\'mail1\', required=True, requires=IS_EMAIL(), notnull=True, label=T("email 1")),\n                Field(\'mail2\', requires=IS_EMAIL(), label=T("Alternative email"), comment=T("Another contact mail")),\n                Field(\'tel1_type\', required=True, requires=IS_IN_SET(tel_type_set), notnull=True, default=tel_type_set[0], label=T("Principal Phone Type")),\n                Field(\'tel1\', length=8, required=True, requires=IS_MATCH(\'\\d{8}\'), notnull=True, label=T("Principal Phone Number")),\n                Field(\'tel2_type\', requires=IS_IN_SET(tel_type_set), default=tel_type_set[0], label=T("Alternative Phone Type")),\n                Field(\'tel2\', length=8, requires=IS_MATCH(\'\\d{8}\'), label=T("Alternative Phone Number")),\n                Field(\'photo\', \'upload\', requires=IS_IMAGE(extensions=valid_image_extensions, maxsize=photo_size), label=T("Photo")),\n                Field(\'avatar\', \'upload\', requires=IS_IMAGE(extensions=valid_image_extensions, maxsize=avatar_size), label=T("Avatar")),\n                Field(\'twitter\', requires=IS_URL(), label=T("Twitter Profile")),\n                Field(\'facebook\', requires=IS_URL(), label=T("Facebook Profile")),\n                Field(\'obs\', \'text\', label=T("Observations")),\n                format=\'%(doc)s\'\n                )\ndb.personal_data.age = Field.Virtual(lambda row: (request.now-row.personal_data.dob).years)\n\n## Defining new table for Priority Fathers.\nsalesianas = ["San Francisco de Sales", "San Antonio", "San Pedro", "San Juan Evangelista"]\ndb.define_table(\'priority_father\',\n                Field(\'father_id\', \'reference auth_user\', writable=False, readable=False, requires=IS_IN_DB(db, \'auth_user.id\'), label=T("Father ID")),\n                Field(\'children_in_school\', \'boolean\', label=T("Do you have children in our school?")),\n                Field(\'children_name\', label=T("Children name")),\n                Field(\'student_network\', \'boolean\', label=T("Does your son goes to a school in our network?")),\n                Field(\'student_school\', requires=IS_EMPTY_OR(IS_IN_SET(salesianas)), label=T("Choose your school"))\n               )\n\n## Adding permission:\n#auth.add_permission(db.auth_group(role="derivaciones").id, \'create new father\', db.auth_user, 0)\n\n\n## configure email\nmail = auth.settings.mailer\nmail.settings.server = \'logging\' or \'smtp.gmail.com:587\'\nmail.settings.sender = \'soportetecnico@pioix.edu.ar\'\nmail.settings.login = \'soportetecnico:deagostini\'\n\n## configure auth policy\nauth.settings.registration_requires_verification = True\nauth.settings.registration_requires_approval = True\nauth.settings.reset_password_requires_verification = True\n\n## if you need to use OpenID, Facebook, MySpace, Twitter, Linkedin, etc.\n## register with janrain.com, write your domain:api_key in private/janrain.key\nfrom gluon.contrib.login_methods.rpx_account import use_janrain\nuse_janrain(auth, filename=\'private/janrain.key\')\n\n#########################################################################\n## Define your tables below (or better in another model file) for example\n##\n## >>> db.define_table(\'mytable\',Field(\'myfield\',\'string\'))\n##\n## Fields can be \'string\',\'text\',\'password\',\'integer\',\'double\',\'boolean\'\n##       \'date\',\'time\',\'datetime\',\'blob\',\'upload\', \'reference TABLENAME\'\n## There is an implicit \'id integer autoincrement\' field\n## Consult manual for more options, validators, etc.\n##\n## More API examples for controllers:\n##\n## >>> db.mytable.insert(myfield=\'value\')\n## >>> rows=db(db.mytable.myfield==\'value\').select(db.mytable.ALL)\n## >>> for row in rows: print row.id, row.myfield\n#########################################################################\n\n## after defining tables, uncomment below to enable auditing\n# auth.enable_record_versioning(db)\n'
p7
sS'snapshot'
p8
(dp9
S'exception'
p10
(dp11
S'__module__'
p12
S"'gluon.contrib.pg8000.errors'"
p13
sS'__getslice__'
p14
S"<method-wrapper '__getslice__' of ProgrammingError object>"
p15
sS'__str__'
p16
S"<method-wrapper '__str__' of ProgrammingError object>"
p17
sS'__reduce__'
p18
S'<built-in method __reduce__ of ProgrammingError object>'
p19
sS'__dict__'
p20
S'{}'
p21
sS'__sizeof__'
p22
S'<built-in method __sizeof__ of ProgrammingError object>'
p23
sS'__weakref__'
p24
S'None'
p25
sS'__init__'
p26
S"<method-wrapper '__init__' of ProgrammingError object>"
p27
sS'__setattr__'
p28
S"<method-wrapper '__setattr__' of ProgrammingError object>"
p29
sS'__reduce_ex__'
p30
S'<built-in method __reduce_ex__ of ProgrammingError object>'
p31
sS'__new__'
p32
S'<built-in method __new__ of type object>'
p33
sS'__format__'
p34
S'<built-in method __format__ of ProgrammingError object>'
p35
sS'__class__'
p36
S"<class 'gluon.contrib.pg8000.errors.ProgrammingError'>"
p37
sS'__doc__'
p38
S'None'
p39
sS'__getitem__'
p40
S"<method-wrapper '__getitem__' of ProgrammingError object>"
p41
sS'__setstate__'
p42
S'<built-in method __setstate__ of ProgrammingError object>'
p43
sS'__getattribute__'
p44
S"<method-wrapper '__getattribute__' of ProgrammingError object>"
p45
sS'args'
p46
S"('ERROR', '23502', 'la columna \\xc2\\xabdob\\xc2\\xbb contiene valores nulos')"
p47
sS'__subclasshook__'
p48
S'<built-in method __subclasshook__ of type object>'
p49
sS'__unicode__'
p50
S'<built-in method __unicode__ of ProgrammingError object>'
p51
sS'__delattr__'
p52
S"<method-wrapper '__delattr__' of ProgrammingError object>"
p53
sS'__repr__'
p54
S"<method-wrapper '__repr__' of ProgrammingError object>"
p55
sS'__hash__'
p56
S"<method-wrapper '__hash__' of ProgrammingError object>"
p57
ssS'evalue'
p58
S"('ERROR', '23502', 'la columna \\xc2\\xabdob\\xc2\\xbb contiene valores nulos')"
p59
sS'request'
p60
cgluon.html
XML_unpickle
p61
(S's\x1eU\x00\x00<div><table><tr><td style="font-weight:bold;vertical-align:top;">ajax</td><td style="vertical-align:top;">:</td><td><div>False</div></td></tr><tr><td style="font-weight:bold;vertical-align:top;">application</td><td style="vertical-align:top;">:</td><td><div>SEACAT_ingresos</div></td></tr><tr><td style="font-weight:bold;vertical-align:top;">args</td><td style="vertical-align:top;">:</td><td><div><table></table></div></td></tr><tr><td style="font-weight:bold;vertical-align:top;">cid</td><td style="vertical-align:top;">:</td><td><div>None</div></td></tr><tr><td style="font-weight:bold;vertical-align:top;">client</td><td style="vertical-align:top;">:</td><td><div>127.0.0.1</div></td></tr><tr><td style="font-weight:bold;vertical-align:top;">controller</td><td style="vertical-align:top;">:</td><td><div>default</div></td></tr><tr><td style="font-weight:bold;vertical-align:top;">cookies</td><td style="vertical-align:top;">:</td><td><div><table><tr><td style="font-weight:bold;vertical-align:top;">session_id_admin</td><td style="vertical-align:top;">:</td><td><div>127.0.0.1-890a02b4-d81a-452d-b5f4-fe4e888bcdeb<table><tr><td style="font-weight:bold;vertical-align:top;">comment</td><td style="vertical-align:top;">:</td><td><div></div></td></tr><tr><td style="font-weight:bold;vertical-align:top;">domain</td><td style="vertical-align:top;">:</td><td><div></div></td></tr><tr><td style="font-weight:bold;vertical-align:top;">expires</td><td style="vertical-align:top;">:</td><td><div></div></td></tr><tr><td style="font-weight:bold;vertical-align:top;">httponly</td><td style="vertical-align:top;">:</td><td><div></div></td></tr><tr><td style="font-weight:bold;vertical-align:top;">max-age</td><td style="vertical-align:top;">:</td><td><div></div></td></tr><tr><td style="font-weight:bold;vertical-align:top;">path</td><td style="vertical-align:top;">:</td><td><div></div></td></tr><tr><td style="font-weight:bold;vertical-align:top;">secure</td><td style="vertical-align:top;">:</td><td><div></div></td></tr><tr><td style="font-weight:bold;vertical-align:top;">version</td><td style="vertical-align:top;">:</td><td><div></div></td></tr></table></div></td></tr><tr><td style="font-weight:bold;vertical-align:top;">session_id_seacat_ingresos</td><td style="vertical-align:top;">:</td><td><div>127.0.0.1-1d826f80-50ef-4a6e-8075-7113b50cabc9<table><tr><td style="font-weight:bold;vertical-align:top;">comment</td><td style="vertical-align:top;">:</td><td><div></div></td></tr><tr><td style="font-weight:bold;vertical-align:top;">domain</td><td style="vertical-align:top;">:</td><td><div></div></td></tr><tr><td style="font-weight:bold;vertical-align:top;">expires</td><td style="vertical-align:top;">:</td><td><div></div></td></tr><tr><td style="font-weight:bold;vertical-align:top;">httponly</td><td style="vertical-align:top;">:</td><td><div></div></td></tr><tr><td style="font-weight:bold;vertical-align:top;">max-age</td><td style="vertical-align:top;">:</td><td><div></div></td></tr><tr><td style="font-weight:bold;vertical-align:top;">path</td><td style="vertical-align:top;">:</td><td><div></div></td></tr><tr><td style="font-weight:bold;vertical-align:top;">secure</td><td style="vertical-align:top;">:</td><td><div></div></td></tr><tr><td style="font-weight:bold;vertical-align:top;">version</td><td style="vertical-align:top;">:</td><td><div></div></td></tr></table></div></td></tr></table></div></td></tr><tr><td style="font-weight:bold;vertical-align:top;">env</td><td style="vertical-align:top;">:</td><td><div><table><tr><td style="font-weight:bold;vertical-align:top;">HTTP_ACCEPT</td><td style="vertical-align:top;">:</td><td><div>text/html,application/xhtml+xml,application/xml;q=0.9,*/*;q=0.8</div></td></tr><tr><td style="font-weight:bold;vertical-align:top;">HTTP_ACCEPT_ENCODING</td><td style="vertical-align:top;">:</td><td><div>gzip,deflate,sdch</div></td></tr><tr><td style="font-weight:bold;vertical-align:top;">HTTP_ACCEPT_LANGUAGE</td><td style="vertical-align:top;">:</td><td><div>es,es-419;q=0.8,en-US;q=0.6,en;q=0.4</div></td></tr><tr><td style="font-weight:bold;vertical-align:top;">HTTP_CACHE_CONTROL</td><td style="vertical-align:top;">:</td><td><div>max-age=0</div></td></tr><tr><td style="font-weight:bold;vertical-align:top;">HTTP_CONNECTION</td><td style="vertical-align:top;">:</td><td><div>keep-alive</div></td></tr><tr><td style="font-weight:bold;vertical-align:top;">HTTP_COOKIE</td><td style="vertical-align:top;">:</td><td><div>session_id_seacat_ingresos=127.0.0.1-1d826f80-50ef-4a6e-8075-7113b50cabc9; session_id_admin=127.0.0.1-890a02b4-d81a-452d-b5f4-fe4e888bcdeb</div></td></tr><tr><td style="font-weight:bold;vertical-align:top;">HTTP_HOST</td><td style="vertical-align:top;">:</td><td><div>127.0.0.1:8000</div></td></tr><tr><td style="font-weight:bold;vertical-align:top;">HTTP_USER_AGENT</td><td style="vertical-align:top;">:</td><td><div>Mozilla/5.0 (X11; Linux x86_64) AppleWebKit/537.36 (KHTML, like Gecko) Chrome/28.0.1500.95 Safari/537.36</div></td></tr><tr><td style="font-weight:bold;vertical-align:top;">PATH_INFO</td><td style="vertical-align:top;">:</td><td><div>/SEACAT_ingresos/default/new_personal_data</div></td></tr><tr><td style="font-weight:bold;vertical-align:top;">QUERY_STRING</td><td style="vertical-align:top;">:</td><td><div></div></td></tr><tr><td style="font-weight:bold;vertical-align:top;">REMOTE_ADDR</td><td style="vertical-align:top;">:</td><td><div>127.0.0.1</div></td></tr><tr><td style="font-weight:bold;vertical-align:top;">REMOTE_PORT</td><td style="vertical-align:top;">:</td><td><div>49477</div></td></tr><tr><td style="font-weight:bold;vertical-align:top;">REQUEST_METHOD</td><td style="vertical-align:top;">:</td><td><div>GET</div></td></tr><tr><td style="font-weight:bold;vertical-align:top;">SCRIPT_NAME</td><td style="vertical-align:top;">:</td><td><div></div></td></tr><tr><td style="font-weight:bold;vertical-align:top;">SERVER_NAME</td><td style="vertical-align:top;">:</td><td><div>larrea-lmde</div></td></tr><tr><td style="font-weight:bold;vertical-align:top;">SERVER_PORT</td><td style="vertical-align:top;">:</td><td><div>8000</div></td></tr><tr><td style="font-weight:bold;vertical-align:top;">SERVER_PROTOCOL</td><td style="vertical-align:top;">:</td><td><div>HTTP/1.1</div></td></tr><tr><td style="font-weight:bold;vertical-align:top;">SERVER_SOFTWARE</td><td style="vertical-align:top;">:</td><td><div>Rocket 1.2.6</div></td></tr><tr><td style="font-weight:bold;vertical-align:top;">app_folders</td><td style="vertical-align:top;">:</td><td><div>set([&#x27;/home/leo/Dropbox/web2py/applications/SEACAT_ingresos/&#x27;, &#x27;/home/leo/Dropbox/web2py/applications/admin/&#x27;, &#x27;/home/leo/Dropbox/web2py/applications/welcome/&#x27;])</div></td></tr><tr><td style="font-weight:bold;vertical-align:top;">applications_parent</td><td style="vertical-align:top;">:</td><td><div>/home/leo/Dropbox/web2py</div></td></tr><tr><td style="font-weight:bold;vertical-align:top;">cmd_args</td><td style="vertical-align:top;">:</td><td><div><table></table></div></td></tr><tr><td style="font-weight:bold;vertical-align:top;">cmd_options</td><td style="vertical-align:top;">:</td><td><div>&lt;Values at 0x2c0aa28: {&#x27;verbose&#x27;: False, &#x27;ip&#x27;: &#x27;127.0.0.1&#x27;, &#x27;debuglevel&#x27;: 30, &#x27;with_scheduler&#x27;: False, &#x27;ips&#x27;: [&#x27;127.0.1.1&#x27;], &#x27;shutdown_timeout&#x27;: 5, &#x27;taskbar&#x27;: False, &#x27;with_coverage&#x27;: False, &#x27;port&#x27;: 8000, &#x27;maxthreads&#x27;: None, &#x27;softcron&#x27;: False, &#x27;server_name&#x27;: &#x27;larrea-lmde&#x27;, &#x27;bpython&#x27;: False, &#x27;nogui&#x27;: False, &#x27;pid_filename&#x27;: &#x27;httpserver.pid&#x27;, &#x27;extcron&#x27;: False, &#x27;runcron&#x27;: False, &#x27;run_system_tests&#x27;: False, &#x27;test&#x27;: None, &#x27;folder&#x27;: &#x27;/home/leo/Dropbox/web2py&#x27;, &#x27;config&#x27;: &#x27;&#x27;, &#x27;minthreads&#x27;: None, &#x27;shell&#x27;: None, &#x27;run&#x27;: &#x27;&#x27;, &#x27;log_filename&#x27;: &#x27;httpserver.log&#x27;, &#x27;profiler_dir&#x27;: None, &#x27;args&#x27;: [&#x27;&#x27;], &#x27;socket_timeout&#x27;: 5, &#x27;ssl_ca_certificate&#x27;: None, &#x27;scheduler&#x27;: None, &#x27;interfaces&#x27;: None, &#x27;ssl_private_key&#x27;: &#x27;&#x27;, &#x27;scheduler_groups&#x27;: None, &#x27;password&#x27;: &#x27;&lt;ask&gt;&#x27;, &#x27;request_queue_size&#x27;: 5, &#x27;ssl_certificate&#x27;: &#x27;&#x27;, &#x27;cronjob&#x27;: False, &#x27;numthreads&#x27;: None, &#x27;quiet&#x27;: False, &#x27;import_models&#x27;: False, &#x27;timeout&#x27;: 10, &#x27;plain&#x27;: False, &#x27;nobanner&#x27;: False}&gt;</div></td></tr><tr><td style="font-weight:bold;vertical-align:top;">db_sessions</td><td style="vertical-align:top;">:</td><td><div>set([])</div></td></tr><tr><td style="font-weight:bold;vertical-align:top;">debugging</td><td style="vertical-align:top;">:</td><td><div>True</div></td></tr><tr><td style="font-weight:bold;vertical-align:top;">gluon_parent</td><td style="vertical-align:top;">:</td><td><div>/home/leo/Dropbox/web2py</div></td></tr><tr><td style="font-weight:bold;vertical-align:top;">http_accept</td><td style="vertical-align:top;">:</td><td><div>text/html,application/xhtml+xml,application/xml;q=0.9,*/*;q=0.8</div></td></tr><tr><td style="font-weight:bold;vertical-align:top;">http_accept_encoding</td><td style="vertical-align:top;">:</td><td><div>gzip,deflate,sdch</div></td></tr><tr><td style="font-weight:bold;vertical-align:top;">http_accept_language</td><td style="vertical-align:top;">:</td><td><div>es,es-419;q=0.8,en-US;q=0.6,en;q=0.4</div></td></tr><tr><td style="font-weight:bold;vertical-align:top;">http_cache_control</td><td style="vertical-align:top;">:</td><td><div>max-age=0</div></td></tr><tr><td style="font-weight:bold;vertical-align:top;">http_connection</td><td style="vertical-align:top;">:</td><td><div>keep-alive</div></td></tr><tr><td style="font-weight:bold;vertical-align:top;">http_cookie</td><td style="vertical-align:top;">:</td><td><div>session_id_seacat_ingresos=127.0.0.1-1d826f80-50ef-4a6e-8075-7113b50cabc9; session_id_admin=127.0.0.1-890a02b4-d81a-452d-b5f4-fe4e888bcdeb</div></td></tr><tr><td style="font-weight:bold;vertical-align:top;">http_host</td><td style="vertical-align:top;">:</td><td><div>127.0.0.1:8000</div></td></tr><tr><td style="font-weight:bold;vertical-align:top;">http_user_agent</td><td style="vertical-align:top;">:</td><td><div>Mozilla/5.0 (X11; Linux x86_64) AppleWebKit/537.36 (KHTML, like Gecko) Chrome/28.0.1500.95 Safari/537.36</div></td></tr><tr><td style="font-weight:bold;vertical-align:top;">is_jython</td><td style="vertical-align:top;">:</td><td><div>False</div></td></tr><tr><td style="font-weight:bold;vertical-align:top;">is_pypy</td><td style="vertical-align:top;">:</td><td><div>False</div></td></tr><tr><td style="font-weight:bold;vertical-align:top;">is_source</td><td style="vertical-align:top;">:</td><td><div>True</div></td></tr><tr><td style="font-weight:bold;vertical-align:top;">local_hosts</td><td style="vertical-align:top;">:</td><td><div><table><tr><td><div>127.0.1.1</div></td></tr><tr><td><div>::1</div></td></tr><tr><td><div>larrea-lmde</div></td></tr><tr><td><div>::ffff:127.0.0.1</div></td></tr><tr><td><div>127.0.0.1</div></td></tr></table></div></td></tr><tr><td style="font-weight:bold;vertical-align:top;">path_info</td><td style="vertical-align:top;">:</td><td><div>/SEACAT_ingresos/default/new_personal_data</div></td></tr><tr><td style="font-weight:bold;vertical-align:top;">query_string</td><td style="vertical-align:top;">:</td><td><div></div></td></tr><tr><td style="font-weight:bold;vertical-align:top;">remote_addr</td><td style="vertical-align:top;">:</td><td><div>127.0.0.1</div></td></tr><tr><td style="font-weight:bold;vertical-align:top;">remote_port</td><td style="vertical-align:top;">:</td><td><div>49477</div></td></tr><tr><td style="font-weight:bold;vertical-align:top;">request_method</td><td style="vertical-align:top;">:</td><td><div>GET</div></td></tr><tr><td style="font-weight:bold;vertical-align:top;">request_uri</td><td style="vertical-align:top;">:</td><td><div>/SEACAT_ingresos/default/new_personal_data</div></td></tr><tr><td style="font-weight:bold;vertical-align:top;">script_name</td><td style="vertical-align:top;">:</td><td><div></div></td></tr><tr><td style="font-weight:bold;vertical-align:top;">server_name</td><td style="vertical-align:top;">:</td><td><div>larrea-lmde</div></td></tr><tr><td style="font-weight:bold;vertical-align:top;">server_port</td><td style="vertical-align:top;">:</td><td><div>8000</div></td></tr><tr><td style="font-weight:bold;vertical-align:top;">server_protocol</td><td style="vertical-align:top;">:</td><td><div>HTTP/1.1</div></td></tr><tr><td style="font-weight:bold;vertical-align:top;">server_software</td><td style="vertical-align:top;">:</td><td><div>Rocket 1.2.6</div></td></tr><tr><td style="font-weight:bold;vertical-align:top;">web2py_path</td><td style="vertical-align:top;">:</td><td><div>/home/leo/Dropbox/web2py</div></td></tr><tr><td style="font-weight:bold;vertical-align:top;">web2py_version</td><td style="vertical-align:top;">:</td><td><div>2.8.2-stable+timestamp.2013.11.28.13.54.07</div></td></tr><tr><td style="font-weight:bold;vertical-align:top;">wsgi.errors</td><td style="vertical-align:top;">:</td><td><div>&lt;open file &#x27;&lt;stderr&gt;&#x27;, mode &#x27;w&#x27; at 0x7f53b0a891e0&gt;</div></td></tr><tr><td style="font-weight:bold;vertical-align:top;">wsgi.file_wrapper</td><td style="vertical-align:top;">:</td><td><div>&lt;class wsgiref.util.FileWrapper at 0x2830050&gt;</div></td></tr><tr><td style="font-weight:bold;vertical-align:top;">wsgi.input</td><td style="vertical-align:top;">:</td><td><div>&lt;socket._fileobject object at 0x7f538c2adf50&gt;</div></td></tr><tr><td style="font-weight:bold;vertical-align:top;">wsgi.multiprocess</td><td style="vertical-align:top;">:</td><td><div>False</div></td></tr><tr><td style="font-weight:bold;vertical-align:top;">wsgi.multithread</td><td style="vertical-align:top;">:</td><td><div>True</div></td></tr><tr><td style="font-weight:bold;vertical-align:top;">wsgi.run_once</td><td style="vertical-align:top;">:</td><td><div>False</div></td></tr><tr><td style="font-weight:bold;vertical-align:top;">wsgi.url_scheme</td><td style="vertical-align:top;">:</td><td><div>http</div></td></tr><tr><td style="font-weight:bold;vertical-align:top;">wsgi.version</td><td style="vertical-align:top;">:</td><td><div><table><tr><td><div>1</div></td></tr><tr><td><div>0</div></td></tr></table></div></td></tr><tr><td style="font-weight:bold;vertical-align:top;">wsgi_errors</td><td style="vertical-align:top;">:</td><td><div>&lt;open file &#x27;&lt;stderr&gt;&#x27;, mode &#x27;w&#x27; at 0x7f53b0a891e0&gt;</div></td></tr><tr><td style="font-weight:bold;vertical-align:top;">wsgi_file_wrapper</td><td style="vertical-align:top;">:</td><td><div>&lt;class wsgiref.util.FileWrapper at 0x2830050&gt;</div></td></tr><tr><td style="font-weight:bold;vertical-align:top;">wsgi_input</td><td style="vertical-align:top;">:</td><td><div>&lt;socket._fileobject object at 0x7f538c2adf50&gt;</div></td></tr><tr><td style="font-weight:bold;vertical-align:top;">wsgi_multiprocess</td><td style="vertical-align:top;">:</td><td><div>False</div></td></tr><tr><td style="font-weight:bold;vertical-align:top;">wsgi_multithread</td><td style="vertical-align:top;">:</td><td><div>True</div></td></tr><tr><td style="font-weight:bold;vertical-align:top;">wsgi_run_once</td><td style="vertical-align:top;">:</td><td><div>False</div></td></tr><tr><td style="font-weight:bold;vertical-align:top;">wsgi_url_scheme</td><td style="vertical-align:top;">:</td><td><div>http</div></td></tr><tr><td style="font-weight:bold;vertical-align:top;">wsgi_version</td><td style="vertical-align:top;">:</td><td><div><table><tr><td><div>1</div></td></tr><tr><td><div>0</div></td></tr></table></div></td></tr></table></div></td></tr><tr><td style="font-weight:bold;vertical-align:top;">extension</td><td style="vertical-align:top;">:</td><td><div>html</div></td></tr><tr><td style="font-weight:bold;vertical-align:top;">folder</td><td style="vertical-align:top;">:</td><td><div>/home/leo/Dropbox/web2py/applications/SEACAT_ingresos/</div></td></tr><tr><td style="font-weight:bold;vertical-align:top;">function</td><td style="vertical-align:top;">:</td><td><div>new_personal_data</div></td></tr><tr><td style="font-weight:bold;vertical-align:top;">global_settings</td><td style="vertical-align:top;">:</td><td><div><table><tr><td style="font-weight:bold;vertical-align:top;">app_folders</td><td style="vertical-align:top;">:</td><td><div>set([&#x27;/home/leo/Dropbox/web2py/applications/SEACAT_ingresos/&#x27;, &#x27;/home/leo/Dropbox/web2py/applications/admin/&#x27;, &#x27;/home/leo/Dropbox/web2py/applications/welcome/&#x27;])</div></td></tr><tr><td style="font-weight:bold;vertical-align:top;">applications_parent</td><td style="vertical-align:top;">:</td><td><div>/home/leo/Dropbox/web2py</div></td></tr><tr><td style="font-weight:bold;vertical-align:top;">cmd_args</td><td style="vertical-align:top;">:</td><td><div><table></table></div></td></tr><tr><td style="font-weight:bold;vertical-align:top;">cmd_options</td><td style="vertical-align:top;">:</td><td><div>&lt;Values at 0x2c0aa28: {&#x27;verbose&#x27;: False, &#x27;ip&#x27;: &#x27;127.0.0.1&#x27;, &#x27;debuglevel&#x27;: 30, &#x27;with_scheduler&#x27;: False, &#x27;ips&#x27;: [&#x27;127.0.1.1&#x27;], &#x27;shutdown_timeout&#x27;: 5, &#x27;taskbar&#x27;: False, &#x27;with_coverage&#x27;: False, &#x27;port&#x27;: 8000, &#x27;maxthreads&#x27;: None, &#x27;softcron&#x27;: False, &#x27;server_name&#x27;: &#x27;larrea-lmde&#x27;, &#x27;bpython&#x27;: False, &#x27;nogui&#x27;: False, &#x27;pid_filename&#x27;: &#x27;httpserver.pid&#x27;, &#x27;extcron&#x27;: False, &#x27;runcron&#x27;: False, &#x27;run_system_tests&#x27;: False, &#x27;test&#x27;: None, &#x27;folder&#x27;: &#x27;/home/leo/Dropbox/web2py&#x27;, &#x27;config&#x27;: &#x27;&#x27;, &#x27;minthreads&#x27;: None, &#x27;shell&#x27;: None, &#x27;run&#x27;: &#x27;&#x27;, &#x27;log_filename&#x27;: &#x27;httpserver.log&#x27;, &#x27;profiler_dir&#x27;: None, &#x27;args&#x27;: [&#x27;&#x27;], &#x27;socket_timeout&#x27;: 5, &#x27;ssl_ca_certificate&#x27;: None, &#x27;scheduler&#x27;: None, &#x27;interfaces&#x27;: None, &#x27;ssl_private_key&#x27;: &#x27;&#x27;, &#x27;scheduler_groups&#x27;: None, &#x27;password&#x27;: &#x27;&lt;ask&gt;&#x27;, &#x27;request_queue_size&#x27;: 5, &#x27;ssl_certificate&#x27;: &#x27;&#x27;, &#x27;cronjob&#x27;: False, &#x27;numthreads&#x27;: None, &#x27;quiet&#x27;: False, &#x27;import_models&#x27;: False, &#x27;timeout&#x27;: 10, &#x27;plain&#x27;: False, &#x27;nobanner&#x27;: False}&gt;</div></td></tr><tr><td style="font-weight:bold;vertical-align:top;">db_sessions</td><td style="vertical-align:top;">:</td><td><div>set([])</div></td></tr><tr><td style="font-weight:bold;vertical-align:top;">debugging</td><td style="vertical-align:top;">:</td><td><div>True</div></td></tr><tr><td style="font-weight:bold;vertical-align:top;">gluon_parent</td><td style="vertical-align:top;">:</td><td><div>/home/leo/Dropbox/web2py</div></td></tr><tr><td style="font-weight:bold;vertical-align:top;">is_jython</td><td style="vertical-align:top;">:</td><td><div>False</div></td></tr><tr><td style="font-weight:bold;vertical-align:top;">is_pypy</td><td style="vertical-align:top;">:</td><td><div>False</div></td></tr><tr><td style="font-weight:bold;vertical-align:top;">is_source</td><td style="vertical-align:top;">:</td><td><div>True</div></td></tr><tr><td style="font-weight:bold;vertical-align:top;">local_hosts</td><td style="vertical-align:top;">:</td><td><div><table><tr><td><div>127.0.1.1</div></td></tr><tr><td><div>::1</div></td></tr><tr><td><div>larrea-lmde</div></td></tr><tr><td><div>::ffff:127.0.0.1</div></td></tr><tr><td><div>127.0.0.1</div></td></tr></table></div></td></tr><tr><td style="font-weight:bold;vertical-align:top;">web2py_version</td><td style="vertical-align:top;">:</td><td><div>2.8.2-stable+timestamp.2013.11.28.13.54.07</div></td></tr></table></div></td></tr><tr><td style="font-weight:bold;vertical-align:top;">is_https</td><td style="vertical-align:top;">:</td><td><div>False</div></td></tr><tr><td style="font-weight:bold;vertical-align:top;">is_local</td><td style="vertical-align:top;">:</td><td><div>True</div></td></tr><tr><td style="font-weight:bold;vertical-align:top;">is_restful</td><td style="vertical-align:top;">:</td><td><div>False</div></td></tr><tr><td style="font-weight:bold;vertical-align:top;">now</td><td style="vertical-align:top;">:</td><td><div>datetime.datetime(2014, 1, 17, 17, 14, 51, 287021)</div></td></tr><tr><td style="font-weight:bold;vertical-align:top;">raw_args</td><td style="vertical-align:top;">:</td><td><div></div></td></tr><tr><td style="font-weight:bold;vertical-align:top;">raw_extension</td><td style="vertical-align:top;">:</td><td><div>None</div></td></tr><tr><td style="font-weight:bold;vertical-align:top;">url</td><td style="vertical-align:top;">:</td><td><div>/SEACAT_ingresos/default/new_personal_data</div></td></tr><tr><td style="font-weight:bold;vertical-align:top;">utcnow</td><td style="vertical-align:top;">:</td><td><div>datetime.datetime(2014, 1, 17, 20, 14, 51, 287051)</div></td></tr><tr><td style="font-weight:bold;vertical-align:top;">uuid</td><td style="vertical-align:top;">:</td><td><div>SEACAT_ingresos/127.0.0.1.2014-01-17.17-14-51.ab3c72f6-77b9-4b26-a259-097ebf4bb3ed</div></td></tr><tr><td style="font-weight:bold;vertical-align:top;">wsgi</td><td style="vertical-align:top;">:</td><td><div>&lt;gluon.main.LazyWSGI object at 0x7f538c2077d0&gt;</div></td></tr></table></div>'
tRp62
sS'frames'
p63
(lp64
(dp65
S'file'
p66
S'/home/leo/Dropbox/web2py/gluon/restricted.py'
p67
sS'dump'
p68
(dp69
S'environment'
p70
S"{'A': <class 'gluon.html.A'>, 'ANY_OF': <class 'gluon.validators.ANY_OF'>, 'Auth': <class 'gluon.tools.Auth'>, 'B': <class 'gluon.html.B'>, 'BEAUTIFY': <class 'gluon.html.BEAUTIFY'>, 'BODY': <class 'gluon.html.BODY'>, 'BR': <class 'gluon.html.BR'>, 'BUTTON': <class 'gluon.html.BUTTON'>, 'CAT': <class 'gluon.html.CAT'>, 'CENTER': <class 'gluon.html.CENTER'>, ...}"
p71
sS'ccode'
p72
S'<code object <module> at 0x7f53984b3cb0, file "/...lications/SEACAT_ingresos/models/db.py", line 12>'
p73
ssS'lnum'
p74
I217
sS'lines'
p75
(dp76
I212
S'    try:'
p77
sI213
S'        if isinstance(code, types.CodeType):'
p78
sI214
S'            ccode = code'
p79
sI215
S'        else:'
p80
sI216
S'            ccode = compile2(code, layer)'
p81
sI217
S'        exec ccode in environment'
p82
sI218
S'    except HTTP:'
p83
sI219
S'        raise'
p84
sI220
S'    except RestrictedError:'
p85
sI221
S'        # do not encapsulate (obfuscate) the original RestrictedError'
p86
ssS'call'
p87
S"(code='# -*- coding: utf-8 -*-\\n\\n#######################...ble auditing\\n# auth.enable_record_versioning(db)\\n', environment={'A': <class 'gluon.html.A'>, 'ANY_OF': <class 'gluon.validators.ANY_OF'>, 'Auth': <class 'gluon.tools.Auth'>, 'B': <class 'gluon.html.B'>, 'BEAUTIFY': <class 'gluon.html.BEAUTIFY'>, 'BODY': <class 'gluon.html.BODY'>, 'BR': <class 'gluon.html.BR'>, 'BUTTON': <class 'gluon.html.BUTTON'>, 'CAT': <class 'gluon.html.CAT'>, 'CENTER': <class 'gluon.html.CENTER'>, ...}, layer='/home/leo/Dropbox/web2py/applications/SEACAT_ingresos/models/db.py')"
p88
sS'func'
p89
S'restricted'
p90
sa(dp91
g66
S'/home/leo/Dropbox/web2py/applications/SEACAT_ingresos/models/db.py'
p92
sg68
(dp93
S'builtinformat'
p94
S'<built-in function format>'
p95
ssg74
I158
sg75
(dp96
I160
S'db.personal_data.age = Field.Virtual(lambda row: (request.now-row.personal_data.dob).years)'
p97
sI161
S''
sI162
S'## Defining new table for Priority Fathers.'
p98
sI153
S'                Field(\'photo\', \'upload\', requires=IS_IMAGE(extensions=valid_image_extensions, maxsize=photo_size), label=T("Photo")),'
p99
sI154
S'                Field(\'avatar\', \'upload\', requires=IS_IMAGE(extensions=valid_image_extensions, maxsize=avatar_size), label=T("Avatar")),'
p100
sI155
S'                Field(\'twitter\', requires=IS_URL(), label=T("Twitter Profile")),'
p101
sI156
S'                Field(\'facebook\', requires=IS_URL(), label=T("Facebook Profile")),'
p102
sI157
S'                Field(\'obs\', \'text\', label=T("Observations")),'
p103
sI158
S"                format='%(doc)s'"
p104
sI159
S'                )'
p105
ssg87
S'()'
p106
sg89
S'<module>'
p107
sa(dp108
g66
S'/home/leo/Dropbox/web2py/gluon/dal.py'
p109
sg68
(dp110
S'fields'
p111
S'(<gluon.dal.Field object>, <gluon.dal.Field object>, <gluon.dal.Field object>, <gluon.dal.Field object>, <gluon.dal.Field object>, <gluon.dal.Field object>, <gluon.dal.Field object>, <gluon.dal.Field object>, <gluon.dal.Field object>, <gluon.dal.Field object>, <gluon.dal.Field object>, <gluon.dal.Field object>, <gluon.dal.Field object>, <gluon.dal.Field object>, <gluon.dal.Field object>)'
p112
sS'self'
p113
S'<DAL uri="postgres:******@wspio1.pioix.edu.ar/seacat">'
p114
sS'args'
p115
S"{'format': '%(doc)s'}"
p116
sS'tablename'
p117
S"'personal_data'"
p118
sS'table'
p119
S'undefined'
p120
sS'self.lazy_define_table'
p121
S'<bound method DAL.lazy_define_table of <DAL uri="postgres:******@wspio1.pioix.edu.ar/seacat">>'
p122
ssg74
I8139
sg75
(dp123
I8134
S'                    % (tablename,invalid_args))'
p124
sI8135
S'        if self._lazy_tables and not tablename in self._LAZY_TABLES:'
p125
sI8136
S'            self._LAZY_TABLES[tablename] = (tablename,fields,args)'
p126
sI8137
S'            table = None'
p127
sI8138
S'        else:'
p128
sI8139
S'            table = self.lazy_define_table(tablename,*fields,**args)'
p129
sI8140
S'        if not tablename in self.tables:'
p130
sI8141
S'            self.tables.append(tablename)'
p131
sI8142
S'        return table'
p132
sI8143
S''
ssg87
S'(self=<DAL uri="postgres:******@wspio1.pioix.edu.ar/seacat">, tablename=\'personal_data\', *fields=(<gluon.dal.Field object>, <gluon.dal.Field object>, <gluon.dal.Field object>, <gluon.dal.Field object>, <gluon.dal.Field object>, <gluon.dal.Field object>, <gluon.dal.Field object>, <gluon.dal.Field object>, <gluon.dal.Field object>, <gluon.dal.Field object>, <gluon.dal.Field object>, <gluon.dal.Field object>, <gluon.dal.Field object>, <gluon.dal.Field object>, <gluon.dal.Field object>), **args={\'format\': \'%(doc)s\'})'
p133
sg89
S'define_table'
p134
sa(dp135
g66
S'/home/leo/Dropbox/web2py/gluon/dal.py'
p136
sg68
(dp137
S'polymodel'
p138
S'None'
p139
ssg74
I8176
sg75
(dp140
I8171
S'            try:'
p141
sI8172
S'                GLOBAL_LOCKER.acquire()'
p142
sI8173
S'                self._lastsql = self._adapter.create_table('
p143
sI8174
S'                    table,migrate=migrate,'
p144
sI8175
S'                    fake_migrate=fake_migrate,'
p145
sI8176
S'                    polymodel=polymodel)'
p146
sI8177
S'            finally:'
p147
sI8178
S'                GLOBAL_LOCKER.release()'
p148
sI8179
S'        else:'
p149
sI8180
S'            table._dbt = None'
p150
ssg87
S'(self=<DAL uri="postgres:******@wspio1.pioix.edu.ar/seacat">, tablename=\'personal_data\', *fields=(<gluon.dal.Field object>, <gluon.dal.Field object>, <gluon.dal.Field object>, <gluon.dal.Field object>, <gluon.dal.Field object>, <gluon.dal.Field object>, <gluon.dal.Field object>, <gluon.dal.Field object>, <gluon.dal.Field object>, <gluon.dal.Field object>, <gluon.dal.Field object>, <gluon.dal.Field object>, <gluon.dal.Field object>, <gluon.dal.Field object>, <gluon.dal.Field object>), **args={\'format\': \'%(doc)s\'})'
p151
sg89
S'lazy_define_table'
p152
sa(dp153
g66
S'/home/leo/Dropbox/web2py/gluon/dal.py'
p154
sg68
(dp155
S'fake_migrate'
p156
S'False'
p157
ssg74
I1086
sg75
(dp158
I1088
S'        return query'
p159
sI1089
S''
sI1090
S'    def migrate_table('
p160
sI1081
S'            if sql_fields != sql_fields_old:'
p161
sI1082
S'                self.migrate_table('
p162
sI1083
S'                    table,'
p163
sI1084
S'                    sql_fields, sql_fields_old,'
p164
sI1085
S'                    sql_fields_aux, None,'
p165
sI1086
S'                    fake_migrate=fake_migrate'
p166
sI1087
S'                    )'
p167
ssg87
S'(self=<gluon.dal.PostgreSQLAdapter object>, table=<Table personal_data (id,doc_type,doc,nac,cuil,d...el2_type,tel2,photo,avatar,twitter,facebook,obs)>, migrate=True, fake_migrate=False, polymodel=None)'
p168
sg89
S'create_table'
p169
sa(dp170
g66
S'/home/leo/Dropbox/web2py/gluon/dal.py'
p171
sg68
(dp172
S'self'
p173
S'<gluon.dal.PostgreSQLAdapter object>'
p174
sS'self.execute'
p175
S'<bound method PostgreSQLAdapter.execute of <gluon.dal.PostgreSQLAdapter object>>'
p176
sS'sub_query'
p177
S"'ALTER TABLE personal_data ADD dob DATE NOT NULL;'"
p178
ssg74
I1194
sg75
(dp179
I1189
S'                    if fake_migrate:'
p180
sI1190
S'                        if db._adapter.commit_on_alter_table:'
p181
sI1191
S'                            self.save_dbt(table,sql_fields_current)'
p182
sI1192
S"                        self.log('faked!\\n', table)"
p183
sI1193
S'                    else:'
p184
sI1194
S'                        self.execute(sub_query)'
p185
sI1195
S'                        # Caveat: mysql, oracle and firebird'
p186
sI1196
S'                        # do not allow multiple alter table'
p187
sI1197
S'                        # in one transaction so we must commit'
p188
sI1198
S'                        # partial transactions and'
p189
ssg87
S'(self=<gluon.dal.PostgreSQLAdapter object>, table=<Table personal_data (id,doc_type,doc,nac,cuil,d...el2_type,tel2,photo,avatar,twitter,facebook,obs)>, sql_fields={\'avatar\': {\'length\': 512, \'notnull\': False, \'sortable\': 13, \'sql\': \'VARCHAR(512)\', \'type\': \'upload\', \'unique\': False}, \'cuil\': {\'length\': 11, \'notnull\': True, \'sortable\': 5, \'sql\': \'VARCHAR(11) NOT NULL UNIQUE\', \'type\': \'string\', \'unique\': True}, \'dob\': {\'length\': 512, \'notnull\': True, \'sortable\': 6, \'sql\': \'DATE NOT NULL\', \'type\': \'date\', \'unique\': False}, \'doc\': {\'length\': 8, \'notnull\': True, \'sortable\': 3, \'sql\': \'VARCHAR(8) NOT NULL UNIQUE\', \'type\': \'string\', \'unique\': True}, \'doc_type\': {\'length\': 512, \'notnull\': True, \'sortable\': 2, \'sql\': \'VARCHAR(512) NOT NULL\', \'type\': \'string\', \'unique\': False}, \'facebook\': {\'length\': 512, \'notnull\': False, \'sortable\': 15, \'sql\': \'VARCHAR(512)\', \'type\': \'string\', \'unique\': False}, \'id\': {\'length\': 512, \'notnull\': False, \'sortable\': 1, \'sql\': \'SERIAL PRIMARY KEY\', \'type\': \'id\', \'unique\': False}, \'mail2\': {\'length\': 512, \'notnull\': False, \'sortable\': 7, \'sql\': \'VARCHAR(512)\', \'type\': \'string\', \'unique\': False}, \'nac\': {\'length\': 512, \'notnull\': True, \'sortable\': 4, \'sql\': \'VARCHAR(512) NOT NULL\', \'type\': \'string\', \'unique\': False}, \'obs\': {\'length\': 32768, \'notnull\': False, \'sortable\': 16, \'sql\': \'TEXT\', \'type\': \'text\', \'unique\': False}, ...}, sql_fields_old={\'avatar\': {\'length\': 512L, \'notnull\': 0L, \'sortable\': 15L, \'sql\': \'VARCHAR(512)\', \'type\': \'upload\', \'unique\': 0L}, \'cuil\': {\'length\': 11L, \'notnull\': 1L, \'sortable\': 4L, \'sql\': \'VARCHAR(11) NOT NULL UNIQUE\', \'type\': \'string\', \'unique\': 1L}, \'doc\': {\'length\': 8L, \'notnull\': 1L, \'sortable\': 3L, \'sql\': \'VARCHAR(8) NOT NULL UNIQUE\', \'type\': \'string\', \'unique\': 1L}, \'doc_type\': {\'length\': 512L, \'notnull\': 1L, \'sortable\': 2L, \'sql\': \'VARCHAR(512) NOT NULL\', \'type\': \'string\', \'unique\': 0L}, \'facebook\': {\'length\': 512L, \'notnull\': 0L, \'sortable\': 17L, \'sql\': \'VARCHAR(512)\', \'type\': \'string\', \'unique\': 0L}, \'id\': {\'length\': 512L, \'notnull\': 0L, \'sortable\': 1L, \'sql\': \'SERIAL PRIMARY KEY\', \'type\': \'id\', \'unique\': 0L}, \'mail2\': {\'length\': 512L, \'notnull\': 0L, \'sortable\': 9L, \'sql\': \'VARCHAR(512)\', \'type\': \'string\', \'unique\': 0L}, \'nac\': {\'length\': 512L, \'notnull\': 1L, \'sortable\': 6L, \'sql\': \'VARCHAR(512) NOT NULL\', \'type\': \'string\', \'unique\': 0L}, \'obs\': {\'length\': 32768L, \'notnull\': 0L, \'sortable\': 18L, \'sql\': \'TEXT\', \'type\': \'text\', \'unique\': 0L}, \'photo\': {\'length\': 512L, \'notnull\': 0L, \'sortable\': 14L, \'sql\': \'VARCHAR(512)\', \'type\': \'upload\', \'unique\': 0L}, ...}, sql_fields_aux={\'avatar\': {\'sql\': \'VARCHAR(512)\'}, \'cuil\': {\'sql\': \'VARCHAR(11) NOT NULL UNIQUE\'}, \'dob\': {\'sql\': \'DATE NOT NULL\'}, \'doc\': {\'sql\': \'VARCHAR(8) NOT NULL UNIQUE\'}, \'doc_type\': {\'sql\': "VARCHAR(512) NOT NULL DEFAULT \'DNI\'"}, \'facebook\': {\'sql\': \'VARCHAR(512)\'}, \'id\': {\'sql\': \'SERIAL PRIMARY KEY\'}, \'mail2\': {\'sql\': \'VARCHAR(512)\'}, \'nac\': {\'sql\': "VARCHAR(512) NOT NULL DEFAULT \'Argentina\'"}, \'obs\': {\'sql\': \'TEXT\'}, ...}, logfile=None, fake_migrate=False)'
p190
sg89
S'migrate_table'
p191
sa(dp192
g66
S'/home/leo/Dropbox/web2py/gluon/dal.py'
p193
sg68
(dp194
S'a'
S"('ALTER TABLE personal_data ADD dob DATE NOT NULL;',)"
p195
sS'self'
p196
S'<gluon.dal.PostgreSQLAdapter object>'
p197
sS'b'
g21
sS'self.log_execute'
p198
S'<bound method PostgreSQLAdapter.log_execute of <gluon.dal.PostgreSQLAdapter object>>'
p199
ssg74
I1916
sg75
(dp200
I1920
S'        if isinstance(obj, CALLABLETYPES):'
p201
sI1911
S'        self.db._timings.append((command,time.time()-t0))'
p202
sI1912
S'        del self.db._timings[:-TIMINGSSIZE]'
p203
sI1913
S'        return ret'
p204
sI1914
S''
sI1915
S'    def execute(self, *a, **b):'
p205
sI1916
S'        return self.log_execute(*a, **b)'
p206
sI1917
S''
sI1918
S'    def represent(self, obj, fieldtype):'
p207
sI1919
S'        field_is_type = fieldtype.startswith'
p208
ssg87
S"(self=<gluon.dal.PostgreSQLAdapter object>, *a=('ALTER TABLE personal_data ADD dob DATE NOT NULL;',), **b={})"
p209
sg89
S'execute'
p210
sa(dp211
g66
S'/home/leo/Dropbox/web2py/gluon/dal.py'
p212
sg68
(dp213
S'a'
S"('ALTER TABLE personal_data ADD dob DATE NOT NULL;',)"
p214
sS'b'
g21
sS'self'
p215
S'<gluon.dal.PostgreSQLAdapter object>'
p216
sS'ret'
p217
g120
sS'self.cursor'
p218
S'<gluon.contrib.pg8000.dbapi.CursorWrapper object>'
p219
sS'command'
p220
S"'ALTER TABLE personal_data ADD dob DATE NOT NULL;'"
p221
sS'self.cursor.execute'
p222
S'<bound method CursorWrapper._fn of <gluon.contrib.pg8000.dbapi.CursorWrapper object>>'
p223
ssg74
I1910
sg75
(dp224
I1905
S'            command = self.filter_sql_command(command)'
p225
sI1906
S'        if self.db._debug:'
p226
sI1907
S"            LOGGER.debug('SQL: %s' % command)"
p227
sI1908
S'        self.db._lastsql = command'
p228
sI1909
S'        t0 = time.time()'
p229
sI1910
S'        ret = self.cursor.execute(command, *a[1:], **b)'
p230
sI1911
S'        self.db._timings.append((command,time.time()-t0))'
p231
sI1912
S'        del self.db._timings[:-TIMINGSSIZE]'
p232
sI1913
S'        return ret'
p233
sI1914
S''
ssg87
S"(self=<gluon.dal.PostgreSQLAdapter object>, *a=('ALTER TABLE personal_data ADD dob DATE NOT NULL;',), **b={})"
p234
sg89
S'log_execute'
p235
sa(dp236
g66
S'/home/leo/Dropbox/web2py/gluon/contrib/pg8000/dbapi.py'
p237
sg68
(dp238
S'self'
p239
S'<gluon.contrib.pg8000.dbapi.CursorWrapper object>'
p240
sS'args'
p241
S"('ALTER TABLE personal_data ADD dob DATE NOT NULL;',)"
p242
sS'fn'
p243
S'<function execute>'
p244
sS'kwargs'
p245
g21
ssg74
I246
sg75
(dp246
I241
S''
sI242
S'def require_open_cursor(fn):'
p247
sI243
S'    def _fn(self, *args, **kwargs):'
p248
sI244
S'        if self.cursor == None:'
p249
sI245
S'            raise CursorClosedError()'
p250
sI246
S'        return fn(self, *args, **kwargs)'
p251
sI247
S'    return _fn'
p252
sI248
S''
sI249
S'##'
p253
sI250
S'# The class of object returned by the {@link #ConnectionWrapper.cursor cursor method}.'
p254
ssg87
S"(self=<gluon.contrib.pg8000.dbapi.CursorWrapper object>, *args=('ALTER TABLE personal_data ADD dob DATE NOT NULL;',), **kwargs={})"
p255
sg89
S'_fn'
p256
sa(dp257
g66
S'/home/leo/Dropbox/web2py/gluon/contrib/pg8000/dbapi.py'
p258
sg68
(dp259
S'self._execute'
p260
S'<bound method CursorWrapper._execute of <gluon.contrib.pg8000.dbapi.CursorWrapper object>>'
p261
sS'self'
p262
S'<gluon.contrib.pg8000.dbapi.CursorWrapper object>'
p263
sS'args'
p264
S'()'
p265
sS'operation'
p266
S"'ALTER TABLE personal_data ADD dob DATE NOT NULL;'"
p267
ssg74
I317
sg75
(dp268
I320
S'        new_query, new_args = convert_paramstyle(paramstyle, operation, args)'
p269
sI321
S'        try:'
p270
sI312
S'    @require_open_cursor'
p271
sI313
S'    def execute(self, operation, args=()):'
p272
sI314
S'        if not self._connection.in_transaction:'
p273
sI315
S'            self._connection.begin()'
p274
sI316
S'        self._override_rowcount = None'
p275
sI317
S'        self._execute(operation, args)'
p276
sI318
S''
sI319
S'    def _execute(self, operation, args=()):'
p277
ssg87
S"(self=<gluon.contrib.pg8000.dbapi.CursorWrapper object>, operation='ALTER TABLE personal_data ADD dob DATE NOT NULL;', args=())"
p278
sg89
g210
sa(dp279
g66
S'/home/leo/Dropbox/web2py/gluon/contrib/pg8000/dbapi.py'
p280
sg68
(dp281
S'new_args'
p282
S'()'
p283
sS'self.cursor'
p284
S'<gluon.contrib.pg8000.interface.Cursor object>'
p285
sS'self'
p286
S'<gluon.contrib.pg8000.dbapi.CursorWrapper object>'
p287
sS'new_query'
p288
S"'ALTER TABLE personal_data ADD dob DATE NOT NULL;'"
p289
sS'self.cursor.execute'
p290
S'<bound method Cursor.execute of <gluon.contrib.pg8000.interface.Cursor object>>'
p291
ssg74
I322
sg75
(dp292
I320
S'        new_query, new_args = convert_paramstyle(paramstyle, operation, args)'
p293
sI321
S'        try:'
p294
sI322
S'            self.cursor.execute(new_query, *new_args)'
p295
sI323
S'        except ConnectionClosedError:'
p296
sI324
S"            # can't rollback in this case"
p297
sI325
S'            raise'
p298
sI326
S'        except:'
p299
sI317
S'        self._execute(operation, args)'
p300
sI318
S''
sI319
S'    def _execute(self, operation, args=()):'
p301
ssg87
S"(self=<gluon.contrib.pg8000.dbapi.CursorWrapper object>, operation='ALTER TABLE personal_data ADD dob DATE NOT NULL;', args=())"
p302
sg89
S'_execute'
p303
sa(dp304
g66
S'/home/leo/Dropbox/web2py/gluon/contrib/pg8000/interface.py'
p305
sg68
(dp306
S'self._stmt.execute'
p307
S'<bound method PreparedStatement.execute of <gluo...ntrib.pg8000.interface.PreparedStatement object>>'
p308
sS'kwargs'
p309
g21
sS'self'
p310
S'<gluon.contrib.pg8000.interface.Cursor object>'
p311
sS'args'
p312
S'()'
p313
sS'self._stmt'
p314
S'<gluon.contrib.pg8000.interface.PreparedStatement object>'
p315
ssg74
I399
sg75
(dp316
I394
S'                ## print "SimpleQuery:", query'
p317
sI395
S'                self._stmt = SimpleStatement(self.connection, query)'
p318
sI396
S'            else:'
p319
sI397
S'                # use PostgreSQL Extended Query Protocol'
p320
sI398
S'                self._stmt = PreparedStatement(self.connection, query, statement_name="", *[{"type": type(x), "value": x} for x in args])'
p321
sI399
S'            self._stmt.execute(*args, **kwargs)'
p322
sI400
S'        finally:'
p323
sI401
S'            self.connection._unnamed_prepared_statement_lock.release()'
p324
sI402
S''
sI403
S'    ##'
p325
ssg87
S"(self=<gluon.contrib.pg8000.interface.Cursor object>, query='ALTER TABLE personal_data ADD dob DATE NOT NULL;', *args=(), **kwargs={})"
p326
sg89
g210
sa(dp327
g66
S'/home/leo/Dropbox/web2py/gluon/contrib/pg8000/interface.py'
p328
sg68
(dp329
S'kwargs.get'
p330
S'<built-in method get of dict object>'
p331
sS'args'
p332
S'()'
p333
sS'self.c'
p334
S'<gluon.contrib.pg8000.protocol.Connection object>'
p335
sS'self'
p336
S'<gluon.contrib.pg8000.interface.PreparedStatement object>'
p337
sS'cmd'
p338
g120
sS'self._row_desc'
p339
S'None'
p340
sS'self.c.bind'
p341
S'<bound method Connection._fn of <gluon.contrib.pg8000.protocol.Connection object>>'
p342
sS'self._statement_name'
p343
S"''"
p344
sS'self._parse_row_desc'
p345
S'(None, [])'
p346
sS'kwargs'
p347
g21
sS'self._portal_name'
p348
S"'pg8000_portal_2284'"
p349
ssg74
I169
sg75
(dp350
I164
S'                self._ongoing_row_count = 0'
p351
sI165
S'            if self._portal_name != None:'
p352
sI166
S'                self.c.close_portal(self._portal_name)'
p353
sI167
S'            self._command_complete = False'
p354
sI168
S'            self._portal_name = "pg8000_portal_%s" % self._statement_number'
p355
sI169
S'            self._row_desc, cmd = self.c.bind(self._portal_name, self._statement_name, args, self._parse_row_desc, kwargs.get("stream"))'
p356
sI170
S'            if self._row_desc:'
p357
sI171
S'                # We execute our cursor right away to fill up our cache.  This'
p358
sI172
S'                # prevents the cursor from being destroyed, apparently, by a rogue'
p359
sI173
S'                # Sync between Bind and Execute.  Since it is quite likely that'
p360
ssg87
S'(self=<gluon.contrib.pg8000.interface.PreparedStatement object>, *args=(), **kwargs={})'
p361
sg89
g210
sa(dp362
g66
S'/home/leo/Dropbox/web2py/gluon/contrib/pg8000/protocol.py'
p363
sg68
(dp364
S'self'
p365
S'<gluon.contrib.pg8000.protocol.Connection object>'
p366
sS'args'
p367
S"('pg8000_portal_2284', '', (), (None, []), None)"
p368
sS'fn'
p369
S'<function bind>'
p370
sS'kwargs'
p371
g21
ssg74
I943
sg75
(dp372
I938
S''
sI939
S'def sync_on_error(fn):'
p373
sI940
S'    def _fn(self, *args, **kwargs):'
p374
sI941
S'        try:'
p375
sI942
S'            self._sock_lock.acquire()'
p376
sI943
S'            return fn(self, *args, **kwargs)'
p377
sI944
S'        except:'
p378
sI945
S'            self._sync()'
p379
sI946
S'            raise'
p380
sI947
S'        finally:'
p381
ssg87
S"(self=<gluon.contrib.pg8000.protocol.Connection object>, *args=('pg8000_portal_2284', '', (), (None, []), None), **kwargs={})"
p382
sg89
g256
sa(dp383
g66
S'/home/leo/Dropbox/web2py/gluon/contrib/pg8000/protocol.py'
p384
sg68
(dp385
S'reader.handle_messages'
p386
S'<bound method MessageReader.handle_messages of <gluon.contrib.pg8000.protocol.MessageReader object>>'
p387
sS'reader'
p388
S'<gluon.contrib.pg8000.protocol.MessageReader object>'
p389
ssg74
I1142
sg75
(dp390
I1137
S''
sI1138
S'        # Return the new row desc, since it will have the format types we'
p391
sI1139
S'        # asked the server for'
p392
sI1140
S'        reader.add_message(RowDescription, lambda msg: (msg, None))'
p393
sI1141
S''
sI1142
S'        return reader.handle_messages()'
p394
sI1143
S''
sI1144
S'    def _copy_in_response(self, copyin, fileobj, old_reader):'
p395
sI1145
S'        if fileobj == None:'
p396
sI1146
S'            raise CopyQueryWithoutStreamError()'
p397
ssg87
S"(self=<gluon.contrib.pg8000.protocol.Connection object>, portal='pg8000_portal_2284', statement='', params=(), parse_data=(None, []), copy_stream=None)"
p398
sg89
S'bind'
p399
sa(dp400
g66
S'/home/leo/Dropbox/web2py/gluon/contrib/pg8000/protocol.py'
p401
sg68
(dp402
S'msg'
p403
S'<gluon.contrib.pg8000.protocol.NoData object>'
p404
sS'handler'
p405
S'<bound method Connection._bind_nodata of <gluon.contrib.pg8000.protocol.Connection object>>'
p406
sS'retval'
p407
S'0'
sS'args'
p408
S"('pg8000_portal_2284', <gluon.contrib.pg8000.protocol.MessageReader object>, None)"
p409
sS'kwargs'
p410
g21
ssg74
I911
sg75
(dp411
I906
S'            msg = self._conn._read_message()'
p412
sI907
S'            msg_handled = False'
p413
sI908
S'            for (msg_class, handler, args, kwargs) in self._msgs:'
p414
sI909
S'                if isinstance(msg, msg_class):'
p415
sI910
S'                    msg_handled = True'
p416
sI911
S'                    retval = handler(msg, *args, **kwargs)'
p417
sI912
S'                    if retval:'
p418
sI913
S'                        # The handler returned a true value, meaning that the'
p419
sI914
S'                        # message loop should be aborted.'
p420
sI915
S'                        if exc != None:'
p421
ssg87
S'(self=<gluon.contrib.pg8000.protocol.MessageReader object>)'
p422
sg89
S'handle_messages'
p423
sa(dp424
g66
S'/home/leo/Dropbox/web2py/gluon/contrib/pg8000/protocol.py'
p425
sg68
(dp426
S'reader.handle_messages'
p427
S'<bound method MessageReader.handle_messages of <gluon.contrib.pg8000.protocol.MessageReader object>>'
p428
sS'reader'
p429
S'<gluon.contrib.pg8000.protocol.MessageReader object>'
p430
ssg74
I1181
sg75
(dp431
I1184
S''
sI1185
S'    @sync_on_error'
p432
sI1176
S'        reader.add_message(CopyOutResponse, self._copy_out_response, copy_stream, reader)'
p433
sI1177
S'        reader.add_message(CopyInResponse, self._copy_in_response, copy_stream, reader)'
p434
sI1178
S"        reader.add_message(CommandComplete, lambda msg, out: out.setdefault('msg', msg) and False, output)"
p435
sI1179
S'        reader.add_message(ReadyForQuery, lambda msg: 1)'
p436
sI1180
S'        reader.delay_raising_exception = True'
p437
sI1181
S'        reader.handle_messages()'
p438
sI1182
S''
sI1183
S"        old_reader.return_value((None, output['msg']))"
p439
ssg87
S"(self=<gluon.contrib.pg8000.protocol.Connection object>, msg=<gluon.contrib.pg8000.protocol.NoData object>, portal='pg8000_portal_2284', old_reader=<gluon.contrib.pg8000.protocol.MessageReader object>, copy_stream=None)"
p440
sg89
S'_bind_nodata'
p441
sa(dp442
g66
S'/home/leo/Dropbox/web2py/gluon/contrib/pg8000/protocol.py'
p443
sg68
(dp444
S'exc'
p445
S"ProgrammingError('ERROR', '23502', 'la columna \\xc2\\xabdob\\xc2\\xbb contiene valores nulos')"
p446
ssg74
I916
sg75
(dp447
I911
S'                    retval = handler(msg, *args, **kwargs)'
p448
sI912
S'                    if retval:'
p449
sI913
S'                        # The handler returned a true value, meaning that the'
p450
sI914
S'                        # message loop should be aborted.'
p451
sI915
S'                        if exc != None:'
p452
sI916
S'                            raise exc'
p453
sI917
S'                        return retval'
p454
sI918
S'                    elif hasattr(self, "_retval"):'
p455
sI919
S'                        # The handler told us to return -- used for non-true'
p456
sI920
S'                        # return values'
p457
ssg87
S'(self=<gluon.contrib.pg8000.protocol.MessageReader object>)'
p458
sg89
g423
sasS'pyver'
p459
S'Python 2.7.5+: /usr/bin/python (prefix: /usr)'
p460
sS'session'
p461
g61
(S's/\x10\x00\x00<div><table><tr><td style="font-weight:bold;vertical-align:top;">auth</td><td style="vertical-align:top;">:</td><td><div><table><tr><td style="font-weight:bold;vertical-align:top;">expiration</td><td style="vertical-align:top;">:</td><td><div>3600</div></td></tr><tr><td style="font-weight:bold;vertical-align:top;">hmac_key</td><td style="vertical-align:top;">:</td><td><div>bf676baa-ddfb-440b-bcee-0475fab069c4</div></td></tr><tr><td style="font-weight:bold;vertical-align:top;">last_visit</td><td style="vertical-align:top;">:</td><td><div>datetime.datetime(2014, 1, 17, 17, 14, 51, 287021)</div></td></tr><tr><td style="font-weight:bold;vertical-align:top;">remember</td><td style="vertical-align:top;">:</td><td><div>False</div></td></tr><tr><td style="font-weight:bold;vertical-align:top;">user</td><td style="vertical-align:top;">:</td><td><div><table><tr><td style="font-weight:bold;vertical-align:top;">address_id</td><td style="vertical-align:top;">:</td><td><div>2L</div></td></tr><tr><td style="font-weight:bold;vertical-align:top;">created_by</td><td style="vertical-align:top;">:</td><td><div>None</div></td></tr><tr><td style="font-weight:bold;vertical-align:top;">created_on</td><td style="vertical-align:top;">:</td><td><div>None</div></td></tr><tr><td style="font-weight:bold;vertical-align:top;">email</td><td style="vertical-align:top;">:</td><td><div>colomboleandro@pioix.edu.ar</div></td></tr><tr><td style="font-weight:bold;vertical-align:top;">first_name</td><td style="vertical-align:top;">:</td><td><div>Leandro</div></td></tr><tr><td style="font-weight:bold;vertical-align:top;">id</td><td style="vertical-align:top;">:</td><td><div>1L</div></td></tr><tr><td style="font-weight:bold;vertical-align:top;">is_active</td><td style="vertical-align:top;">:</td><td><div>None</div></td></tr><tr><td style="font-weight:bold;vertical-align:top;">last_login</td><td style="vertical-align:top;">:</td><td><div>datetime.datetime(2014, 1, 17, 15, 26, 24)</div></td></tr><tr><td style="font-weight:bold;vertical-align:top;">last_name</td><td style="vertical-align:top;">:</td><td><div>Colombo Vi\xc3\xb1a</div></td></tr><tr><td style="font-weight:bold;vertical-align:top;">middle_name</td><td style="vertical-align:top;">:</td><td><div>Enrique</div></td></tr><tr><td style="font-weight:bold;vertical-align:top;">modified_by</td><td style="vertical-align:top;">:</td><td><div>1L</div></td></tr><tr><td style="font-weight:bold;vertical-align:top;">modified_on</td><td style="vertical-align:top;">:</td><td><div>datetime.datetime(2014, 1, 17, 15, 26, 24)</div></td></tr><tr><td style="font-weight:bold;vertical-align:top;">obs</td><td style="vertical-align:top;">:</td><td><div></div></td></tr><tr><td style="font-weight:bold;vertical-align:top;">personal_data_id</td><td style="vertical-align:top;">:</td><td><div>7L</div></td></tr><tr><td style="font-weight:bold;vertical-align:top;">registration_id</td><td style="vertical-align:top;">:</td><td><div></div></td></tr><tr><td style="font-weight:bold;vertical-align:top;">registration_key</td><td style="vertical-align:top;">:</td><td><div></div></td></tr><tr><td style="font-weight:bold;vertical-align:top;">reset_password_key</td><td style="vertical-align:top;">:</td><td><div></div></td></tr></table></div></td></tr><tr><td style="font-weight:bold;vertical-align:top;">user_groups</td><td style="vertical-align:top;">:</td><td><div><table><tr><td style="font-weight:bold;vertical-align:top;">1</td><td style="vertical-align:top;">:</td><td><div>root</div></td></tr><tr><td style="font-weight:bold;vertical-align:top;">11</td><td style="vertical-align:top;">:</td><td><div>derivaciones</div></td></tr></table></div></td></tr></table></div></td></tr><tr><td style="font-weight:bold;vertical-align:top;">flash</td><td style="vertical-align:top;">:</td><td><div>None</div></td></tr><tr><td style="font-weight:bold;vertical-align:top;">last_orderby</td><td style="vertical-align:top;">:</td><td><div>None</div></td></tr><tr><td style="font-weight:bold;vertical-align:top;">last_query</td><td style="vertical-align:top;">:</td><td><div>db.auth_membership.id==15</div></td></tr></table></div>'
tRp462
sS'etype'
p463
S"<class 'gluon.contrib.pg8000.errors.ProgrammingError'>"
p464
sS'date'
p465
S'Fri Jan 17 17:14:54 2014'
p466
sS'response'
p467
g61
(S's\x1d\x17\x00\x00<div><table><tr><td style="font-weight:bold;vertical-align:top;">body</td><td style="vertical-align:top;">:</td><td><div>&lt;cStringIO.StringO object at 0x7f537041ea78&gt;</div></td></tr><tr><td style="font-weight:bold;vertical-align:top;">cookies</td><td style="vertical-align:top;">:</td><td><div><table><tr><td style="font-weight:bold;vertical-align:top;">session_id_seacat_ingresos</td><td style="vertical-align:top;">:</td><td><div>127.0.0.1-1d826f80-50ef-4a6e-8075-7113b50cabc9<table><tr><td style="font-weight:bold;vertical-align:top;">comment</td><td style="vertical-align:top;">:</td><td><div></div></td></tr><tr><td style="font-weight:bold;vertical-align:top;">domain</td><td style="vertical-align:top;">:</td><td><div></div></td></tr><tr><td style="font-weight:bold;vertical-align:top;">expires</td><td style="vertical-align:top;">:</td><td><div></div></td></tr><tr><td style="font-weight:bold;vertical-align:top;">httponly</td><td style="vertical-align:top;">:</td><td><div></div></td></tr><tr><td style="font-weight:bold;vertical-align:top;">max-age</td><td style="vertical-align:top;">:</td><td><div></div></td></tr><tr><td style="font-weight:bold;vertical-align:top;">path</td><td style="vertical-align:top;">:</td><td><div>/</div></td></tr><tr><td style="font-weight:bold;vertical-align:top;">secure</td><td style="vertical-align:top;">:</td><td><div></div></td></tr><tr><td style="font-weight:bold;vertical-align:top;">version</td><td style="vertical-align:top;">:</td><td><div></div></td></tr></table></div></td></tr></table></div></td></tr><tr><td style="font-weight:bold;vertical-align:top;">delimiters</td><td style="vertical-align:top;">:</td><td><div><table><tr><td><div>{{</div></td></tr><tr><td><div>}}</div></td></tr></table></div></td></tr><tr><td style="font-weight:bold;vertical-align:top;">files</td><td style="vertical-align:top;">:</td><td><div><table></table></div></td></tr><tr><td style="font-weight:bold;vertical-align:top;">flash</td><td style="vertical-align:top;">:</td><td><div></div></td></tr><tr><td style="font-weight:bold;vertical-align:top;">generic_patterns</td><td style="vertical-align:top;">:</td><td><div><table><tr><td><div>*</div></td></tr></table></div></td></tr><tr><td style="font-weight:bold;vertical-align:top;">headers</td><td style="vertical-align:top;">:</td><td><div><table><tr><td style="font-weight:bold;vertical-align:top;">X-Powered-By</td><td style="vertical-align:top;">:</td><td><div>web2py</div></td></tr></table></div></td></tr><tr><td style="font-weight:bold;vertical-align:top;">menu</td><td style="vertical-align:top;">:</td><td><div><table></table></div></td></tr><tr><td style="font-weight:bold;vertical-align:top;">meta</td><td style="vertical-align:top;">:</td><td><div><table></table></div></td></tr><tr><td style="font-weight:bold;vertical-align:top;">models_to_run</td><td style="vertical-align:top;">:</td><td><div><table><tr><td><div>^\\w+\\.py$</div></td></tr><tr><td><div>^default/\\w+\\.py$</div></td></tr><tr><td><div>^default/new_personal_data/\\w+\\.py$</div></td></tr></table></div></td></tr><tr><td style="font-weight:bold;vertical-align:top;">postprocessing</td><td style="vertical-align:top;">:</td><td><div><table></table></div></td></tr><tr><td style="font-weight:bold;vertical-align:top;">session_client</td><td style="vertical-align:top;">:</td><td><div>127.0.0.1</div></td></tr><tr><td style="font-weight:bold;vertical-align:top;">session_cookie_compression_level</td><td style="vertical-align:top;">:</td><td><div>None</div></td></tr><tr><td style="font-weight:bold;vertical-align:top;">session_cookie_expires</td><td style="vertical-align:top;">:</td><td><div>None</div></td></tr><tr><td style="font-weight:bold;vertical-align:top;">session_cookie_key</td><td style="vertical-align:top;">:</td><td><div>None</div></td></tr><tr><td style="font-weight:bold;vertical-align:top;">session_data_name</td><td style="vertical-align:top;">:</td><td><div>session_data_seacat_ingresos</div></td></tr><tr><td style="font-weight:bold;vertical-align:top;">session_file</td><td style="vertical-align:top;">:</td><td><div>&lt;open file &#x27;/home/leo/Dropbox/web2py/applications/SEACAT_ingresos/sessions/127.0.0.1-1d826f80-50ef-4a6e-8075-7113b50cabc9&#x27;, mode &#x27;rb+&#x27; at 0x7f53a444d420&gt;</div></td></tr><tr><td style="font-weight:bold;vertical-align:top;">session_filename</td><td style="vertical-align:top;">:</td><td><div>/home/leo/Dropbox/web2py/applications/SEACAT_ingresos/sessions/127.0.0.1-1d826f80-50ef-4a6e-8075-7113b50cabc9</div></td></tr><tr><td style="font-weight:bold;vertical-align:top;">session_hash</td><td style="vertical-align:top;">:</td><td><div>7bcae75f4b1ecc34e45e522c4dc36fdb</div></td></tr><tr><td style="font-weight:bold;vertical-align:top;">session_id</td><td style="vertical-align:top;">:</td><td><div>127.0.0.1-1d826f80-50ef-4a6e-8075-7113b50cabc9</div></td></tr><tr><td style="font-weight:bold;vertical-align:top;">session_id_name</td><td style="vertical-align:top;">:</td><td><div>session_id_seacat_ingresos</div></td></tr><tr><td style="font-weight:bold;vertical-align:top;">session_locked</td><td style="vertical-align:top;">:</td><td><div>True</div></td></tr><tr><td style="font-weight:bold;vertical-align:top;">session_masterapp</td><td style="vertical-align:top;">:</td><td><div>SEACAT_ingresos</div></td></tr><tr><td style="font-weight:bold;vertical-align:top;">session_new</td><td style="vertical-align:top;">:</td><td><div>False</div></td></tr><tr><td style="font-weight:bold;vertical-align:top;">session_storage_type</td><td style="vertical-align:top;">:</td><td><div>file</div></td></tr><tr><td style="font-weight:bold;vertical-align:top;">status</td><td style="vertical-align:top;">:</td><td><div>200</div></td></tr><tr><td style="font-weight:bold;vertical-align:top;">view</td><td style="vertical-align:top;">:</td><td><div>default/new_personal_data.html</div></td></tr></table></div>'
tRp468
sS'locals'
p469
(dp470
S'exc'
p471
S"ProgrammingError('ERROR', '23502', 'la columna \\xc2\\xabdob\\xc2\\xbb contiene valores nulos')"
p472
sS'msg_class'
p473
S"<class 'gluon.contrib.pg8000.protocol.ReadyForQuery'>"
p474
sS'self'
p475
S'<gluon.contrib.pg8000.protocol.MessageReader object>'
p476
sg46
S'()'
p477
sS'handler'
p478
S'<function <lambda>>'
p479
sS'kwargs'
p480
g21
sS'msg'
p481
S'<ReadyForQuery Idle in Failed Transaction>'
p482
sS'msg_handled'
p483
S'True'
p484
sS'retval'
p485
S'1'
sssS'traceback'
p486
S'Traceback (most recent call last):\n  File "/home/leo/Dropbox/web2py/gluon/restricted.py", line 217, in restricted\n    exec ccode in environment\n  File "/home/leo/Dropbox/web2py/applications/SEACAT_ingresos/models/db.py", line 158, in <module>\n    format=\'%(doc)s\'\n  File "/home/leo/Dropbox/web2py/gluon/dal.py", line 8139, in define_table\n    table = self.lazy_define_table(tablename,*fields,**args)\n  File "/home/leo/Dropbox/web2py/gluon/dal.py", line 8176, in lazy_define_table\n    polymodel=polymodel)\n  File "/home/leo/Dropbox/web2py/gluon/dal.py", line 1086, in create_table\n    fake_migrate=fake_migrate\n  File "/home/leo/Dropbox/web2py/gluon/dal.py", line 1194, in migrate_table\n    self.execute(sub_query)\n  File "/home/leo/Dropbox/web2py/gluon/dal.py", line 1916, in execute\n    return self.log_execute(*a, **b)\n  File "/home/leo/Dropbox/web2py/gluon/dal.py", line 1910, in log_execute\n    ret = self.cursor.execute(command, *a[1:], **b)\n  File "/home/leo/Dropbox/web2py/gluon/contrib/pg8000/dbapi.py", line 246, in _fn\n    return fn(self, *args, **kwargs)\n  File "/home/leo/Dropbox/web2py/gluon/contrib/pg8000/dbapi.py", line 317, in execute\n    self._execute(operation, args)\n  File "/home/leo/Dropbox/web2py/gluon/contrib/pg8000/dbapi.py", line 322, in _execute\n    self.cursor.execute(new_query, *new_args)\n  File "/home/leo/Dropbox/web2py/gluon/contrib/pg8000/interface.py", line 399, in execute\n    self._stmt.execute(*args, **kwargs)\n  File "/home/leo/Dropbox/web2py/gluon/contrib/pg8000/interface.py", line 169, in execute\n    self._row_desc, cmd = self.c.bind(self._portal_name, self._statement_name, args, self._parse_row_desc, kwargs.get("stream"))\n  File "/home/leo/Dropbox/web2py/gluon/contrib/pg8000/protocol.py", line 943, in _fn\n    return fn(self, *args, **kwargs)\n  File "/home/leo/Dropbox/web2py/gluon/contrib/pg8000/protocol.py", line 1142, in bind\n    return reader.handle_messages()\n  File "/home/leo/Dropbox/web2py/gluon/contrib/pg8000/protocol.py", line 911, in handle_messages\n    retval = handler(msg, *args, **kwargs)\n  File "/home/leo/Dropbox/web2py/gluon/contrib/pg8000/protocol.py", line 1181, in _bind_nodata\n    reader.handle_messages()\n  File "/home/leo/Dropbox/web2py/gluon/contrib/pg8000/protocol.py", line 916, in handle_messages\n    raise exc\nProgrammingError: (\'ERROR\', \'23502\', \'la columna \\xc2\\xabdob\\xc2\\xbb contiene valores nulos\')\n'
p487
s.