(dp1
S'output'
p2
S"<type 'exceptions.RuntimeError'> you must specify a Field(...,uploadfolder=...)"
p3
sS'layer'
p4
S'/home/leo/Dropbox/web2py/applications/SEACAT_ingresos/controllers/default.py'
p5
sS'code'
p6
S'# -*- coding: utf-8 -*-\n# this file is released under public domain and you can use without limitations\n\n#########################################################################\n## This is a sample controller\n## - index is the default action of any application\n## - user is required for authentication and authorization\n## - download is for downloading files uploaded in the db (does streaming)\n## - call exposes all registered services (none by default)\n#########################################################################\n\ndef index():\n    """\n    example action using the internationalization operator T and flash\n    rendered by views/default/index.html or views/generic.html\n\n    if you need a simple wiki simple replace the two lines below with:\n    return auth.wiki()\n    """\n    #response.flash = T("Bienvenido al Sistema Escolar de Administraci\xc3\xb3n de Calificaciones y Acompa\xc3\xb1amiento Tutorial (SEACAT)")\n    if not auth.is_logged_in():\n        form = auth()\n    else:\n        ## If the user is successfully logged in we store the timestamp in the DB.\n        db.auth_user[auth.user.id]=dict(last_login=request.now)\n        ## Then we redirect to the "Start Page"\n        redirect(URL(\'start\'))\n    #if form.accepts(request.vars, session):\n        #redirect(URL(\'start\'))\n    #elif form.errors:\n        #response.flash = \'Usuario/Contrase\xc3\xb1a incorrectos\'\n    #else:\n        #response.flash = \'Por favor, complete el formulario de inicio de sesi\xc3\xb3n o seleccione un bot\xc3\xb3n\'\n    return dict(message=T("Registration System"), form=form)\n\ndef info():\n    return dict(info=info)\n\n#@auth.requires_login()\n#def ingreso():\n#    auth.settings.actions_disabled = [ \'register\' ]\n#    form = auth.profile()\n#    return dict(ingreso=ingreso, form=form)\n\n@auth.requires_login()\ndef start():\n     #response.flash = T("Welcome back ") + auth.user.first_name + " " + auth.user.last_name + "!"\n     #response.flash = auth.user.id\n     return dict(start=start)\n\ndef user():\n    """\n    exposes:\n    http://..../[app]/default/user/login\n    http://..../[app]/default/user/logout\n    http://..../[app]/default/user/register\n    http://..../[app]/default/user/profile\n    http://..../[app]/default/user/retrieve_password\n    http://..../[app]/default/user/change_password\n    http://..../[app]/default/user/manage_users (requires membership in \n    use @auth.requires_login()\n        @auth.requires_membership(\'group name\')\n        @auth.requires_permission(\'read\',\'table name\',record_id)\n    to decorate functions that need access control\n    """\n    auth.settings.actions_disabled = [ \'register\' ]\n    return dict(form=auth())\n\n@cache.action()\ndef download():\n    """\n    allows downloading of uploaded files\n    http://..../[app]/default/download/[filename]\n    """\n    return response.download(request, db)\n\n\ndef call():\n    """\n    exposes services. for example:\n    http://..../[app]/default/call/jsonrpc\n    decorate with @services.jsonrpc the functions to expose\n    supports xml, json, xmlrpc, jsonrpc, amfrpc, rss, csv\n    """\n    return service()\n\n\n@auth.requires_signature()\ndef data():\n    """\n    http://..../[app]/default/data/tables\n    http://..../[app]/default/data/create/[table]\n    http://..../[app]/default/data/read/[table]/[id]\n    http://..../[app]/default/data/update/[table]/[id]\n    http://..../[app]/default/data/delete/[table]/[id]\n    http://..../[app]/default/data/select/[table]\n    http://..../[app]/default/data/search/[table]\n    but URLs must be signed, i.e. linked with\n      A(\'table\',_href=URL(\'data/tables\',user_signature=True))\n    or with the signed load operator\n      LOAD(\'default\',\'data.load\',args=\'tables\',ajax=True,user_signature=True)\n    """\n    return dict(form=crud())\n\n@auth.requires_membership(\'root\')\ndef admin_users():\n    grid = SQLFORM.smartgrid(db.auth_user,\n                             fields=[db.auth_user.id, db.auth_user.first_name, db.auth_user.middle_name, db.auth_user.last_name, db.auth_user.email, db.auth_user.obs],\n                             maxtextlengths={\'auth_user.email\': 50},\n                             showbuttontext=False,\n                             orderby=\'auth_user.last_name\',\n                             paginate=50,\n                             links_in_grid=False,\n                             exportclasses=dict(csv=True, csv_with_hidden_cols=False, json=False, tsv=False, tsv_with_hidden_cols=False, xml=True))\n    return locals()\n\n@auth.requires_membership(\'root\')\ndef admin_user_groups():\n    grid = SQLFORM.grid(db.auth_group,\n                        maxtextlengths={\'auth_group.description\': 50},\n                        showbuttontext=False,\n                        orderby=\'auth_group.role\',\n                        paginate=50,\n                        links_in_grid=False,\n                        exportclasses=dict(csv=True, csv_with_hidden_cols=False, json=False, tsv=False, tsv_with_hidden_cols=False, xml=True))\n    return locals()\n\n@auth.requires_membership(\'root\')\ndef admin_user_memberships():\n    grid = SQLFORM.smartgrid(db.auth_membership,\n                             maxtextlengths={\'auth_membership.user_id\': 50},\n                             showbuttontext=False,\n                             #orderby=db.auth_user.last_name,\n                             paginate=50,\n                             links_in_grid=False,\n                             exportclasses=dict(csv=True, csv_with_hidden_cols=False, json=False, tsv=False, tsv_with_hidden_cols=False, xml=True))\n    return locals()\n\n@auth.requires_membership(\'root\')\ndef admin_user_permissions():\n    grid = SQLFORM.smartgrid(db.auth_permission,\n                             maxtextlengths={\'auth_permission.name\': 50},\n                             showbuttontext=False,\n                             paginate=50,\n                             links_in_grid=False,\n                             exportclasses=dict(csv=True, csv_with_hidden_cols=False, json=False, tsv=False, tsv_with_hidden_cols=False, xml=True))\n    return locals()\n\n@auth.requires_membership(\'root\')\ndef upload_image():\n    grid = SQLFORM.smartgrid(db.images)\n    return locals()\n\n@auth.requires_permission(\'create new father\', db.auth_user)\ndef new_father():\n    form = SQLFORM.factory(\n                           Field(\'first_name\', required=True, requires=IS_NOT_EMPTY(), label=T("First Name")),\n                           Field(\'middle_name\', label=T("Middle Name")),\n                           Field(\'last_name\', required=True, requires=IS_NOT_EMPTY(), label=T("Last Name")),\n                           Field(\'email\', required=True, requires=[IS_EMAIL(),\n                                                                   IS_NOT_IN_DB(db, \'auth_user.email\',\n                                                                                            error_message=T("This email is already in our database, please choose another one"))],\n                                                                                            label=T("email")),\n                           Field(\'password\', required=True, requires=[IS_MATCH(\'\\d{8}\', error_message=T("Please, only numbers")), CRYPT()], label=T("Document")),\n                           Field(\'obs\', \'text\', label=T("Observations"))\n                           )\n    if form.process().accepted:\n        new_user_id = db.auth_user.insert(first_name=form.vars.first_name,\n                                          middle_name=form.vars.middle_name,\n                                          last_name=form.vars.last_name,\n                                          email=form.vars.email,\n                                          password=form.vars.password,\n                                          obs=form.vars.obs)\n        db.auth_membership.insert(user_id=new_user_id,\n                                  group_id=db.auth_group(role=\'padre\').id)\n        response.flash = T("new record inserted")\n        redirect(URL(\'start\'))\n    elif form.errors:\n        response.flash = T("Form has errors")\n    return dict(form=form)\n\n@auth.requires_permission(\'create new user\', db.auth_user)\ndef new_user():\n    form = SQLFORM.factory(\n                           Field(\'first_name\', required=True, requires=IS_NOT_EMPTY(), label=T("First Name")),\n                           Field(\'middle_name\', label=T("Middle Name")),\n                           Field(\'last_name\', required=True, requires=IS_NOT_EMPTY(), label=T("Last Name")),\n                           Field(\'email\', required=True, requires=[IS_EMAIL(),\n                                                                   IS_NOT_IN_DB(db, \'auth_user.email\',\n                                                                                            error_message=T("This email is already in our database, please choose another one"))],\n                                                                                            label=T("email")),\n                           Field(\'password\', required=True, requires=[IS_NOT_EMPTY(), CRYPT()], widget=SQLFORM.widgets.password.widget, label=T("Password")),\n                           Field(\'password_check\', required=True, requires=[IS_EQUAL_TO(request.vars.password)], widget=SQLFORM.widgets.password.widget, label=T("Password Verification")),\n                           Field(\'role\', required=True, requires=IS_IN_DB(db, \'auth_group.role\', \'%(description)s\'), notnull=True, label=T("Role")),\n                           Field(\'obs\', \'text\', label=T("Observations"))\n                           )\n    if form.process().accepted:\n        new_user_id = db.auth_user.insert(first_name=form.vars.first_name,\n                                          middle_name=form.vars.middle_name,\n                                          last_name=form.vars.last_name,\n                                          email=form.vars.email,\n                                          password=form.vars.password,\n                                          obs=form.vars.obs)\n        db.auth_membership.insert(user_id=new_user_id,\n                                  group_id=db.auth_group(role=form.vars.role).id)\n        response.flash = T("new record inserted")\n        redirect(URL(\'start\'))\n    elif form.errors:\n        response.flash = T("Form has errors")\n    return dict(form=form)\n\ndef new_personal_data():\n    username = auth.user.last_name + ", " + auth.user.first_name + " " + auth.user.middle_name\n    form = SQLFORM.factory(\n                           Field(\'first_name\', required=True, notnull=True, label=T("First Name"), writable=False, default=auth.user.first_name),\n                           Field(\'middle_name\', label=T("Middle Name"), writable=False, default=auth.user.middle_name),\n                           Field(\'last_name\', required=True, notnull=True, label=T("Last Name"), writable=False, default=auth.user.last_name),\n                           Field(\'mail1\', required=True, requires=IS_EMAIL(), notnull=True, label=T("Principal email"), writable=False, default=auth.user.email),\n                           Field(\'doc_type\', required=True, requires=IS_IN_SET(doc_type_set), notnull=True, default=doc_type_set[0], label=T("Document Type")),\n                           Field(\'doc\', \'string\', length=8, required=True, requires=IS_MATCH(\'\\d{8}\'), notnull=True, unique=True, label=T("Document"), comment=T("Insert only numbers without dots. i.e.: 12654897")),\n                           Field(\'nac\', required=True, notnull=True, default="Argentina", label=T("Nacionality")),\n                           Field(\'cuil\', \'string\', length=11, requires=IS_MATCH(\'\\d{11}\'), notnull=True, unique=True, label="CUIL"),\n                           Field(\'mail2\', requires=IS_EMAIL(), label=T("Alternative email"), comment=T("Another contact mail")),\n                           Field(\'tel1_type\', required=True, requires=IS_IN_SET(tel_type_set), notnull=True, default=tel_type_set[0], label=T("Principal Phone Type")),\n                           Field(\'tel1\', length=8, required=True, requires=IS_MATCH(\'\\d{8}\'), notnull=True, label=T("Principal Phone Number")),\n                           Field(\'tel2_type\', requires=IS_IN_SET(tel_type_set), default=tel_type_set[0], label=T("Alternative Phone Type")),\n                           Field(\'tel2\', length=8, requires=IS_MATCH(\'\\d{8}\'), label=T("Alternative Phone Number")),\n                           Field(\'street\', required=True, notnull=True, label=T("Street")),\n                           Field(\'building\', \'integer\', label=T("Building")),\n                           Field(\'floor\', label=T("Floor")),\n                           Field(\'door\', label=T("Door")),\n                           Field(\'apartment\', label=T("Apartment")),\n                           Field(\'street1\', label=T("Street 1")),\n                           Field(\'street2\', label=T("Street 2")),\n                           Field(\'zip_code\', label=T("ZIP Code")),\n                           Field(\'loc\', default=provinces[2], label=T("Locality")),\n                           Field(\'prov\', requires=IS_IN_SET(provinces), default=provinces[2], label=T("Province")),\n                           Field(\'obs\', \'text\', label=T("Observations")),\n                           Field(\'photo\', \'upload\', requires=IS_IMAGE(extensions=valid_image_extensions, maxsize=photo_size), label=T("Photo")),\n                           Field(\'avatar\', \'upload\', requires=IS_IMAGE(extensions=valid_image_extensions, maxsize=avatar_size), label=T("Avatar")),\n                           Field(\'twitter\', requires=IS_EMPTY_OR(IS_URL()), label=T("Twitter Profile")),\n                           Field(\'facebook\', requires=IS_EMPTY_OR(IS_URL()), label=T("Facebook Profile")),\n                           Field(\'obs\', \'text\', label=T("Observations")),\n                          )\n    if form.process().accepted:\n        personal_data_id = db.personal_data.insert(**db.personal_data._filter_fields(form.vars))\n        address_id = db.address.insert(**db.personal_data._filter_fields(form.vars))\n        response.flash = T("Record inserted")\n    return dict(form=form, user=username)\n\nresponse._vars=response._caller(new_personal_data)\n'
p7
sS'snapshot'
p8
(dp9
S'exception'
p10
(dp11
S'__hash__'
p12
S"<method-wrapper '__hash__' of exceptions.RuntimeError object>"
p13
sS'__setattr__'
p14
S"<method-wrapper '__setattr__' of exceptions.RuntimeError object>"
p15
sS'__reduce_ex__'
p16
S'<built-in method __reduce_ex__ of exceptions.RuntimeError object>'
p17
sS'__getslice__'
p18
S"<method-wrapper '__getslice__' of exceptions.RuntimeError object>"
p19
sS'__getitem__'
p20
S"<method-wrapper '__getitem__' of exceptions.RuntimeError object>"
p21
sS'__setstate__'
p22
S'<built-in method __setstate__ of exceptions.RuntimeError object>'
p23
sS'args'
p24
S"('you must specify a Field(...,uploadfolder=...)',)"
p25
sS'__reduce__'
p26
S'<built-in method __reduce__ of exceptions.RuntimeError object>'
p27
sS'__str__'
p28
S"<method-wrapper '__str__' of exceptions.RuntimeError object>"
p29
sS'__format__'
p30
S'<built-in method __format__ of exceptions.RuntimeError object>'
p31
sS'__getattribute__'
p32
S"<method-wrapper '__getattribute__' of exceptions.RuntimeError object>"
p33
sS'__class__'
p34
S"<type 'exceptions.RuntimeError'>"
p35
sS'__unicode__'
p36
S'<built-in method __unicode__ of exceptions.RuntimeError object>'
p37
sS'__delattr__'
p38
S"<method-wrapper '__delattr__' of exceptions.RuntimeError object>"
p39
sS'__subclasshook__'
p40
S'<built-in method __subclasshook__ of type object>'
p41
sS'__repr__'
p42
S"<method-wrapper '__repr__' of exceptions.RuntimeError object>"
p43
sS'__dict__'
p44
S'{}'
p45
sS'__sizeof__'
p46
S'<built-in method __sizeof__ of exceptions.RuntimeError object>'
p47
sS'__doc__'
p48
S"'Unspecified run-time error.'"
p49
sS'__init__'
p50
S"<method-wrapper '__init__' of exceptions.RuntimeError object>"
p51
sS'__new__'
p52
S'<built-in method __new__ of type object>'
p53
ssS'evalue'
p54
S'you must specify a Field(...,uploadfolder=...)'
p55
sS'request'
p56
cgluon.html
XML_unpickle
p57
(S'sva\x00\x00<div><table><tr><td style="font-weight:bold;vertical-align:top;">ajax</td><td style="vertical-align:top;">:</td><td><div>False</div></td></tr><tr><td style="font-weight:bold;vertical-align:top;">application</td><td style="vertical-align:top;">:</td><td><div>SEACAT_ingresos</div></td></tr><tr><td style="font-weight:bold;vertical-align:top;">args</td><td style="vertical-align:top;">:</td><td><div><table></table></div></td></tr><tr><td style="font-weight:bold;vertical-align:top;">cid</td><td style="vertical-align:top;">:</td><td><div>None</div></td></tr><tr><td style="font-weight:bold;vertical-align:top;">client</td><td style="vertical-align:top;">:</td><td><div>127.0.0.1</div></td></tr><tr><td style="font-weight:bold;vertical-align:top;">controller</td><td style="vertical-align:top;">:</td><td><div>default</div></td></tr><tr><td style="font-weight:bold;vertical-align:top;">cookies</td><td style="vertical-align:top;">:</td><td><div><table><tr><td style="font-weight:bold;vertical-align:top;">session_id_admin</td><td style="vertical-align:top;">:</td><td><div>127.0.0.1-56ae1ba5-b1aa-4509-b819-ba0369a4ede1<table><tr><td style="font-weight:bold;vertical-align:top;">comment</td><td style="vertical-align:top;">:</td><td><div></div></td></tr><tr><td style="font-weight:bold;vertical-align:top;">domain</td><td style="vertical-align:top;">:</td><td><div></div></td></tr><tr><td style="font-weight:bold;vertical-align:top;">expires</td><td style="vertical-align:top;">:</td><td><div></div></td></tr><tr><td style="font-weight:bold;vertical-align:top;">httponly</td><td style="vertical-align:top;">:</td><td><div></div></td></tr><tr><td style="font-weight:bold;vertical-align:top;">max-age</td><td style="vertical-align:top;">:</td><td><div></div></td></tr><tr><td style="font-weight:bold;vertical-align:top;">path</td><td style="vertical-align:top;">:</td><td><div></div></td></tr><tr><td style="font-weight:bold;vertical-align:top;">secure</td><td style="vertical-align:top;">:</td><td><div></div></td></tr><tr><td style="font-weight:bold;vertical-align:top;">version</td><td style="vertical-align:top;">:</td><td><div></div></td></tr></table></div></td></tr><tr><td style="font-weight:bold;vertical-align:top;">session_id_seacat_ingresos</td><td style="vertical-align:top;">:</td><td><div>127.0.0.1-a4eff687-ec1c-4de7-a6af-95e0688fe505<table><tr><td style="font-weight:bold;vertical-align:top;">comment</td><td style="vertical-align:top;">:</td><td><div></div></td></tr><tr><td style="font-weight:bold;vertical-align:top;">domain</td><td style="vertical-align:top;">:</td><td><div></div></td></tr><tr><td style="font-weight:bold;vertical-align:top;">expires</td><td style="vertical-align:top;">:</td><td><div></div></td></tr><tr><td style="font-weight:bold;vertical-align:top;">httponly</td><td style="vertical-align:top;">:</td><td><div></div></td></tr><tr><td style="font-weight:bold;vertical-align:top;">max-age</td><td style="vertical-align:top;">:</td><td><div></div></td></tr><tr><td style="font-weight:bold;vertical-align:top;">path</td><td style="vertical-align:top;">:</td><td><div></div></td></tr><tr><td style="font-weight:bold;vertical-align:top;">secure</td><td style="vertical-align:top;">:</td><td><div></div></td></tr><tr><td style="font-weight:bold;vertical-align:top;">version</td><td style="vertical-align:top;">:</td><td><div></div></td></tr></table></div></td></tr><tr><td style="font-weight:bold;vertical-align:top;">session_id_welcome</td><td style="vertical-align:top;">:</td><td><div>127.0.0.1-b04fe521-e201-45e6-bc04-34b424a2e276<table><tr><td style="font-weight:bold;vertical-align:top;">comment</td><td style="vertical-align:top;">:</td><td><div></div></td></tr><tr><td style="font-weight:bold;vertical-align:top;">domain</td><td style="vertical-align:top;">:</td><td><div></div></td></tr><tr><td style="font-weight:bold;vertical-align:top;">expires</td><td style="vertical-align:top;">:</td><td><div></div></td></tr><tr><td style="font-weight:bold;vertical-align:top;">httponly</td><td style="vertical-align:top;">:</td><td><div></div></td></tr><tr><td style="font-weight:bold;vertical-align:top;">max-age</td><td style="vertical-align:top;">:</td><td><div></div></td></tr><tr><td style="font-weight:bold;vertical-align:top;">path</td><td style="vertical-align:top;">:</td><td><div></div></td></tr><tr><td style="font-weight:bold;vertical-align:top;">secure</td><td style="vertical-align:top;">:</td><td><div></div></td></tr><tr><td style="font-weight:bold;vertical-align:top;">version</td><td style="vertical-align:top;">:</td><td><div></div></td></tr></table></div></td></tr></table></div></td></tr><tr><td style="font-weight:bold;vertical-align:top;">env</td><td style="vertical-align:top;">:</td><td><div><table><tr><td style="font-weight:bold;vertical-align:top;">CONTENT_LENGTH</td><td style="vertical-align:top;">:</td><td><div>58336</div></td></tr><tr><td style="font-weight:bold;vertical-align:top;">CONTENT_TYPE</td><td style="vertical-align:top;">:</td><td><div>multipart/form-data; boundary=---------------------------1060515169541465940324323178</div></td></tr><tr><td style="font-weight:bold;vertical-align:top;">HTTP_ACCEPT</td><td style="vertical-align:top;">:</td><td><div>text/html,application/xhtml+xml,application/xml;q=0.9,*/*;q=0.8</div></td></tr><tr><td style="font-weight:bold;vertical-align:top;">HTTP_ACCEPT_ENCODING</td><td style="vertical-align:top;">:</td><td><div>gzip, deflate</div></td></tr><tr><td style="font-weight:bold;vertical-align:top;">HTTP_ACCEPT_LANGUAGE</td><td style="vertical-align:top;">:</td><td><div>es-ar,en-us;q=0.7,en;q=0.3</div></td></tr><tr><td style="font-weight:bold;vertical-align:top;">HTTP_CONNECTION</td><td style="vertical-align:top;">:</td><td><div>keep-alive</div></td></tr><tr><td style="font-weight:bold;vertical-align:top;">HTTP_CONTENT_LENGTH</td><td style="vertical-align:top;">:</td><td><div>58336</div></td></tr><tr><td style="font-weight:bold;vertical-align:top;">HTTP_CONTENT_TYPE</td><td style="vertical-align:top;">:</td><td><div>multipart/form-data; boundary=---------------------------1060515169541465940324323178</div></td></tr><tr><td style="font-weight:bold;vertical-align:top;">HTTP_COOKIE</td><td style="vertical-align:top;">:</td><td><div>__utma=96992031.431411581.1385420967.1385420967.1387379970.2; __utmz=96992031.1385420967.1.1.utmcsr=(direct)|utmccn=(direct)|utmcmd=(none); session_id_welcome=127.0.0.1-b04fe521-e201-45e6-bc04-34b424a2e276; session_id_admin=127.0.0.1-56ae1ba5-b1aa-4509-b819-ba0369a4ede1; session_id_seacat_ingresos=127.0.0.1-a4eff687-ec1c-4de7-a6af-95e0688fe505</div></td></tr><tr><td style="font-weight:bold;vertical-align:top;">HTTP_HOST</td><td style="vertical-align:top;">:</td><td><div>127.0.0.1:8000</div></td></tr><tr><td style="font-weight:bold;vertical-align:top;">HTTP_REFERER</td><td style="vertical-align:top;">:</td><td><div>http://127.0.0.1:8000/SEACAT_ingresos/default/new_personal_data</div></td></tr><tr><td style="font-weight:bold;vertical-align:top;">HTTP_USER_AGENT</td><td style="vertical-align:top;">:</td><td><div>Mozilla/5.0 (X11; Linux x86_64; rv:26.0) Gecko/20100101 Firefox/26.0</div></td></tr><tr><td style="font-weight:bold;vertical-align:top;">PATH_INFO</td><td style="vertical-align:top;">:</td><td><div>/SEACAT_ingresos/default/new_personal_data</div></td></tr><tr><td style="font-weight:bold;vertical-align:top;">QUERY_STRING</td><td style="vertical-align:top;">:</td><td><div></div></td></tr><tr><td style="font-weight:bold;vertical-align:top;">REMOTE_ADDR</td><td style="vertical-align:top;">:</td><td><div>127.0.0.1</div></td></tr><tr><td style="font-weight:bold;vertical-align:top;">REMOTE_PORT</td><td style="vertical-align:top;">:</td><td><div>35287</div></td></tr><tr><td style="font-weight:bold;vertical-align:top;">REQUEST_METHOD</td><td style="vertical-align:top;">:</td><td><div>POST</div></td></tr><tr><td style="font-weight:bold;vertical-align:top;">SCRIPT_NAME</td><td style="vertical-align:top;">:</td><td><div></div></td></tr><tr><td style="font-weight:bold;vertical-align:top;">SERVER_NAME</td><td style="vertical-align:top;">:</td><td><div>larrea-lmde</div></td></tr><tr><td style="font-weight:bold;vertical-align:top;">SERVER_PORT</td><td style="vertical-align:top;">:</td><td><div>8000</div></td></tr><tr><td style="font-weight:bold;vertical-align:top;">SERVER_PROTOCOL</td><td style="vertical-align:top;">:</td><td><div>HTTP/1.1</div></td></tr><tr><td style="font-weight:bold;vertical-align:top;">SERVER_SOFTWARE</td><td style="vertical-align:top;">:</td><td><div>Rocket 1.2.6</div></td></tr><tr><td style="font-weight:bold;vertical-align:top;">app_folders</td><td style="vertical-align:top;">:</td><td><div>set([&#x27;/home/leo/Dropbox/web2py/applications/SEACAT_ingresos/&#x27;, &#x27;/home/leo/Dropbox/web2py/applications/admin/&#x27;, &#x27;/home/leo/Dropbox/web2py/applications/welcome/&#x27;])</div></td></tr><tr><td style="font-weight:bold;vertical-align:top;">applications_parent</td><td style="vertical-align:top;">:</td><td><div>/home/leo/Dropbox/web2py</div></td></tr><tr><td style="font-weight:bold;vertical-align:top;">cmd_args</td><td style="vertical-align:top;">:</td><td><div><table></table></div></td></tr><tr><td style="font-weight:bold;vertical-align:top;">cmd_options</td><td style="vertical-align:top;">:</td><td><div>&lt;Values at 0x213bcb0: {&#x27;verbose&#x27;: False, &#x27;ip&#x27;: &#x27;127.0.0.1&#x27;, &#x27;debuglevel&#x27;: 30, &#x27;with_scheduler&#x27;: False, &#x27;ips&#x27;: [&#x27;127.0.1.1&#x27;], &#x27;shutdown_timeout&#x27;: 5, &#x27;taskbar&#x27;: False, &#x27;with_coverage&#x27;: False, &#x27;port&#x27;: 8000, &#x27;maxthreads&#x27;: None, &#x27;softcron&#x27;: False, &#x27;server_name&#x27;: &#x27;larrea-lmde&#x27;, &#x27;bpython&#x27;: False, &#x27;nogui&#x27;: False, &#x27;pid_filename&#x27;: &#x27;httpserver.pid&#x27;, &#x27;extcron&#x27;: False, &#x27;runcron&#x27;: False, &#x27;run_system_tests&#x27;: False, &#x27;test&#x27;: None, &#x27;folder&#x27;: &#x27;/home/leo/Dropbox/web2py&#x27;, &#x27;config&#x27;: &#x27;&#x27;, &#x27;minthreads&#x27;: None, &#x27;winservice&#x27;: &#x27;&#x27;, &#x27;shell&#x27;: None, &#x27;run&#x27;: &#x27;&#x27;, &#x27;log_filename&#x27;: &#x27;httpserver.log&#x27;, &#x27;profiler_dir&#x27;: None, &#x27;args&#x27;: [&#x27;&#x27;], &#x27;socket_timeout&#x27;: 5, &#x27;ssl_ca_certificate&#x27;: None, &#x27;scheduler&#x27;: None, &#x27;interfaces&#x27;: None, &#x27;ssl_private_key&#x27;: &#x27;&#x27;, &#x27;scheduler_groups&#x27;: None, &#x27;password&#x27;: &#x27;&lt;ask&gt;&#x27;, &#x27;request_queue_size&#x27;: 5, &#x27;ssl_certificate&#x27;: &#x27;&#x27;, &#x27;cronjob&#x27;: False, &#x27;numthreads&#x27;: None, &#x27;quiet&#x27;: False, &#x27;import_models&#x27;: False, &#x27;timeout&#x27;: 10, &#x27;plain&#x27;: False, &#x27;nobanner&#x27;: False}&gt;</div></td></tr><tr><td style="font-weight:bold;vertical-align:top;">content_length</td><td style="vertical-align:top;">:</td><td><div>58336</div></td></tr><tr><td style="font-weight:bold;vertical-align:top;">content_type</td><td style="vertical-align:top;">:</td><td><div>multipart/form-data; boundary=---------------------------1060515169541465940324323178</div></td></tr><tr><td style="font-weight:bold;vertical-align:top;">db_sessions</td><td style="vertical-align:top;">:</td><td><div>set([])</div></td></tr><tr><td style="font-weight:bold;vertical-align:top;">debugging</td><td style="vertical-align:top;">:</td><td><div>True</div></td></tr><tr><td style="font-weight:bold;vertical-align:top;">gluon_parent</td><td style="vertical-align:top;">:</td><td><div>/home/leo/Dropbox/web2py</div></td></tr><tr><td style="font-weight:bold;vertical-align:top;">http_accept</td><td style="vertical-align:top;">:</td><td><div>text/html,application/xhtml+xml,application/xml;q=0.9,*/*;q=0.8</div></td></tr><tr><td style="font-weight:bold;vertical-align:top;">http_accept_encoding</td><td style="vertical-align:top;">:</td><td><div>gzip, deflate</div></td></tr><tr><td style="font-weight:bold;vertical-align:top;">http_accept_language</td><td style="vertical-align:top;">:</td><td><div>es-ar,en-us;q=0.7,en;q=0.3</div></td></tr><tr><td style="font-weight:bold;vertical-align:top;">http_connection</td><td style="vertical-align:top;">:</td><td><div>keep-alive</div></td></tr><tr><td style="font-weight:bold;vertical-align:top;">http_content_length</td><td style="vertical-align:top;">:</td><td><div>58336</div></td></tr><tr><td style="font-weight:bold;vertical-align:top;">http_content_type</td><td style="vertical-align:top;">:</td><td><div>multipart/form-data; boundary=---------------------------1060515169541465940324323178</div></td></tr><tr><td style="font-weight:bold;vertical-align:top;">http_cookie</td><td style="vertical-align:top;">:</td><td><div>__utma=96992031.431411581.1385420967.1385420967.1387379970.2; __utmz=96992031.1385420967.1.1.utmcsr=(direct)|utmccn=(direct)|utmcmd=(none); session_id_welcome=127.0.0.1-b04fe521-e201-45e6-bc04-34b424a2e276; session_id_admin=127.0.0.1-56ae1ba5-b1aa-4509-b819-ba0369a4ede1; session_id_seacat_ingresos=127.0.0.1-a4eff687-ec1c-4de7-a6af-95e0688fe505</div></td></tr><tr><td style="font-weight:bold;vertical-align:top;">http_host</td><td style="vertical-align:top;">:</td><td><div>127.0.0.1:8000</div></td></tr><tr><td style="font-weight:bold;vertical-align:top;">http_referer</td><td style="vertical-align:top;">:</td><td><div>http://127.0.0.1:8000/SEACAT_ingresos/default/new_personal_data</div></td></tr><tr><td style="font-weight:bold;vertical-align:top;">http_user_agent</td><td style="vertical-align:top;">:</td><td><div>Mozilla/5.0 (X11; Linux x86_64; rv:26.0) Gecko/20100101 Firefox/26.0</div></td></tr><tr><td style="font-weight:bold;vertical-align:top;">is_jython</td><td style="vertical-align:top;">:</td><td><div>False</div></td></tr><tr><td style="font-weight:bold;vertical-align:top;">is_pypy</td><td style="vertical-align:top;">:</td><td><div>False</div></td></tr><tr><td style="font-weight:bold;vertical-align:top;">is_source</td><td style="vertical-align:top;">:</td><td><div>True</div></td></tr><tr><td style="font-weight:bold;vertical-align:top;">local_hosts</td><td style="vertical-align:top;">:</td><td><div><table><tr><td><div>127.0.1.1</div></td></tr><tr><td><div>::1</div></td></tr><tr><td><div>larrea-lmde</div></td></tr><tr><td><div>::ffff:127.0.0.1</div></td></tr><tr><td><div>127.0.0.1</div></td></tr></table></div></td></tr><tr><td style="font-weight:bold;vertical-align:top;">path_info</td><td style="vertical-align:top;">:</td><td><div>/SEACAT_ingresos/default/new_personal_data</div></td></tr><tr><td style="font-weight:bold;vertical-align:top;">query_string</td><td style="vertical-align:top;">:</td><td><div></div></td></tr><tr><td style="font-weight:bold;vertical-align:top;">remote_addr</td><td style="vertical-align:top;">:</td><td><div>127.0.0.1</div></td></tr><tr><td style="font-weight:bold;vertical-align:top;">remote_port</td><td style="vertical-align:top;">:</td><td><div>35287</div></td></tr><tr><td style="font-weight:bold;vertical-align:top;">request_method</td><td style="vertical-align:top;">:</td><td><div>POST</div></td></tr><tr><td style="font-weight:bold;vertical-align:top;">request_uri</td><td style="vertical-align:top;">:</td><td><div>/SEACAT_ingresos/default/new_personal_data</div></td></tr><tr><td style="font-weight:bold;vertical-align:top;">script_name</td><td style="vertical-align:top;">:</td><td><div></div></td></tr><tr><td style="font-weight:bold;vertical-align:top;">server_name</td><td style="vertical-align:top;">:</td><td><div>larrea-lmde</div></td></tr><tr><td style="font-weight:bold;vertical-align:top;">server_port</td><td style="vertical-align:top;">:</td><td><div>8000</div></td></tr><tr><td style="font-weight:bold;vertical-align:top;">server_protocol</td><td style="vertical-align:top;">:</td><td><div>HTTP/1.1</div></td></tr><tr><td style="font-weight:bold;vertical-align:top;">server_software</td><td style="vertical-align:top;">:</td><td><div>Rocket 1.2.6</div></td></tr><tr><td style="font-weight:bold;vertical-align:top;">web2py_path</td><td style="vertical-align:top;">:</td><td><div>/home/leo/Dropbox/web2py</div></td></tr><tr><td style="font-weight:bold;vertical-align:top;">web2py_version</td><td style="vertical-align:top;">:</td><td><div>2.7.4-stable+timestamp.2013.10.14.15.16.29</div></td></tr><tr><td style="font-weight:bold;vertical-align:top;">wsgi.errors</td><td style="vertical-align:top;">:</td><td><div>&lt;open file &#x27;&lt;stderr&gt;&#x27;, mode &#x27;w&#x27; at 0x7f73efa511e0&gt;</div></td></tr><tr><td style="font-weight:bold;vertical-align:top;">wsgi.file_wrapper</td><td style="vertical-align:top;">:</td><td><div>&lt;class wsgiref.util.FileWrapper at 0x20a8390&gt;</div></td></tr><tr><td style="font-weight:bold;vertical-align:top;">wsgi.input</td><td style="vertical-align:top;">:</td><td><div>&lt;socket._fileobject object at 0x7f73bc2b85d0&gt;</div></td></tr><tr><td style="font-weight:bold;vertical-align:top;">wsgi.multiprocess</td><td style="vertical-align:top;">:</td><td><div>False</div></td></tr><tr><td style="font-weight:bold;vertical-align:top;">wsgi.multithread</td><td style="vertical-align:top;">:</td><td><div>True</div></td></tr><tr><td style="font-weight:bold;vertical-align:top;">wsgi.run_once</td><td style="vertical-align:top;">:</td><td><div>False</div></td></tr><tr><td style="font-weight:bold;vertical-align:top;">wsgi.url_scheme</td><td style="vertical-align:top;">:</td><td><div>http</div></td></tr><tr><td style="font-weight:bold;vertical-align:top;">wsgi.version</td><td style="vertical-align:top;">:</td><td><div><table><tr><td><div>1</div></td></tr><tr><td><div>0</div></td></tr></table></div></td></tr><tr><td style="font-weight:bold;vertical-align:top;">wsgi_errors</td><td style="vertical-align:top;">:</td><td><div>&lt;open file &#x27;&lt;stderr&gt;&#x27;, mode &#x27;w&#x27; at 0x7f73efa511e0&gt;</div></td></tr><tr><td style="font-weight:bold;vertical-align:top;">wsgi_file_wrapper</td><td style="vertical-align:top;">:</td><td><div>&lt;class wsgiref.util.FileWrapper at 0x20a8390&gt;</div></td></tr><tr><td style="font-weight:bold;vertical-align:top;">wsgi_input</td><td style="vertical-align:top;">:</td><td><div>&lt;socket._fileobject object at 0x7f73bc2b85d0&gt;</div></td></tr><tr><td style="font-weight:bold;vertical-align:top;">wsgi_multiprocess</td><td style="vertical-align:top;">:</td><td><div>False</div></td></tr><tr><td style="font-weight:bold;vertical-align:top;">wsgi_multithread</td><td style="vertical-align:top;">:</td><td><div>True</div></td></tr><tr><td style="font-weight:bold;vertical-align:top;">wsgi_run_once</td><td style="vertical-align:top;">:</td><td><div>False</div></td></tr><tr><td style="font-weight:bold;vertical-align:top;">wsgi_url_scheme</td><td style="vertical-align:top;">:</td><td><div>http</div></td></tr><tr><td style="font-weight:bold;vertical-align:top;">wsgi_version</td><td style="vertical-align:top;">:</td><td><div><table><tr><td><div>1</div></td></tr><tr><td><div>0</div></td></tr></table></div></td></tr></table></div></td></tr><tr><td style="font-weight:bold;vertical-align:top;">extension</td><td style="vertical-align:top;">:</td><td><div>html</div></td></tr><tr><td style="font-weight:bold;vertical-align:top;">folder</td><td style="vertical-align:top;">:</td><td><div>/home/leo/Dropbox/web2py/applications/SEACAT_ingresos/</div></td></tr><tr><td style="font-weight:bold;vertical-align:top;">function</td><td style="vertical-align:top;">:</td><td><div>new_personal_data</div></td></tr><tr><td style="font-weight:bold;vertical-align:top;">global_settings</td><td style="vertical-align:top;">:</td><td><div><table><tr><td style="font-weight:bold;vertical-align:top;">app_folders</td><td style="vertical-align:top;">:</td><td><div>set([&#x27;/home/leo/Dropbox/web2py/applications/SEACAT_ingresos/&#x27;, &#x27;/home/leo/Dropbox/web2py/applications/admin/&#x27;, &#x27;/home/leo/Dropbox/web2py/applications/welcome/&#x27;])</div></td></tr><tr><td style="font-weight:bold;vertical-align:top;">applications_parent</td><td style="vertical-align:top;">:</td><td><div>/home/leo/Dropbox/web2py</div></td></tr><tr><td style="font-weight:bold;vertical-align:top;">cmd_args</td><td style="vertical-align:top;">:</td><td><div><table></table></div></td></tr><tr><td style="font-weight:bold;vertical-align:top;">cmd_options</td><td style="vertical-align:top;">:</td><td><div>&lt;Values at 0x213bcb0: {&#x27;verbose&#x27;: False, &#x27;ip&#x27;: &#x27;127.0.0.1&#x27;, &#x27;debuglevel&#x27;: 30, &#x27;with_scheduler&#x27;: False, &#x27;ips&#x27;: [&#x27;127.0.1.1&#x27;], &#x27;shutdown_timeout&#x27;: 5, &#x27;taskbar&#x27;: False, &#x27;with_coverage&#x27;: False, &#x27;port&#x27;: 8000, &#x27;maxthreads&#x27;: None, &#x27;softcron&#x27;: False, &#x27;server_name&#x27;: &#x27;larrea-lmde&#x27;, &#x27;bpython&#x27;: False, &#x27;nogui&#x27;: False, &#x27;pid_filename&#x27;: &#x27;httpserver.pid&#x27;, &#x27;extcron&#x27;: False, &#x27;runcron&#x27;: False, &#x27;run_system_tests&#x27;: False, &#x27;test&#x27;: None, &#x27;folder&#x27;: &#x27;/home/leo/Dropbox/web2py&#x27;, &#x27;config&#x27;: &#x27;&#x27;, &#x27;minthreads&#x27;: None, &#x27;winservice&#x27;: &#x27;&#x27;, &#x27;shell&#x27;: None, &#x27;run&#x27;: &#x27;&#x27;, &#x27;log_filename&#x27;: &#x27;httpserver.log&#x27;, &#x27;profiler_dir&#x27;: None, &#x27;args&#x27;: [&#x27;&#x27;], &#x27;socket_timeout&#x27;: 5, &#x27;ssl_ca_certificate&#x27;: None, &#x27;scheduler&#x27;: None, &#x27;interfaces&#x27;: None, &#x27;ssl_private_key&#x27;: &#x27;&#x27;, &#x27;scheduler_groups&#x27;: None, &#x27;password&#x27;: &#x27;&lt;ask&gt;&#x27;, &#x27;request_queue_size&#x27;: 5, &#x27;ssl_certificate&#x27;: &#x27;&#x27;, &#x27;cronjob&#x27;: False, &#x27;numthreads&#x27;: None, &#x27;quiet&#x27;: False, &#x27;import_models&#x27;: False, &#x27;timeout&#x27;: 10, &#x27;plain&#x27;: False, &#x27;nobanner&#x27;: False}&gt;</div></td></tr><tr><td style="font-weight:bold;vertical-align:top;">db_sessions</td><td style="vertical-align:top;">:</td><td><div>set([])</div></td></tr><tr><td style="font-weight:bold;vertical-align:top;">debugging</td><td style="vertical-align:top;">:</td><td><div>True</div></td></tr><tr><td style="font-weight:bold;vertical-align:top;">gluon_parent</td><td style="vertical-align:top;">:</td><td><div>/home/leo/Dropbox/web2py</div></td></tr><tr><td style="font-weight:bold;vertical-align:top;">is_jython</td><td style="vertical-align:top;">:</td><td><div>False</div></td></tr><tr><td style="font-weight:bold;vertical-align:top;">is_pypy</td><td style="vertical-align:top;">:</td><td><div>False</div></td></tr><tr><td style="font-weight:bold;vertical-align:top;">is_source</td><td style="vertical-align:top;">:</td><td><div>True</div></td></tr><tr><td style="font-weight:bold;vertical-align:top;">local_hosts</td><td style="vertical-align:top;">:</td><td><div><table><tr><td><div>127.0.1.1</div></td></tr><tr><td><div>::1</div></td></tr><tr><td><div>larrea-lmde</div></td></tr><tr><td><div>::ffff:127.0.0.1</div></td></tr><tr><td><div>127.0.0.1</div></td></tr></table></div></td></tr><tr><td style="font-weight:bold;vertical-align:top;">web2py_version</td><td style="vertical-align:top;">:</td><td><div>2.7.4-stable+timestamp.2013.10.14.15.16.29</div></td></tr></table></div></td></tr><tr><td style="font-weight:bold;vertical-align:top;">is_https</td><td style="vertical-align:top;">:</td><td><div>False</div></td></tr><tr><td style="font-weight:bold;vertical-align:top;">is_local</td><td style="vertical-align:top;">:</td><td><div>True</div></td></tr><tr><td style="font-weight:bold;vertical-align:top;">is_restful</td><td style="vertical-align:top;">:</td><td><div>False</div></td></tr><tr><td style="font-weight:bold;vertical-align:top;">now</td><td style="vertical-align:top;">:</td><td><div>datetime.datetime(2014, 1, 14, 11, 52, 52, 496608)</div></td></tr><tr><td style="font-weight:bold;vertical-align:top;">raw_args</td><td style="vertical-align:top;">:</td><td><div></div></td></tr><tr><td style="font-weight:bold;vertical-align:top;">raw_extension</td><td style="vertical-align:top;">:</td><td><div>None</div></td></tr><tr><td style="font-weight:bold;vertical-align:top;">url</td><td style="vertical-align:top;">:</td><td><div>/SEACAT_ingresos/default/new_personal_data</div></td></tr><tr><td style="font-weight:bold;vertical-align:top;">utcnow</td><td style="vertical-align:top;">:</td><td><div>datetime.datetime(2014, 1, 14, 14, 52, 52, 496629)</div></td></tr><tr><td style="font-weight:bold;vertical-align:top;">uuid</td><td style="vertical-align:top;">:</td><td><div>SEACAT_ingresos/127.0.0.1.2014-01-14.11-52-52.4da0f49f-b834-4833-a263-8be7beb11968</div></td></tr><tr><td style="font-weight:bold;vertical-align:top;">wsgi</td><td style="vertical-align:top;">:</td><td><div>&lt;gluon.main.LazyWSGI object at 0x7f73bc162690&gt;</div></td></tr></table></div>'
tRp58
sS'frames'
p59
(lp60
(dp61
S'file'
p62
S'/home/leo/Dropbox/web2py/gluon/restricted.py'
p63
sS'dump'
p64
(dp65
S'environment'
p66
S"{'A': <class 'gluon.html.A'>, 'ANY_OF': <class 'gluon.validators.ANY_OF'>, 'Auth': <class 'gluon.tools.Auth'>, 'B': <class 'gluon.html.B'>, 'BEAUTIFY': <class 'gluon.html.BEAUTIFY'>, 'BODY': <class 'gluon.html.BODY'>, 'BR': <class 'gluon.html.BR'>, 'BUTTON': <class 'gluon.html.BUTTON'>, 'CAT': <class 'gluon.html.CAT'>, 'CENTER': <class 'gluon.html.CENTER'>, ...}"
p67
sS'ccode'
p68
S'<code object <module> at 0x7f73bc14e5b0, file "/...SEACAT_ingresos/controllers/default.py", line 12>'
p69
ssS'lnum'
p70
I217
sS'lines'
p71
(dp72
I212
S'    try:'
p73
sI213
S'        if isinstance(code, types.CodeType):'
p74
sI214
S'            ccode = code'
p75
sI215
S'        else:'
p76
sI216
S'            ccode = compile2(code, layer)'
p77
sI217
S'        exec ccode in environment'
p78
sI218
S'    except HTTP:'
p79
sI219
S'        raise'
p80
sI220
S'    except RestrictedError:'
p81
sI221
S'        # do not encapsulate (obfuscate) the original RestrictedError'
p82
ssS'call'
p83
S"(code='# -*- coding: utf-8 -*-\\n# this file is released ...sponse._vars=response._caller(new_personal_data)\\n', environment={'A': <class 'gluon.html.A'>, 'ANY_OF': <class 'gluon.validators.ANY_OF'>, 'Auth': <class 'gluon.tools.Auth'>, 'B': <class 'gluon.html.B'>, 'BEAUTIFY': <class 'gluon.html.BEAUTIFY'>, 'BODY': <class 'gluon.html.BODY'>, 'BR': <class 'gluon.html.BR'>, 'BUTTON': <class 'gluon.html.BUTTON'>, 'CAT': <class 'gluon.html.CAT'>, 'CENTER': <class 'gluon.html.CENTER'>, ...}, layer='/home/leo/Dropbox/web2py/applications/SEACAT_ingresos/controllers/default.py')"
p84
sS'func'
p85
S'restricted'
p86
sa(dp87
g62
S'/home/leo/Dropbox/web2py/applications/SEACAT_ingresos/controllers/default.py'
p88
sg64
(dp89
sg70
I251
sg71
(dp90
I240
S'                           Field(\'avatar\', \'upload\', requires=IS_IMAGE(extensions=valid_image_extensions, maxsize=avatar_size), label=T("Avatar")),'
p91
sI241
S'                           Field(\'twitter\', requires=IS_EMPTY_OR(IS_URL()), label=T("Twitter Profile")),'
p92
sI242
S'                           Field(\'facebook\', requires=IS_EMPTY_OR(IS_URL()), label=T("Facebook Profile")),'
p93
sI243
S'                           Field(\'obs\', \'text\', label=T("Observations")),'
p94
sI244
S'                          )'
p95
sI245
S'    if form.process().accepted:'
p96
sI246
S'        personal_data_id = db.personal_data.insert(**db.personal_data._filter_fields(form.vars))'
p97
sI247
S'        address_id = db.address.insert(**db.personal_data._filter_fields(form.vars))'
p98
sI248
S'        response.flash = T("Record inserted")'
p99
sI249
S'    return dict(form=form, user=username)'
p100
ssg83
S'()'
p101
sg85
S'<module>'
p102
sa(dp103
g62
S'/home/leo/Dropbox/web2py/gluon/globals.py'
p104
sg64
(dp105
S'self'
p106
S'undefined'
p107
sS'f'
S'<function new_personal_data>'
p108
ssg70
I372
sg71
(dp109
I367
S'        self.menu = []             # used by the default view layout'
p110
sI368
S'        self.files = []            # used by web2py_ajax.html'
p111
sI369
S'        self.generic_patterns = []  # patterns to allow generic views'
p112
sI370
S"        self.delimiters = ('{{', '}}')"
p113
sI371
S'        self._vars = None'
p114
sI372
S'        self._caller = lambda f: f()'
p115
sI373
S'        self._view_environment = None'
p116
sI374
S'        self._custom_commit = None'
p117
sI375
S'        self._custom_rollback = None'
p118
sI376
S''
ssg83
S'(f=<function new_personal_data>)'
p119
sg85
S'<lambda>'
p120
sa(dp121
g62
S'/home/leo/Dropbox/web2py/applications/SEACAT_ingresos/controllers/default.py'
p122
sg64
(dp123
S'form.process'
p124
S'<bound method SQLFORM.process of <gluon.sqlhtml.SQLFORM object>>'
p125
sS').accepted'
p126
g107
sS'form'
p127
S'<gluon.sqlhtml.SQLFORM object>'
p128
ssg70
I245
sg71
(dp129
I240
S'                           Field(\'avatar\', \'upload\', requires=IS_IMAGE(extensions=valid_image_extensions, maxsize=avatar_size), label=T("Avatar")),'
p130
sI241
S'                           Field(\'twitter\', requires=IS_EMPTY_OR(IS_URL()), label=T("Twitter Profile")),'
p131
sI242
S'                           Field(\'facebook\', requires=IS_EMPTY_OR(IS_URL()), label=T("Facebook Profile")),'
p132
sI243
S'                           Field(\'obs\', \'text\', label=T("Observations")),'
p133
sI244
S'                          )'
p134
sI245
S'    if form.process().accepted:'
p135
sI246
S'        personal_data_id = db.personal_data.insert(**db.personal_data._filter_fields(form.vars))'
p136
sI247
S'        address_id = db.address.insert(**db.personal_data._filter_fields(form.vars))'
p137
sI248
S'        response.flash = T("Record inserted")'
p138
sI249
S'    return dict(form=form, user=username)'
p139
ssg83
S'()'
p140
sg85
S'new_personal_data'
p141
sa(dp142
g62
S'/home/leo/Dropbox/web2py/gluon/html.py'
p143
sg64
(dp144
S'self'
p145
S'<gluon.sqlhtml.SQLFORM object>'
p146
sS'self.validate'
p147
S'<bound method SQLFORM.validate of <gluon.sqlhtml.SQLFORM object>>'
p148
sS'kwargs'
p149
S"{'dbio': True}"
p150
ssg70
I2215
sg71
(dp151
I2210
S'        def action():'
p152
sI2211
S'            return dict(form=SQLFORM(db.table).process(onsuccess=my_callback)'
p153
sI2212
S'        """'
p154
sI2213
S"        kwargs['dbio'] = kwargs.get('dbio', True)"
p155
sI2214
S'                                    # necessary for SQLHTML forms'
p156
sI2215
S'        self.validate(**kwargs)'
p157
sI2216
S'        return self'
p158
sI2217
S''
sI2218
S'    REDIRECT_JS = "window.location=\'%s\';return false"'
p159
sI2219
S''
ssg83
S"(self=<gluon.sqlhtml.SQLFORM object>, **kwargs={'dbio': True})"
p160
sg85
S'process'
p161
sa(dp162
g62
S'/home/leo/Dropbox/web2py/gluon/html.py'
p163
sg64
(dp164
S'self'
p165
S'<gluon.sqlhtml.SQLFORM object>'
p166
sS'self.accepts'
p167
S'<bound method SQLFORM.accepts of <gluon.sqlhtml.SQLFORM object>>'
p168
sS'kwargs'
p169
S"{'dbio': True, 'request_vars': <Storage {'photo': FieldStorage('photo', 'LeCoVi...xfew\\x00\\x00\\x00\\x00IEND\\xaeB`\\x82'), 'obs': ''}>, 'session': <Storage {'last_query': 'db.personal_data.id>0',...826aa', 'f22f6489-4c13-4958-a064-1a7a14288eb5']}>}"
p170
ssg70
I2154
sg71
(dp171
I2149
S"        for key in ('message_onsuccess', 'message_onfailure', 'onsuccess',"
p172
sI2150
S"                    'onfailure', 'next', 'message_onchange', 'onchange'):"
p173
sI2151
S'            if key in kwargs:'
p174
sI2152
S'                del kwargs[key]'
p175
sI2153
S''
sI2154
S'        if self.accepts(**kwargs):'
p176
sI2155
S"            if onsuccess == 'flash':"
p177
sI2156
S'                if next:'
p178
sI2157
S'                    current.session.flash = message_onsuccess'
p179
sI2158
S'                else:'
p180
ssg83
S"(self=<gluon.sqlhtml.SQLFORM object>, **kwargs={'dbio': True, 'request_vars': <Storage {'photo': FieldStorage('photo', 'LeCoVi...xfew\\x00\\x00\\x00\\x00IEND\\xaeB`\\x82'), 'obs': ''}>, 'session': <Storage {'last_query': 'db.personal_data.id>0',...826aa', 'f22f6489-4c13-4958-a064-1a7a14288eb5']}>})"
p181
sg85
S'validate'
p182
sa(dp183
g62
S'/home/leo/Dropbox/web2py/gluon/sqlhtml.py'
p184
sg64
(dp185
S'field'
p186
S'<gluon.dal.Field object>'
p187
sS'field.uploadfolder'
p188
S'None'
p189
ssg70
I1449
sg71
(dp190
I1444
S'                else:'
p191
sI1445
S'                    # this should never happen, why does it happen?'
p192
sI1446
S"                    #print 'f=',repr(f)"
p193
sI1447
S'                    continue'
p194
sI1448
S'                newfilename = field.store(source_file, original_filename,'
p195
sI1449
S'                                          field.uploadfolder)'
p196
sI1450
S'                # this line was for backward compatibility but problematic'
p197
sI1451
S"                # self.vars['%s_newfilename' % fieldname] = newfilename"
p198
sI1452
S'                fields[fieldname] = newfilename'
p199
sI1453
S'                if isinstance(field.uploadfield, str):'
p200
ssg83
S"(self=<gluon.sqlhtml.SQLFORM object>, request_vars=<Storage {'photo': FieldStorage('photo', 'LeCoVi...xfew\\x00\\x00\\x00\\x00IEND\\xaeB`\\x82'), 'obs': ''}>, session=<Storage {'last_query': 'db.personal_data.id>0',...826aa', 'f22f6489-4c13-4958-a064-1a7a14288eb5']}>, formname='no_table/create', keepvalues=False, onvalidation=None, dbio=True, hideerror=False, detect_record_change=False, **kwargs={})"
p201
sg85
S'accepts'
p202
sa(dp203
g62
S'/home/leo/Dropbox/web2py/gluon/dal.py'
p204
sg64
(dp205
sg70
I9594
sg71
(dp206
I9589
S'                path = self.uploadfolder'
p207
sI9590
S'            elif self.db._adapter.folder:'
p208
sI9591
S"                path = pjoin(self.db._adapter.folder, '..', 'uploads')"
p209
sI9592
S'            else:'
p210
sI9593
S'                raise RuntimeError('
p211
sI9594
S'                    "you must specify a Field(...,uploadfolder=...)")'
p212
sI9595
S'            if self.uploadseparate:'
p213
sI9596
S'                if self.uploadfs:'
p214
sI9597
S'                    raise RuntimeError("not supported")'
p215
sI9598
S'                path = pjoin(path,"%s.%s" %(self._tablename, self.name),'
p216
ssg83
S"(self=<gluon.dal.Field object>, file=<open file '<fdopen>', mode 'w+b'>, filename='LeCoVi.324x317.jpg', path=None)"
p217
sg85
S'store'
p218
sasS'pyver'
p219
S'Python 2.7.5+: /usr/bin/python (prefix: /usr)'
p220
sS'session'
p221
g57
(S's\xcf\x0b\x00\x00<div><table><tr><td style="font-weight:bold;vertical-align:top;">auth</td><td style="vertical-align:top;">:</td><td><div><table><tr><td style="font-weight:bold;vertical-align:top;">expiration</td><td style="vertical-align:top;">:</td><td><div>3600</div></td></tr><tr><td style="font-weight:bold;vertical-align:top;">hmac_key</td><td style="vertical-align:top;">:</td><td><div>7933f495-306c-498f-a942-5343bee8364e</div></td></tr><tr><td style="font-weight:bold;vertical-align:top;">last_visit</td><td style="vertical-align:top;">:</td><td><div>datetime.datetime(2014, 1, 14, 11, 51, 59, 107434)</div></td></tr><tr><td style="font-weight:bold;vertical-align:top;">remember</td><td style="vertical-align:top;">:</td><td><div>False</div></td></tr><tr><td style="font-weight:bold;vertical-align:top;">user</td><td style="vertical-align:top;">:</td><td><div><table><tr><td style="font-weight:bold;vertical-align:top;">email</td><td style="vertical-align:top;">:</td><td><div>colomboleandro@pioix.edu.ar</div></td></tr><tr><td style="font-weight:bold;vertical-align:top;">first_name</td><td style="vertical-align:top;">:</td><td><div>Leandro</div></td></tr><tr><td style="font-weight:bold;vertical-align:top;">id</td><td style="vertical-align:top;">:</td><td><div>1L</div></td></tr><tr><td style="font-weight:bold;vertical-align:top;">last_login</td><td style="vertical-align:top;">:</td><td><div>datetime.datetime(2014, 1, 10, 17, 58, 38)</div></td></tr><tr><td style="font-weight:bold;vertical-align:top;">last_name</td><td style="vertical-align:top;">:</td><td><div>Colombo Vi\xc3\xb1a</div></td></tr><tr><td style="font-weight:bold;vertical-align:top;">middle_name</td><td style="vertical-align:top;">:</td><td><div>Enrique</div></td></tr><tr><td style="font-weight:bold;vertical-align:top;">obs</td><td style="vertical-align:top;">:</td><td><div></div></td></tr><tr><td style="font-weight:bold;vertical-align:top;">registration_id</td><td style="vertical-align:top;">:</td><td><div></div></td></tr><tr><td style="font-weight:bold;vertical-align:top;">registration_key</td><td style="vertical-align:top;">:</td><td><div></div></td></tr><tr><td style="font-weight:bold;vertical-align:top;">reset_password_key</td><td style="vertical-align:top;">:</td><td><div></div></td></tr></table></div></td></tr><tr><td style="font-weight:bold;vertical-align:top;">user_groups</td><td style="vertical-align:top;">:</td><td><div><table><tr><td style="font-weight:bold;vertical-align:top;">1</td><td style="vertical-align:top;">:</td><td><div>root</div></td></tr></table></div></td></tr></table></div></td></tr><tr><td style="font-weight:bold;vertical-align:top;">flash</td><td style="vertical-align:top;">:</td><td><div>None</div></td></tr><tr><td style="font-weight:bold;vertical-align:top;">last_orderby</td><td style="vertical-align:top;">:</td><td><div>None</div></td></tr><tr><td style="font-weight:bold;vertical-align:top;">last_query</td><td style="vertical-align:top;">:</td><td><div>db.personal_data.id&gt;0</div></td></tr></table></div>'
tRp222
sS'etype'
p223
S"<type 'exceptions.RuntimeError'>"
p224
sS'date'
p225
S'Tue Jan 14 11:52:53 2014'
p226
sS'response'
p227
g57
(S's\x8b8\x00\x00<div><table><tr><td style="font-weight:bold;vertical-align:top;">body</td><td style="vertical-align:top;">:</td><td><div>&lt;cStringIO.StringO object at 0x7f73cc3ce3e8&gt;</div></td></tr><tr><td style="font-weight:bold;vertical-align:top;">cookies</td><td style="vertical-align:top;">:</td><td><div><table><tr><td style="font-weight:bold;vertical-align:top;">session_id_seacat_ingresos</td><td style="vertical-align:top;">:</td><td><div>127.0.0.1-a4eff687-ec1c-4de7-a6af-95e0688fe505<table><tr><td style="font-weight:bold;vertical-align:top;">comment</td><td style="vertical-align:top;">:</td><td><div></div></td></tr><tr><td style="font-weight:bold;vertical-align:top;">domain</td><td style="vertical-align:top;">:</td><td><div></div></td></tr><tr><td style="font-weight:bold;vertical-align:top;">expires</td><td style="vertical-align:top;">:</td><td><div></div></td></tr><tr><td style="font-weight:bold;vertical-align:top;">httponly</td><td style="vertical-align:top;">:</td><td><div></div></td></tr><tr><td style="font-weight:bold;vertical-align:top;">max-age</td><td style="vertical-align:top;">:</td><td><div></div></td></tr><tr><td style="font-weight:bold;vertical-align:top;">path</td><td style="vertical-align:top;">:</td><td><div>/</div></td></tr><tr><td style="font-weight:bold;vertical-align:top;">secure</td><td style="vertical-align:top;">:</td><td><div></div></td></tr><tr><td style="font-weight:bold;vertical-align:top;">version</td><td style="vertical-align:top;">:</td><td><div></div></td></tr></table></div></td></tr></table></div></td></tr><tr><td style="font-weight:bold;vertical-align:top;">delimiters</td><td style="vertical-align:top;">:</td><td><div><table><tr><td><div>{{</div></td></tr><tr><td><div>}}</div></td></tr></table></div></td></tr><tr><td style="font-weight:bold;vertical-align:top;">files</td><td style="vertical-align:top;">:</td><td><div><table></table></div></td></tr><tr><td style="font-weight:bold;vertical-align:top;">flash</td><td style="vertical-align:top;">:</td><td><div></div></td></tr><tr><td style="font-weight:bold;vertical-align:top;">generic_patterns</td><td style="vertical-align:top;">:</td><td><div><table><tr><td><div>*</div></td></tr></table></div></td></tr><tr><td style="font-weight:bold;vertical-align:top;">google_analytics_id</td><td style="vertical-align:top;">:</td><td><div>None</div></td></tr><tr><td style="font-weight:bold;vertical-align:top;">headers</td><td style="vertical-align:top;">:</td><td><div><table><tr><td style="font-weight:bold;vertical-align:top;">X-Powered-By</td><td style="vertical-align:top;">:</td><td><div>web2py</div></td></tr></table></div></td></tr><tr><td style="font-weight:bold;vertical-align:top;">logo</td><td style="vertical-align:top;">:</td><td><div><a class="brand" data-w2p_disable_with="default" href="/SEACAT_ingresos/default/index"><img alt="Logo de SEACAT" src="/SEACAT_ingresos/static/Logo_seacat_mini.png" /></a></div></td></tr><tr><td style="font-weight:bold;vertical-align:top;">menu</td><td style="vertical-align:top;">:</td><td><div><table><tr><td><div><table><tr><td><div>P\xc3\xa1gina Principal</div></td></tr><tr><td><div>False</div></td></tr><tr><td><div>/SEACAT_ingresos/default/index</div></td></tr><tr><td><div><table></table></div></td></tr></table></div></td></tr><tr><td><div><table><tr><td><div><span class="highlighted">web2py</span></div></td></tr><tr><td><div>False</div></td></tr><tr><td><div>http://web2py.com</div></td></tr><tr><td><div><table><tr><td><div><table><tr><td><div>Mis Sitios</div></td></tr><tr><td><div>False</div></td></tr><tr><td><div>/admin/default/site</div></td></tr></table></div></td></tr><tr><td><div><table><tr><td><div>Esta Aplicaci\xc3\xb3n</div></td></tr><tr><td><div>False</div></td></tr><tr><td><div>/admin/default/design/SEACAT_ingresos</div></td></tr><tr><td><div>[(&lt;lazyT &#x27;Controller&#x27;&gt;, False, &#x27;/admin/default/edit/SEACAT_ingresos/controllers/default.py&#x27;), (&lt;lazyT &#x27;View&#x27;&gt;, False, &#x27;/admin/default/edit/SEACAT_ingresos/views/default/new_personal_data.html&#x27;), (&lt;lazyT &#x27;Layout&#x27;&gt;, False, &#x27;/admin/default/edit/SEACAT_ingresos/views/layout.html&#x27;), (&lt;lazyT &#x27;Stylesheet&#x27;&gt;, False, &#x27;/admin/default/edit/SEACAT_ingresos/static/css/web2py.css&#x27;), (&lt;lazyT &#x27;DB Model&#x27;&gt;, False, &#x27;/admin/default/edit/SEACAT_ingresos/models/db.py&#x27;), (&lt;lazyT &#x27;Menu Model&#x27;&gt;, False, &#x27;/admin/default/edit/SEACAT_ingresos/models/menu.py&#x27;), (&lt;lazyT &#x27;Database&#x27;&gt;, False, &#x27;/SEACAT_ingresos/appadmin/index&#x27;), (&lt;lazyT &#x27;Errors&#x27;&gt;, False, &#x27;/admin/default/errors/SEACAT_ingresos&#x27;), (&lt;lazyT &#x27;About&#x27;&gt;, False, &#x27;/admin/default/about/SEACAT_ingresos&#x27;)]</div></td></tr></table></div></td></tr><tr><td><div><table><tr><td><div>web2py.com</div></td></tr><tr><td><div>False</div></td></tr><tr><td><div>http://www.web2py.com</div></td></tr><tr><td><div>[(&lt;lazyT &#x27;Download&#x27;&gt;, False, &#x27;http://www.web2py.com/examples/default/download&#x27;), (&lt;lazyT &#x27;Support&#x27;&gt;, False, &#x27;http://www.web2py.com/examples/default/support&#x27;), (&lt;lazyT &#x27;Demo&#x27;&gt;, False, &#x27;http://web2py.com/demo_admin&#x27;), (&lt;lazyT &#x27;Quick Examples&#x27;&gt;, False, &#x27;http://web2py.com/examples/default/examples&#x27;), (&lt;lazyT &#x27;FAQ&#x27;&gt;, False, &#x27;http://web2py.com/AlterEgo&#x27;), (&lt;lazyT &#x27;Videos&#x27;&gt;, False, &#x27;http://www.web2py.com/examples/default/videos/&#x27;), (&lt;lazyT &#x27;Free Applications&#x27;&gt;, False, &#x27;http://web2py.com/appliances&#x27;), (&lt;lazyT &#x27;Plugins&#x27;&gt;, False, &#x27;http://web2py.com/plugins&#x27;), (&lt;lazyT &#x27;Layouts&#x27;&gt;, False, &#x27;http://web2py.com/layouts&#x27;), (&lt;lazyT &#x27;Recipes&#x27;&gt;, False, &#x27;http://web2pyslices.com/&#x27;), (&lt;lazyT &#x27;Semantic&#x27;&gt;, False, &#x27;http://web2py.com/semantic&#x27;)]</div></td></tr></table></div></td></tr><tr><td><div><table><tr><td><div>Documentaci\xc3\xb3n</div></td></tr><tr><td><div>False</div></td></tr><tr><td><div>http://www.web2py.com/book</div></td></tr><tr><td><div>[(&lt;lazyT &#x27;Preface&#x27;&gt;, False, &#x27;http://www.web2py.com/book/default/chapter/00&#x27;), (&lt;lazyT &#x27;Introduction&#x27;&gt;, False, &#x27;http://www.web2py.com/book/default/chapter/01&#x27;), (&lt;lazyT &#x27;Python&#x27;&gt;, False, &#x27;http://www.web2py.com/book/default/chapter/02&#x27;), (&lt;lazyT &#x27;Overview&#x27;&gt;, False, &#x27;http://www.web2py.com/book/default/chapter/03&#x27;), (&lt;lazyT &#x27;The Core&#x27;&gt;, False, &#x27;http://www.web2py.com/book/default/chapter/04&#x27;), (&lt;lazyT &#x27;The Views&#x27;&gt;, False, &#x27;http://www.web2py.com/book/default/chapter/05&#x27;), (&lt;lazyT &#x27;Database&#x27;&gt;, False, &#x27;http://www.web2py.com/book/default/chapter/06&#x27;), (&lt;lazyT &#x27;Forms and Validators&#x27;&gt;, False, &#x27;http://www.web2py.com/book/default/chapter/07&#x27;), (&lt;lazyT &#x27;Email and SMS&#x27;&gt;, False, &#x27;http://www.web2py.com/book/default/chapter/08&#x27;), (&lt;lazyT &#x27;Access Control&#x27;&gt;, False, &#x27;http://www.web2py.com/book/default/chapter/09&#x27;), (&lt;lazyT &#x27;Services&#x27;&gt;, False, &#x27;http://www.web2py.com/book/default/chapter/10&#x27;), (&lt;lazyT &#x27;Ajax Recipes&#x27;&gt;, False, &#x27;http://www.web2py.com/book/default/chapter/11&#x27;), (&lt;lazyT &#x27;Components and Plugins&#x27;&gt;, False, &#x27;http://www.web2py.com/book/default/chapter/12&#x27;), (&lt;lazyT &#x27;Deployment Recipes&#x27;&gt;, False, &#x27;http://www.web2py.com/book/default/chapter/13&#x27;), (&lt;lazyT &#x27;Other Recipes&#x27;&gt;, False, &#x27;http://www.web2py.com/book/default/chapter/14&#x27;), (&lt;lazyT &#x27;Buy this book&#x27;&gt;, False, &#x27;http://stores.lulu.com/web2py&#x27;)]</div></td></tr></table></div></td></tr><tr><td><div><table><tr><td><div>Comunidad</div></td></tr><tr><td><div>False</div></td></tr><tr><td><div>None</div></td></tr><tr><td><div>[(&lt;lazyT &#x27;Groups&#x27;&gt;, False, &#x27;http://www.web2py.com/examples/default/usergroups&#x27;), (&lt;lazyT &#x27;Twitter&#x27;&gt;, False, &#x27;http://twitter.com/web2py&#x27;), (&lt;lazyT &#x27;Live Chat&#x27;&gt;, False, &#x27;http://webchat.freenode.net/?channels=web2py&#x27;)]</div></td></tr></table></div></td></tr><tr><td><div><table><tr><td><div>Plugins</div></td></tr><tr><td><div>False</div></td></tr><tr><td><div>None</div></td></tr><tr><td><div>[(&#x27;plugin_wiki&#x27;, False, &#x27;http://web2py.com/examples/default/download&#x27;), (&lt;lazyT &#x27;Other Plugins&#x27;&gt;, False, &#x27;http://web2py.com/plugins&#x27;), (&lt;lazyT &#x27;Layout Plugins&#x27;&gt;, False, &#x27;http://web2py.com/layouts&#x27;)]</div></td></tr></table></div></td></tr></table></div></td></tr></table></div></td></tr><tr><td><div><table><tr><td><div><span class="highlighted">Men\xc3\xba de Root</span></div></td></tr><tr><td><div>False</div></td></tr><tr><td><div>None</div></td></tr><tr><td><div><table><tr><td><div><table><tr><td><div>Administrar</div></td></tr><tr><td><div>False</div></td></tr><tr><td><div>None</div></td></tr><tr><td><div>[(&lt;lazyT &#x27;Database&#x27;&gt;, False, &#x27;/SEACAT_ingresos/appadmin/index&#x27;), (&lt;lazyT &#x27;Users&#x27;&gt;, False, &#x27;/SEACAT_ingresos/default/admin_users&#x27;), (&lt;lazyT &#x27;Users Groups&#x27;&gt;, False, &#x27;/SEACAT_ingresos/default/admin_user_groups&#x27;), (&lt;lazyT &#x27;Users Memberships&#x27;&gt;, False, &#x27;/SEACAT_ingresos/default/admin_user_memberships&#x27;), (&lt;lazyT &#x27;Users Permissions&#x27;&gt;, False, &#x27;/SEACAT_ingresos/default/admin_user_permissions&#x27;)]</div></td></tr></table></div></td></tr></table></div></td></tr></table></div></td></tr><tr><td><div><table><tr><td><div><span>Nuevo</span></div></td></tr><tr><td><div>False</div></td></tr><tr><td><div>None</div></td></tr><tr><td><div><table><tr><td><div><table><tr><td><div>Usuario</div></td></tr><tr><td><div>False</div></td></tr><tr><td><div>/SEACAT_ingresos/default/new_user</div></td></tr></table></div></td></tr></table></div></td></tr></table></div></td></tr></table></div></td></tr><tr><td style="font-weight:bold;vertical-align:top;">meta</td><td style="vertical-align:top;">:</td><td><div><table><tr><td style="font-weight:bold;vertical-align:top;">author</td><td style="vertical-align:top;">:</td><td><div>Leandro E. Colombo Vi\xc3\xb1a &lt;colomboleandro@pioix.edu.ar&gt;</div></td></tr><tr><td style="font-weight:bold;vertical-align:top;">description</td><td style="vertical-align:top;">:</td><td><div>Sistema de Inscripciones para el Colegio P\xc3\xado IX</div></td></tr><tr><td style="font-weight:bold;vertical-align:top;">generator</td><td style="vertical-align:top;">:</td><td><div>Web2py Web Framework</div></td></tr><tr><td style="font-weight:bold;vertical-align:top;">keywords</td><td style="vertical-align:top;">:</td><td><div>Inscripciones, P\xc3\xado IX, Ingresantes, SEACAT</div></td></tr></table></div></td></tr><tr><td style="font-weight:bold;vertical-align:top;">models_to_run</td><td style="vertical-align:top;">:</td><td><div><table><tr><td><div>^\\w+\\.py$</div></td></tr><tr><td><div>^default/\\w+\\.py$</div></td></tr><tr><td><div>^default/new_personal_data/\\w+\\.py$</div></td></tr></table></div></td></tr><tr><td style="font-weight:bold;vertical-align:top;">postprocessing</td><td style="vertical-align:top;">:</td><td><div><table></table></div></td></tr><tr><td style="font-weight:bold;vertical-align:top;">session_client</td><td style="vertical-align:top;">:</td><td><div>127.0.0.1</div></td></tr><tr><td style="font-weight:bold;vertical-align:top;">session_cookie_compression_level</td><td style="vertical-align:top;">:</td><td><div>None</div></td></tr><tr><td style="font-weight:bold;vertical-align:top;">session_cookie_expires</td><td style="vertical-align:top;">:</td><td><div>None</div></td></tr><tr><td style="font-weight:bold;vertical-align:top;">session_cookie_key</td><td style="vertical-align:top;">:</td><td><div>None</div></td></tr><tr><td style="font-weight:bold;vertical-align:top;">session_data_name</td><td style="vertical-align:top;">:</td><td><div>session_data_seacat_ingresos</div></td></tr><tr><td style="font-weight:bold;vertical-align:top;">session_file</td><td style="vertical-align:top;">:</td><td><div>&lt;open file &#x27;/home/leo/Dropbox/web2py/applications/SEACAT_ingresos/sessions/127.0.0.1-a4eff687-ec1c-4de7-a6af-95e0688fe505&#x27;, mode &#x27;rb+&#x27; at 0x7f73b829c4b0&gt;</div></td></tr><tr><td style="font-weight:bold;vertical-align:top;">session_filename</td><td style="vertical-align:top;">:</td><td><div>/home/leo/Dropbox/web2py/applications/SEACAT_ingresos/sessions/127.0.0.1-a4eff687-ec1c-4de7-a6af-95e0688fe505</div></td></tr><tr><td style="font-weight:bold;vertical-align:top;">session_hash</td><td style="vertical-align:top;">:</td><td><div>0a5ee657229314742bd980df41959b6a</div></td></tr><tr><td style="font-weight:bold;vertical-align:top;">session_id</td><td style="vertical-align:top;">:</td><td><div>127.0.0.1-a4eff687-ec1c-4de7-a6af-95e0688fe505</div></td></tr><tr><td style="font-weight:bold;vertical-align:top;">session_id_name</td><td style="vertical-align:top;">:</td><td><div>session_id_seacat_ingresos</div></td></tr><tr><td style="font-weight:bold;vertical-align:top;">session_locked</td><td style="vertical-align:top;">:</td><td><div>True</div></td></tr><tr><td style="font-weight:bold;vertical-align:top;">session_masterapp</td><td style="vertical-align:top;">:</td><td><div>SEACAT_ingresos</div></td></tr><tr><td style="font-weight:bold;vertical-align:top;">session_new</td><td style="vertical-align:top;">:</td><td><div>False</div></td></tr><tr><td style="font-weight:bold;vertical-align:top;">session_storage_type</td><td style="vertical-align:top;">:</td><td><div>file</div></td></tr><tr><td style="font-weight:bold;vertical-align:top;">status</td><td style="vertical-align:top;">:</td><td><div>200</div></td></tr><tr><td style="font-weight:bold;vertical-align:top;">subtitle</td><td style="vertical-align:top;">:</td><td><div>v.0.0.1b</div></td></tr><tr><td style="font-weight:bold;vertical-align:top;">title</td><td style="vertical-align:top;">:</td><td><div>SEACAT</div></td></tr><tr><td style="font-weight:bold;vertical-align:top;">view</td><td style="vertical-align:top;">:</td><td><div>default/new_personal_data.html</div></td></tr></table></div>'
tRp228
sS'locals'
p229
(dp230
S'extension'
p231
S"'jpg'"
p232
sS'self'
p233
S'<gluon.dal.Field object>'
p234
sS'm'
S'<_sre.SRE_Match object>'
p235
sS'newfilename'
p236
S"'no_table.photo.80f88d7386969ad0.4c65436f56692e333234783331372e6a7067.jpg'"
p237
sS'encoded_filename'
p238
S"'4c65436f56692e333234783331372e6a7067'"
p239
sS'filename'
p240
S"'LeCoVi.324x317.jpg'"
p241
sS'self_uploadfield'
p242
S'True'
p243
sg62
S"<open file '<fdopen>', mode 'w+b'>"
p244
sS'path'
p245
S'None'
p246
sS'uuid_key'
p247
S"'80f88d7386969ad0'"
p248
sssS'traceback'
p249
S'Traceback (most recent call last):\n  File "/home/leo/Dropbox/web2py/gluon/restricted.py", line 217, in restricted\n    exec ccode in environment\n  File "/home/leo/Dropbox/web2py/applications/SEACAT_ingresos/controllers/default.py", line 251, in <module>\n  File "/home/leo/Dropbox/web2py/gluon/globals.py", line 372, in <lambda>\n    self._caller = lambda f: f()\n  File "/home/leo/Dropbox/web2py/applications/SEACAT_ingresos/controllers/default.py", line 245, in new_personal_data\n    if form.process().accepted:\n  File "/home/leo/Dropbox/web2py/gluon/html.py", line 2215, in process\n    self.validate(**kwargs)\n  File "/home/leo/Dropbox/web2py/gluon/html.py", line 2154, in validate\n    if self.accepts(**kwargs):\n  File "/home/leo/Dropbox/web2py/gluon/sqlhtml.py", line 1449, in accepts\n    field.uploadfolder)\n  File "/home/leo/Dropbox/web2py/gluon/dal.py", line 9594, in store\n    "you must specify a Field(...,uploadfolder=...)")\nRuntimeError: you must specify a Field(...,uploadfolder=...)\n'
p250
s.