(dp1
S'output'
p2
S"<class 'gluon.contrib.pg8000.errors.ProgrammingError'> ('ERROR', '42P07', 'la relaci\\xc3\\xb3n \\xc2\\xabauth_user\\xc2\\xbb ya existe')"
p3
sS'layer'
p4
S'/home/leo/Dropbox/web2py/applications/SEACAT_ingresos/models/db.py'
p5
sS'code'
p6
S'# -*- coding: utf-8 -*-\n\n#########################################################################\n## This scaffolding model makes your app work on Google App Engine too\n## File is released under public domain and you can use without limitations\n#########################################################################\n\n## if SSL/HTTPS is properly configured and you want all HTTP requests to\n## be redirected to HTTPS, uncomment the line below:\n# request.requires_https()\n\nif SUSPEND_SERVICE:\n    message = "<html><body><h2>"\n    message += T("System is under maitenance, please come back later.")\n    message += "</h2><h3>"\n    message += T("Sorry for the inconvenience")\n    message += "</h3><p>"\n    message += str(NOW)\n    message += "</p></body></html>"\n    raise HTTP(503, message)\n\ndb = DAL(DBURI, check_reserved=[DB_ENGINE])\n\n#if not request.env.web2py_runtime_gae:\n    ## if NOT running on Google App Engine use SQLite or other DB\n    #db = DAL(\'sqlite://storage.sqlite\',pool_size=1,check_reserved=[\'all\'])\n    ## To connect to a PostgreSQL DB: postgres://username:password@server/database\n    ## DBURI contains the string to configure de DB it\'s stored in 0.py\n#    db = DAL(DBURI, check_reserved=[DB_ENGINE])\n#else:\n    ## connect to Google BigTable (optional \'google:datastore://namespace\')\n#    db = DAL(\'google:datastore\')\n    ## store sessions and tickets there\n#   session.connect(request, response, db=db)\n    ## or store session in Memcache, Redis, etc.\n    ## from gluon.contrib.memdb import MEMDB\n    ## from google.appengine.api.memcache import Client\n    ## session.connect(request, response, db = MEMDB(Client()))\n\n## by default give a view/generic.extension to all actions from localhost\n## none otherwise. a pattern can be \'controller/function.extension\'\nresponse.generic_patterns = [\'*\'] if request.is_local else []\n## (optional) optimize handling of static files\n# response.optimize_css = \'concat,minify,inline\'\n# response.optimize_js = \'concat,minify,inline\'\n\n#########################################################################\n## Here is sample code if you need for\n## - email capabilities\n## - authentication (registration, login, logout, ... )\n## - authorization (role based authorization)\n## - services (xml, csv, json, xmlrpc, jsonrpc, amf, rss)\n## - old style crud actions\n## (more options discussed in gluon/tools.py)\n#########################################################################\n\nfrom gluon.tools import Auth, Crud, Service, PluginManager, prettydate\nauth = Auth(db)\ncrud, service, plugins = Crud(db), Service(), PluginManager()\n\n## Adding "last_login" and "obs" fields to \'auth_user\' table\nauth.settings.extra_fields[\'auth_user\'] = [\n                                           Field(\'middle_name\', label=T("Middle Name")),\n                                           # Falta agregar notnull...\n                                           Field(\'gender\', requires=IS_IN_SET(GENDER_LIST), label=T("Gender")),\n                                           Field(\'created_on\', \'datetime\', label=T("Created On"), writable=False, readable=True),\n                                           Field(\'last_login\', \'datetime\', label=T("Last Login"), writable=False, readable=True),\n                                           Field(\'obs\', \'text\', label=T("Observations")),\n                                           #Field(\'personal_data_id\', \'reference personal_data\', writable=False, readable=False, requires=IS_IN_DB(db, \'personal_data.id\'), label=T("Personal Data ID")),\n                                           #Field(\'address_id\', \'reference address\', writable=False, readable=False, requires=IS_IN_DB(db, \'address.id\'), label=T("Address ID"))\n                                           ]\n## create all tables needed by auth if not custom tables\nauth.define_tables(username=False, signature=True, migrate=True)\n\n## Changing format to \'auth_user\' table:\ndb.auth_user._format = \'%(last_name)s\'+", "+\'%(first_name)s\'+" "+\'%(middle_name)s\'\n\n## Settings for \'first_name\' field:\ndb.auth_user.first_name.required=True\ndb.auth_user.first_name.requires=IS_NOT_EMPTY()\n\n## Settings for \'last_name\' field:\ndb.auth_user.last_name.required=True\ndb.auth_user.last_name.requires=IS_NOT_EMPTY()\n\n## Setting email to unique\ndb.auth_user.email.requires = [IS_EMAIL(), IS_NOT_IN_DB(db, \'auth_user.email\')]\ndb.auth_user.email.unique=True\ndb.auth_user.email.error_message=T("This email is already in our database, please choose another one")\n\n## Changing attributes:\ndb.auth_group.description.readable = True\n\n## Removing "remember me" feature at login form\nauth.settings.remember_me_form = False\n\n## Defining new table for Images:\ndb.define_table(\'images\',\n                Field(\'name\', label=T("Name")),\n                Field(\'file\', \'upload\', label=T("File"), required=True),\n                auth.signature\n                )\n\n## Defining new table for address:\ndb.define_table(\'address\',\n                Field(\'uid\', \'reference auth_user\', writable=False, readable=False, requires=IS_IN_DB(db, \'auth_user.id\'), label=T("User ID")),\n                Field(\'street\', required=True, notnull=True, label=T("Street")),\n                Field(\'building\', \'integer\', label=T("Building")),\n                Field(\'floor\', label=T("Floor")),\n                Field(\'door\', label=T("Door")),\n                Field(\'apartment\', label=T("Apartment")),\n                Field(\'street1\', label=T("Street 1")),\n                Field(\'street2\', label=T("Street 2")),\n                Field(\'zip_code\', label=T("ZIP Code")),\n                Field(\'loc\', default=PROVINCES_LIST[2], label=T("Locality")),\n                Field(\'prov\', requires=IS_IN_SET(PROVINCES_LIST), default=PROVINCES_LIST[2], label=T("Province")),\n                Field(\'obs\', \'text\', label=T("Observations")),\n                auth.signature,\n                format=\'%(street)s\'+" "+\'%(building)s\'+" "+\'%(floor)s\'+" "+\'%(door)s\'+" "+\'%(apartment)s\'\n                )\n\n## Defining new table for personal data\ndb.define_table(\'personal_data\',\n                Field(\'uid\', \'reference auth_user\', writable=False, readable=False, requires=IS_IN_DB(db, \'auht_user.id\'), label=T("User ID")),\n                Field(\'doc_type\', required=True, requires=IS_IN_SET(DOC_TYPE_SET), notnull=True, default=DOC_TYPE_SET[0], label=T("Document Type")),\n                Field(\'doc\', \'string\', length=8, required=True, requires=IS_MATCH(\'\\d{8}\'), notnull=True, unique=True, label=T("Document"), comment=T("Insert only numbers without dots. i.e.: 12654897")),\n                Field(\'nac\', required=True, notnull=True, default="Argentina", label=T("Nacionality")),\n                Field(\'cuil\', \'string\', length=11, requires=IS_MATCH(\'\\d{11}\'), notnull=True, unique=True, label="CUIL"),\n                Field(\'dob\', \'date\', required=True, requires=IS_DATE(format=(\'%d-%m-%Y\')), notnull=True, label=T("Day of Birth")),\n                ## Commented because they are in \'auth_user\' table:\n                #Field(\'first_name\', required=True, notnull=True, label=T("First Name")),\n                #Field(\'middle_name\', label=T("Middle Name")),\n                #Field(\'last_name\', required=True, notnull=True, label=T("Last Name")),\n                #Field(\'mail1\', required=True, requires=IS_EMAIL(), notnull=True, label=T("email 1")),\n                Field(\'mail2\', requires=IS_EMPTY_OR(IS_EMAIL()), label=T("Alternative email"), comment=T("Another contact mail")),\n                Field(\'tel1_type\', required=True, requires=IS_IN_SET(TEL_TYPE_SET), notnull=True, default=TEL_TYPE_SET[0], label=T("Principal Phone Type")),\n                Field(\'tel1\', length=8, required=True, requires=IS_MATCH(\'\\d{8}\'), notnull=True, label=T("Principal Phone Number")),\n                Field(\'tel2_type\', requires=IS_IN_SET(TEL_TYPE_SET), default=TEL_TYPE_SET[0], label=T("Alternative Phone Type")),\n                Field(\'tel2\', length=8, requires=IS_MATCH(\'\\d{8}\'), label=T("Alternative Phone Number")),\n                Field(\'photo\', \'upload\', requires=IS_EMPTY_OR(IS_IMAGE(extensions=VALID_IMG_EXTENSION_SET, maxsize=MAX_PHOTO_SIZE)), label=T("Photo")),\n                Field(\'avatar\', \'upload\', requires=IS_EMPTY_OR(IS_IMAGE(extensions=VALID_IMG_EXTENSION_SET, maxsize=MAX_AVATAR_SIZE)), label=T("Avatar")),\n                Field(\'twitter\', requires=IS_EMPTY_OR(IS_URL()), label=T("Twitter Profile")),\n                Field(\'facebook\', requires=IS_EMPTY_OR(IS_URL()), label=T("Facebook Profile")),\n                Field(\'obs\', \'text\', label=T("Observations")),\n                auth.signature,\n                format=\'%(doc)s\'\n                )\n#db.personal_data.age = Field.Virtual(lambda row: (request.now-row.personal_data.dob).years)\n\n## Defining new table for Fathers.\ndb.define_table(\'father\',\n                Field(\'father_id\', \'reference auth_user\', writable=False, readable=False, requires=IS_IN_DB(db, \'auth_user.id\'), label=T("Father ID")),\n                Field(\'children_in_school\', \'boolean\', label=T("Do you have children in our school?")),\n                Field(\'children_name\', label=T("Children name")),\n                Field(\'student_network\', \'boolean\', label=T("Does your son goes to a school in our network?")),\n                Field(\'student_school\', requires=IS_EMPTY_OR(IS_IN_SET(SCHOOL_NETWORK_LIST)), label=T("Choose your school")),\n                auth.signature,\n                format=\'%(db.auth_user.last_name)s\'+\', \'+\'%(db.auth_user.first_name)s\'+\' \'+\'%(db.auth_user.middle_name)s\'\n               )\n\n## configure email\nmail = auth.settings.mailer\nmail.settings.server = \'logging\' or \'smtp.gmail.com:587\'\nmail.settings.sender = \'soportetecnico@pioix.edu.ar\'\nmail.settings.login = \'soportetecnico:deagostini\'\n\n## configure auth policy\nauth.settings.registration_requires_verification = False\nauth.settings.registration_requires_approval = False\nauth.settings.reset_password_requires_verification = True\n\n## if you need to use OpenID, Facebook, MySpace, Twitter, Linkedin, etc.\n## register with janrain.com, write your domain:api_key in private/janrain.key\nfrom gluon.contrib.login_methods.rpx_account import use_janrain\nuse_janrain(auth, filename=\'private/janrain.key\')\n\n#########################################################################\n## Define your tables below (or better in another model file) for example\n##\n## >>> db.define_table(\'mytable\',Field(\'myfield\',\'string\'))\n##\n## Fields can be \'string\',\'text\',\'password\',\'integer\',\'double\',\'boolean\'\n##       \'date\',\'time\',\'datetime\',\'blob\',\'upload\', \'reference TABLENAME\'\n## There is an implicit \'id integer autoincrement\' field\n## Consult manual for more options, validators, etc.\n##\n## More API examples for controllers:\n##\n## >>> db.mytable.insert(myfield=\'value\')\n## >>> rows=db(db.mytable.myfield==\'value\').select(db.mytable.ALL)\n## >>> for row in rows: print row.id, row.myfield\n#########################################################################\n\n## after defining tables, uncomment below to enable auditing\n# auth.enable_record_versioning(db)\n'
p7
sS'snapshot'
p8
(dp9
S'exception'
p10
(dp11
S'__module__'
p12
S"'gluon.contrib.pg8000.errors'"
p13
sS'__getslice__'
p14
S"<method-wrapper '__getslice__' of ProgrammingError object>"
p15
sS'__str__'
p16
S"<method-wrapper '__str__' of ProgrammingError object>"
p17
sS'__reduce__'
p18
S'<built-in method __reduce__ of ProgrammingError object>'
p19
sS'__dict__'
p20
S'{}'
p21
sS'__sizeof__'
p22
S'<built-in method __sizeof__ of ProgrammingError object>'
p23
sS'__weakref__'
p24
S'None'
p25
sS'__init__'
p26
S"<method-wrapper '__init__' of ProgrammingError object>"
p27
sS'__setattr__'
p28
S"<method-wrapper '__setattr__' of ProgrammingError object>"
p29
sS'__reduce_ex__'
p30
S'<built-in method __reduce_ex__ of ProgrammingError object>'
p31
sS'__new__'
p32
S'<built-in method __new__ of type object>'
p33
sS'__format__'
p34
S'<built-in method __format__ of ProgrammingError object>'
p35
sS'__class__'
p36
S"<class 'gluon.contrib.pg8000.errors.ProgrammingError'>"
p37
sS'__doc__'
p38
S'None'
p39
sS'__getitem__'
p40
S"<method-wrapper '__getitem__' of ProgrammingError object>"
p41
sS'__setstate__'
p42
S'<built-in method __setstate__ of ProgrammingError object>'
p43
sS'__getattribute__'
p44
S"<method-wrapper '__getattribute__' of ProgrammingError object>"
p45
sS'args'
p46
S"('ERROR', '42P07', 'la relaci\\xc3\\xb3n \\xc2\\xabauth_user\\xc2\\xbb ya existe')"
p47
sS'__subclasshook__'
p48
S'<built-in method __subclasshook__ of type object>'
p49
sS'__unicode__'
p50
S'<built-in method __unicode__ of ProgrammingError object>'
p51
sS'__delattr__'
p52
S"<method-wrapper '__delattr__' of ProgrammingError object>"
p53
sS'__repr__'
p54
S"<method-wrapper '__repr__' of ProgrammingError object>"
p55
sS'__hash__'
p56
S"<method-wrapper '__hash__' of ProgrammingError object>"
p57
ssS'evalue'
p58
S"('ERROR', '42P07', 'la relaci\\xc3\\xb3n \\xc2\\xabauth_user\\xc2\\xbb ya existe')"
p59
sS'request'
p60
cgluon.html
XML_unpickle
p61
(S's=f\x00\x00<div><table><tr><td style="font-weight:bold;vertical-align:top;">ajax</td><td style="vertical-align:top;">:</td><td><div>False</div></td></tr><tr><td style="font-weight:bold;vertical-align:top;">application</td><td style="vertical-align:top;">:</td><td><div>SEACAT_ingresos</div></td></tr><tr><td style="font-weight:bold;vertical-align:top;">args</td><td style="vertical-align:top;">:</td><td><div><table></table></div></td></tr><tr><td style="font-weight:bold;vertical-align:top;">cid</td><td style="vertical-align:top;">:</td><td><div>None</div></td></tr><tr><td style="font-weight:bold;vertical-align:top;">client</td><td style="vertical-align:top;">:</td><td><div>127.0.0.1</div></td></tr><tr><td style="font-weight:bold;vertical-align:top;">controller</td><td style="vertical-align:top;">:</td><td><div>default</div></td></tr><tr><td style="font-weight:bold;vertical-align:top;">cookies</td><td style="vertical-align:top;">:</td><td><div><table><tr><td style="font-weight:bold;vertical-align:top;">session_id_admin</td><td style="vertical-align:top;">:</td><td><div>127.0.0.1-890a02b4-d81a-452d-b5f4-fe4e888bcdeb<table><tr><td style="font-weight:bold;vertical-align:top;">comment</td><td style="vertical-align:top;">:</td><td><div></div></td></tr><tr><td style="font-weight:bold;vertical-align:top;">domain</td><td style="vertical-align:top;">:</td><td><div></div></td></tr><tr><td style="font-weight:bold;vertical-align:top;">expires</td><td style="vertical-align:top;">:</td><td><div></div></td></tr><tr><td style="font-weight:bold;vertical-align:top;">httponly</td><td style="vertical-align:top;">:</td><td><div></div></td></tr><tr><td style="font-weight:bold;vertical-align:top;">max-age</td><td style="vertical-align:top;">:</td><td><div></div></td></tr><tr><td style="font-weight:bold;vertical-align:top;">path</td><td style="vertical-align:top;">:</td><td><div></div></td></tr><tr><td style="font-weight:bold;vertical-align:top;">secure</td><td style="vertical-align:top;">:</td><td><div></div></td></tr><tr><td style="font-weight:bold;vertical-align:top;">version</td><td style="vertical-align:top;">:</td><td><div></div></td></tr></table></div></td></tr><tr><td style="font-weight:bold;vertical-align:top;">session_id_isbp</td><td style="vertical-align:top;">:</td><td><div>127.0.0.1-f7d6e8bc-faca-433a-87b3-3d7e74279bdd<table><tr><td style="font-weight:bold;vertical-align:top;">comment</td><td style="vertical-align:top;">:</td><td><div></div></td></tr><tr><td style="font-weight:bold;vertical-align:top;">domain</td><td style="vertical-align:top;">:</td><td><div></div></td></tr><tr><td style="font-weight:bold;vertical-align:top;">expires</td><td style="vertical-align:top;">:</td><td><div></div></td></tr><tr><td style="font-weight:bold;vertical-align:top;">httponly</td><td style="vertical-align:top;">:</td><td><div></div></td></tr><tr><td style="font-weight:bold;vertical-align:top;">max-age</td><td style="vertical-align:top;">:</td><td><div></div></td></tr><tr><td style="font-weight:bold;vertical-align:top;">path</td><td style="vertical-align:top;">:</td><td><div></div></td></tr><tr><td style="font-weight:bold;vertical-align:top;">secure</td><td style="vertical-align:top;">:</td><td><div></div></td></tr><tr><td style="font-weight:bold;vertical-align:top;">version</td><td style="vertical-align:top;">:</td><td><div></div></td></tr></table></div></td></tr><tr><td style="font-weight:bold;vertical-align:top;">session_id_pgday</td><td style="vertical-align:top;">:</td><td><div>127.0.0.1-4b839bf6-587f-4a54-9d21-64fdbe2253ae<table><tr><td style="font-weight:bold;vertical-align:top;">comment</td><td style="vertical-align:top;">:</td><td><div></div></td></tr><tr><td style="font-weight:bold;vertical-align:top;">domain</td><td style="vertical-align:top;">:</td><td><div></div></td></tr><tr><td style="font-weight:bold;vertical-align:top;">expires</td><td style="vertical-align:top;">:</td><td><div></div></td></tr><tr><td style="font-weight:bold;vertical-align:top;">httponly</td><td style="vertical-align:top;">:</td><td><div></div></td></tr><tr><td style="font-weight:bold;vertical-align:top;">max-age</td><td style="vertical-align:top;">:</td><td><div></div></td></tr><tr><td style="font-weight:bold;vertical-align:top;">path</td><td style="vertical-align:top;">:</td><td><div></div></td></tr><tr><td style="font-weight:bold;vertical-align:top;">secure</td><td style="vertical-align:top;">:</td><td><div></div></td></tr><tr><td style="font-weight:bold;vertical-align:top;">version</td><td style="vertical-align:top;">:</td><td><div></div></td></tr></table></div></td></tr><tr><td style="font-weight:bold;vertical-align:top;">session_id_seacat_ingresos</td><td style="vertical-align:top;">:</td><td><div>127.0.0.1-f26ab437-dcfb-4664-8442-3d76eb2b5622<table><tr><td style="font-weight:bold;vertical-align:top;">comment</td><td style="vertical-align:top;">:</td><td><div></div></td></tr><tr><td style="font-weight:bold;vertical-align:top;">domain</td><td style="vertical-align:top;">:</td><td><div></div></td></tr><tr><td style="font-weight:bold;vertical-align:top;">expires</td><td style="vertical-align:top;">:</td><td><div></div></td></tr><tr><td style="font-weight:bold;vertical-align:top;">httponly</td><td style="vertical-align:top;">:</td><td><div></div></td></tr><tr><td style="font-weight:bold;vertical-align:top;">max-age</td><td style="vertical-align:top;">:</td><td><div></div></td></tr><tr><td style="font-weight:bold;vertical-align:top;">path</td><td style="vertical-align:top;">:</td><td><div></div></td></tr><tr><td style="font-weight:bold;vertical-align:top;">secure</td><td style="vertical-align:top;">:</td><td><div></div></td></tr><tr><td style="font-weight:bold;vertical-align:top;">version</td><td style="vertical-align:top;">:</td><td><div></div></td></tr></table></div></td></tr><tr><td style="font-weight:bold;vertical-align:top;">session_id_welcome</td><td style="vertical-align:top;">:</td><td><div>127.0.0.1-e036a97f-f1cb-4429-807f-e6a9668cde90<table><tr><td style="font-weight:bold;vertical-align:top;">comment</td><td style="vertical-align:top;">:</td><td><div></div></td></tr><tr><td style="font-weight:bold;vertical-align:top;">domain</td><td style="vertical-align:top;">:</td><td><div></div></td></tr><tr><td style="font-weight:bold;vertical-align:top;">expires</td><td style="vertical-align:top;">:</td><td><div></div></td></tr><tr><td style="font-weight:bold;vertical-align:top;">httponly</td><td style="vertical-align:top;">:</td><td><div></div></td></tr><tr><td style="font-weight:bold;vertical-align:top;">max-age</td><td style="vertical-align:top;">:</td><td><div></div></td></tr><tr><td style="font-weight:bold;vertical-align:top;">path</td><td style="vertical-align:top;">:</td><td><div></div></td></tr><tr><td style="font-weight:bold;vertical-align:top;">secure</td><td style="vertical-align:top;">:</td><td><div></div></td></tr><tr><td style="font-weight:bold;vertical-align:top;">version</td><td style="vertical-align:top;">:</td><td><div></div></td></tr></table></div></td></tr></table></div></td></tr><tr><td style="font-weight:bold;vertical-align:top;">env</td><td style="vertical-align:top;">:</td><td><div><table><tr><td style="font-weight:bold;vertical-align:top;">HTTP_ACCEPT</td><td style="vertical-align:top;">:</td><td><div>text/html,application/xhtml+xml,application/xml;q=0.9,*/*;q=0.8</div></td></tr><tr><td style="font-weight:bold;vertical-align:top;">HTTP_ACCEPT_ENCODING</td><td style="vertical-align:top;">:</td><td><div>gzip,deflate,sdch</div></td></tr><tr><td style="font-weight:bold;vertical-align:top;">HTTP_ACCEPT_LANGUAGE</td><td style="vertical-align:top;">:</td><td><div>es,es-419;q=0.8,en-US;q=0.6,en;q=0.4</div></td></tr><tr><td style="font-weight:bold;vertical-align:top;">HTTP_CONNECTION</td><td style="vertical-align:top;">:</td><td><div>keep-alive</div></td></tr><tr><td style="font-weight:bold;vertical-align:top;">HTTP_COOKIE</td><td style="vertical-align:top;">:</td><td><div>session_id_isbp=127.0.0.1-f7d6e8bc-faca-433a-87b3-3d7e74279bdd; __utma=96992031.17915714.1390050310.1390050310.1390057708.2; __utmc=96992031; __utmz=96992031.1390050310.1.1.utmcsr=(direct)|utmccn=(direct)|utmcmd=(none); session_id_pgday=127.0.0.1-4b839bf6-587f-4a54-9d21-64fdbe2253ae; session_id_welcome=127.0.0.1-e036a97f-f1cb-4429-807f-e6a9668cde90; session_id_seacat_ingresos=127.0.0.1-f26ab437-dcfb-4664-8442-3d76eb2b5622; session_id_admin=127.0.0.1-890a02b4-d81a-452d-b5f4-fe4e888bcdeb</div></td></tr><tr><td style="font-weight:bold;vertical-align:top;">HTTP_HOST</td><td style="vertical-align:top;">:</td><td><div>127.0.0.1:8000</div></td></tr><tr><td style="font-weight:bold;vertical-align:top;">HTTP_REFERER</td><td style="vertical-align:top;">:</td><td><div>http://127.0.0.1:8000/admin/default/design/SEACAT_ingresos</div></td></tr><tr><td style="font-weight:bold;vertical-align:top;">HTTP_USER_AGENT</td><td style="vertical-align:top;">:</td><td><div>Mozilla/5.0 (X11; Linux x86_64) AppleWebKit/537.36 (KHTML, like Gecko) Chrome/28.0.1500.95 Safari/537.36</div></td></tr><tr><td style="font-weight:bold;vertical-align:top;">PATH_INFO</td><td style="vertical-align:top;">:</td><td><div>/SEACAT_ingresos/default/index</div></td></tr><tr><td style="font-weight:bold;vertical-align:top;">QUERY_STRING</td><td style="vertical-align:top;">:</td><td><div></div></td></tr><tr><td style="font-weight:bold;vertical-align:top;">REMOTE_ADDR</td><td style="vertical-align:top;">:</td><td><div>127.0.0.1</div></td></tr><tr><td style="font-weight:bold;vertical-align:top;">REMOTE_PORT</td><td style="vertical-align:top;">:</td><td><div>56029</div></td></tr><tr><td style="font-weight:bold;vertical-align:top;">REQUEST_METHOD</td><td style="vertical-align:top;">:</td><td><div>GET</div></td></tr><tr><td style="font-weight:bold;vertical-align:top;">SCRIPT_NAME</td><td style="vertical-align:top;">:</td><td><div></div></td></tr><tr><td style="font-weight:bold;vertical-align:top;">SERVER_NAME</td><td style="vertical-align:top;">:</td><td><div>larrea-lmde</div></td></tr><tr><td style="font-weight:bold;vertical-align:top;">SERVER_PORT</td><td style="vertical-align:top;">:</td><td><div>8000</div></td></tr><tr><td style="font-weight:bold;vertical-align:top;">SERVER_PROTOCOL</td><td style="vertical-align:top;">:</td><td><div>HTTP/1.1</div></td></tr><tr><td style="font-weight:bold;vertical-align:top;">SERVER_SOFTWARE</td><td style="vertical-align:top;">:</td><td><div>Rocket 1.2.6</div></td></tr><tr><td style="font-weight:bold;vertical-align:top;">app_folders</td><td style="vertical-align:top;">:</td><td><div>set([&#x27;/home/leo/Dropbox/web2py/applications/SEACAT_ingresos/&#x27;, &#x27;/home/leo/Dropbox/web2py/applications/admin/&#x27;, &#x27;/home/leo/Dropbox/web2py/applications/welcome/&#x27;])</div></td></tr><tr><td style="font-weight:bold;vertical-align:top;">applications_parent</td><td style="vertical-align:top;">:</td><td><div>/home/leo/Dropbox/web2py</div></td></tr><tr><td style="font-weight:bold;vertical-align:top;">cmd_args</td><td style="vertical-align:top;">:</td><td><div><table></table></div></td></tr><tr><td style="font-weight:bold;vertical-align:top;">cmd_options</td><td style="vertical-align:top;">:</td><td><div>&lt;Values at 0x1f5b1b8: {&#x27;verbose&#x27;: False, &#x27;ip&#x27;: &#x27;127.0.0.1&#x27;, &#x27;debuglevel&#x27;: 30, &#x27;with_scheduler&#x27;: False, &#x27;ips&#x27;: [&#x27;127.0.1.1&#x27;], &#x27;shutdown_timeout&#x27;: 5, &#x27;taskbar&#x27;: False, &#x27;with_coverage&#x27;: False, &#x27;port&#x27;: 8000, &#x27;maxthreads&#x27;: None, &#x27;softcron&#x27;: False, &#x27;server_name&#x27;: &#x27;larrea-lmde&#x27;, &#x27;bpython&#x27;: False, &#x27;nogui&#x27;: False, &#x27;pid_filename&#x27;: &#x27;httpserver.pid&#x27;, &#x27;extcron&#x27;: False, &#x27;runcron&#x27;: False, &#x27;run_system_tests&#x27;: False, &#x27;test&#x27;: None, &#x27;folder&#x27;: &#x27;/home/leo/Dropbox/web2py&#x27;, &#x27;config&#x27;: &#x27;&#x27;, &#x27;minthreads&#x27;: None, &#x27;shell&#x27;: None, &#x27;run&#x27;: &#x27;&#x27;, &#x27;log_filename&#x27;: &#x27;httpserver.log&#x27;, &#x27;profiler_dir&#x27;: None, &#x27;args&#x27;: [&#x27;&#x27;], &#x27;socket_timeout&#x27;: 5, &#x27;ssl_ca_certificate&#x27;: None, &#x27;scheduler&#x27;: None, &#x27;interfaces&#x27;: None, &#x27;ssl_private_key&#x27;: &#x27;&#x27;, &#x27;scheduler_groups&#x27;: None, &#x27;password&#x27;: &#x27;&lt;ask&gt;&#x27;, &#x27;request_queue_size&#x27;: 5, &#x27;ssl_certificate&#x27;: &#x27;&#x27;, &#x27;cronjob&#x27;: False, &#x27;numthreads&#x27;: None, &#x27;quiet&#x27;: False, &#x27;import_models&#x27;: False, &#x27;timeout&#x27;: 10, &#x27;plain&#x27;: False, &#x27;nobanner&#x27;: False}&gt;</div></td></tr><tr><td style="font-weight:bold;vertical-align:top;">db_sessions</td><td style="vertical-align:top;">:</td><td><div>set([])</div></td></tr><tr><td style="font-weight:bold;vertical-align:top;">debugging</td><td style="vertical-align:top;">:</td><td><div>True</div></td></tr><tr><td style="font-weight:bold;vertical-align:top;">gluon_parent</td><td style="vertical-align:top;">:</td><td><div>/home/leo/Dropbox/web2py</div></td></tr><tr><td style="font-weight:bold;vertical-align:top;">http_accept</td><td style="vertical-align:top;">:</td><td><div>text/html,application/xhtml+xml,application/xml;q=0.9,*/*;q=0.8</div></td></tr><tr><td style="font-weight:bold;vertical-align:top;">http_accept_encoding</td><td style="vertical-align:top;">:</td><td><div>gzip,deflate,sdch</div></td></tr><tr><td style="font-weight:bold;vertical-align:top;">http_accept_language</td><td style="vertical-align:top;">:</td><td><div>es,es-419;q=0.8,en-US;q=0.6,en;q=0.4</div></td></tr><tr><td style="font-weight:bold;vertical-align:top;">http_connection</td><td style="vertical-align:top;">:</td><td><div>keep-alive</div></td></tr><tr><td style="font-weight:bold;vertical-align:top;">http_cookie</td><td style="vertical-align:top;">:</td><td><div>session_id_isbp=127.0.0.1-f7d6e8bc-faca-433a-87b3-3d7e74279bdd; __utma=96992031.17915714.1390050310.1390050310.1390057708.2; __utmc=96992031; __utmz=96992031.1390050310.1.1.utmcsr=(direct)|utmccn=(direct)|utmcmd=(none); session_id_pgday=127.0.0.1-4b839bf6-587f-4a54-9d21-64fdbe2253ae; session_id_welcome=127.0.0.1-e036a97f-f1cb-4429-807f-e6a9668cde90; session_id_seacat_ingresos=127.0.0.1-f26ab437-dcfb-4664-8442-3d76eb2b5622; session_id_admin=127.0.0.1-890a02b4-d81a-452d-b5f4-fe4e888bcdeb</div></td></tr><tr><td style="font-weight:bold;vertical-align:top;">http_host</td><td style="vertical-align:top;">:</td><td><div>127.0.0.1:8000</div></td></tr><tr><td style="font-weight:bold;vertical-align:top;">http_referer</td><td style="vertical-align:top;">:</td><td><div>http://127.0.0.1:8000/admin/default/design/SEACAT_ingresos</div></td></tr><tr><td style="font-weight:bold;vertical-align:top;">http_user_agent</td><td style="vertical-align:top;">:</td><td><div>Mozilla/5.0 (X11; Linux x86_64) AppleWebKit/537.36 (KHTML, like Gecko) Chrome/28.0.1500.95 Safari/537.36</div></td></tr><tr><td style="font-weight:bold;vertical-align:top;">is_jython</td><td style="vertical-align:top;">:</td><td><div>False</div></td></tr><tr><td style="font-weight:bold;vertical-align:top;">is_pypy</td><td style="vertical-align:top;">:</td><td><div>False</div></td></tr><tr><td style="font-weight:bold;vertical-align:top;">is_source</td><td style="vertical-align:top;">:</td><td><div>True</div></td></tr><tr><td style="font-weight:bold;vertical-align:top;">local_hosts</td><td style="vertical-align:top;">:</td><td><div><table><tr><td><div>127.0.1.1</div></td></tr><tr><td><div>::1</div></td></tr><tr><td><div>larrea-lmde</div></td></tr><tr><td><div>::ffff:127.0.0.1</div></td></tr><tr><td><div>127.0.0.1</div></td></tr></table></div></td></tr><tr><td style="font-weight:bold;vertical-align:top;">path_info</td><td style="vertical-align:top;">:</td><td><div>/SEACAT_ingresos/default/index</div></td></tr><tr><td style="font-weight:bold;vertical-align:top;">query_string</td><td style="vertical-align:top;">:</td><td><div></div></td></tr><tr><td style="font-weight:bold;vertical-align:top;">remote_addr</td><td style="vertical-align:top;">:</td><td><div>127.0.0.1</div></td></tr><tr><td style="font-weight:bold;vertical-align:top;">remote_port</td><td style="vertical-align:top;">:</td><td><div>56029</div></td></tr><tr><td style="font-weight:bold;vertical-align:top;">request_method</td><td style="vertical-align:top;">:</td><td><div>GET</div></td></tr><tr><td style="font-weight:bold;vertical-align:top;">request_uri</td><td style="vertical-align:top;">:</td><td><div>/SEACAT_ingresos/default/index</div></td></tr><tr><td style="font-weight:bold;vertical-align:top;">script_name</td><td style="vertical-align:top;">:</td><td><div></div></td></tr><tr><td style="font-weight:bold;vertical-align:top;">server_name</td><td style="vertical-align:top;">:</td><td><div>larrea-lmde</div></td></tr><tr><td style="font-weight:bold;vertical-align:top;">server_port</td><td style="vertical-align:top;">:</td><td><div>8000</div></td></tr><tr><td style="font-weight:bold;vertical-align:top;">server_protocol</td><td style="vertical-align:top;">:</td><td><div>HTTP/1.1</div></td></tr><tr><td style="font-weight:bold;vertical-align:top;">server_software</td><td style="vertical-align:top;">:</td><td><div>Rocket 1.2.6</div></td></tr><tr><td style="font-weight:bold;vertical-align:top;">web2py_path</td><td style="vertical-align:top;">:</td><td><div>/home/leo/Dropbox/web2py</div></td></tr><tr><td style="font-weight:bold;vertical-align:top;">web2py_version</td><td style="vertical-align:top;">:</td><td><div>2.8.2-stable+timestamp.2013.11.28.13.54.07</div></td></tr><tr><td style="font-weight:bold;vertical-align:top;">wsgi.errors</td><td style="vertical-align:top;">:</td><td><div>&lt;open file &#x27;&lt;stderr&gt;&#x27;, mode &#x27;w&#x27; at 0x7fe2536a01e0&gt;</div></td></tr><tr><td style="font-weight:bold;vertical-align:top;">wsgi.file_wrapper</td><td style="vertical-align:top;">:</td><td><div>&lt;class wsgiref.util.FileWrapper at 0x1ed1050&gt;</div></td></tr><tr><td style="font-weight:bold;vertical-align:top;">wsgi.input</td><td style="vertical-align:top;">:</td><td><div>&lt;socket._fileobject object at 0x7fe2382a1cd0&gt;</div></td></tr><tr><td style="font-weight:bold;vertical-align:top;">wsgi.multiprocess</td><td style="vertical-align:top;">:</td><td><div>False</div></td></tr><tr><td style="font-weight:bold;vertical-align:top;">wsgi.multithread</td><td style="vertical-align:top;">:</td><td><div>True</div></td></tr><tr><td style="font-weight:bold;vertical-align:top;">wsgi.run_once</td><td style="vertical-align:top;">:</td><td><div>False</div></td></tr><tr><td style="font-weight:bold;vertical-align:top;">wsgi.url_scheme</td><td style="vertical-align:top;">:</td><td><div>http</div></td></tr><tr><td style="font-weight:bold;vertical-align:top;">wsgi.version</td><td style="vertical-align:top;">:</td><td><div><table><tr><td><div>1</div></td></tr><tr><td><div>0</div></td></tr></table></div></td></tr><tr><td style="font-weight:bold;vertical-align:top;">wsgi_errors</td><td style="vertical-align:top;">:</td><td><div>&lt;open file &#x27;&lt;stderr&gt;&#x27;, mode &#x27;w&#x27; at 0x7fe2536a01e0&gt;</div></td></tr><tr><td style="font-weight:bold;vertical-align:top;">wsgi_file_wrapper</td><td style="vertical-align:top;">:</td><td><div>&lt;class wsgiref.util.FileWrapper at 0x1ed1050&gt;</div></td></tr><tr><td style="font-weight:bold;vertical-align:top;">wsgi_input</td><td style="vertical-align:top;">:</td><td><div>&lt;socket._fileobject object at 0x7fe2382a1cd0&gt;</div></td></tr><tr><td style="font-weight:bold;vertical-align:top;">wsgi_multiprocess</td><td style="vertical-align:top;">:</td><td><div>False</div></td></tr><tr><td style="font-weight:bold;vertical-align:top;">wsgi_multithread</td><td style="vertical-align:top;">:</td><td><div>True</div></td></tr><tr><td style="font-weight:bold;vertical-align:top;">wsgi_run_once</td><td style="vertical-align:top;">:</td><td><div>False</div></td></tr><tr><td style="font-weight:bold;vertical-align:top;">wsgi_url_scheme</td><td style="vertical-align:top;">:</td><td><div>http</div></td></tr><tr><td style="font-weight:bold;vertical-align:top;">wsgi_version</td><td style="vertical-align:top;">:</td><td><div><table><tr><td><div>1</div></td></tr><tr><td><div>0</div></td></tr></table></div></td></tr></table></div></td></tr><tr><td style="font-weight:bold;vertical-align:top;">extension</td><td style="vertical-align:top;">:</td><td><div>html</div></td></tr><tr><td style="font-weight:bold;vertical-align:top;">folder</td><td style="vertical-align:top;">:</td><td><div>/home/leo/Dropbox/web2py/applications/SEACAT_ingresos/</div></td></tr><tr><td style="font-weight:bold;vertical-align:top;">function</td><td style="vertical-align:top;">:</td><td><div>index</div></td></tr><tr><td style="font-weight:bold;vertical-align:top;">global_settings</td><td style="vertical-align:top;">:</td><td><div><table><tr><td style="font-weight:bold;vertical-align:top;">app_folders</td><td style="vertical-align:top;">:</td><td><div>set([&#x27;/home/leo/Dropbox/web2py/applications/SEACAT_ingresos/&#x27;, &#x27;/home/leo/Dropbox/web2py/applications/admin/&#x27;, &#x27;/home/leo/Dropbox/web2py/applications/welcome/&#x27;])</div></td></tr><tr><td style="font-weight:bold;vertical-align:top;">applications_parent</td><td style="vertical-align:top;">:</td><td><div>/home/leo/Dropbox/web2py</div></td></tr><tr><td style="font-weight:bold;vertical-align:top;">cmd_args</td><td style="vertical-align:top;">:</td><td><div><table></table></div></td></tr><tr><td style="font-weight:bold;vertical-align:top;">cmd_options</td><td style="vertical-align:top;">:</td><td><div>&lt;Values at 0x1f5b1b8: {&#x27;verbose&#x27;: False, &#x27;ip&#x27;: &#x27;127.0.0.1&#x27;, &#x27;debuglevel&#x27;: 30, &#x27;with_scheduler&#x27;: False, &#x27;ips&#x27;: [&#x27;127.0.1.1&#x27;], &#x27;shutdown_timeout&#x27;: 5, &#x27;taskbar&#x27;: False, &#x27;with_coverage&#x27;: False, &#x27;port&#x27;: 8000, &#x27;maxthreads&#x27;: None, &#x27;softcron&#x27;: False, &#x27;server_name&#x27;: &#x27;larrea-lmde&#x27;, &#x27;bpython&#x27;: False, &#x27;nogui&#x27;: False, &#x27;pid_filename&#x27;: &#x27;httpserver.pid&#x27;, &#x27;extcron&#x27;: False, &#x27;runcron&#x27;: False, &#x27;run_system_tests&#x27;: False, &#x27;test&#x27;: None, &#x27;folder&#x27;: &#x27;/home/leo/Dropbox/web2py&#x27;, &#x27;config&#x27;: &#x27;&#x27;, &#x27;minthreads&#x27;: None, &#x27;shell&#x27;: None, &#x27;run&#x27;: &#x27;&#x27;, &#x27;log_filename&#x27;: &#x27;httpserver.log&#x27;, &#x27;profiler_dir&#x27;: None, &#x27;args&#x27;: [&#x27;&#x27;], &#x27;socket_timeout&#x27;: 5, &#x27;ssl_ca_certificate&#x27;: None, &#x27;scheduler&#x27;: None, &#x27;interfaces&#x27;: None, &#x27;ssl_private_key&#x27;: &#x27;&#x27;, &#x27;scheduler_groups&#x27;: None, &#x27;password&#x27;: &#x27;&lt;ask&gt;&#x27;, &#x27;request_queue_size&#x27;: 5, &#x27;ssl_certificate&#x27;: &#x27;&#x27;, &#x27;cronjob&#x27;: False, &#x27;numthreads&#x27;: None, &#x27;quiet&#x27;: False, &#x27;import_models&#x27;: False, &#x27;timeout&#x27;: 10, &#x27;plain&#x27;: False, &#x27;nobanner&#x27;: False}&gt;</div></td></tr><tr><td style="font-weight:bold;vertical-align:top;">db_sessions</td><td style="vertical-align:top;">:</td><td><div>set([])</div></td></tr><tr><td style="font-weight:bold;vertical-align:top;">debugging</td><td style="vertical-align:top;">:</td><td><div>True</div></td></tr><tr><td style="font-weight:bold;vertical-align:top;">gluon_parent</td><td style="vertical-align:top;">:</td><td><div>/home/leo/Dropbox/web2py</div></td></tr><tr><td style="font-weight:bold;vertical-align:top;">is_jython</td><td style="vertical-align:top;">:</td><td><div>False</div></td></tr><tr><td style="font-weight:bold;vertical-align:top;">is_pypy</td><td style="vertical-align:top;">:</td><td><div>False</div></td></tr><tr><td style="font-weight:bold;vertical-align:top;">is_source</td><td style="vertical-align:top;">:</td><td><div>True</div></td></tr><tr><td style="font-weight:bold;vertical-align:top;">local_hosts</td><td style="vertical-align:top;">:</td><td><div><table><tr><td><div>127.0.1.1</div></td></tr><tr><td><div>::1</div></td></tr><tr><td><div>larrea-lmde</div></td></tr><tr><td><div>::ffff:127.0.0.1</div></td></tr><tr><td><div>127.0.0.1</div></td></tr></table></div></td></tr><tr><td style="font-weight:bold;vertical-align:top;">web2py_version</td><td style="vertical-align:top;">:</td><td><div>2.8.2-stable+timestamp.2013.11.28.13.54.07</div></td></tr></table></div></td></tr><tr><td style="font-weight:bold;vertical-align:top;">is_https</td><td style="vertical-align:top;">:</td><td><div>False</div></td></tr><tr><td style="font-weight:bold;vertical-align:top;">is_local</td><td style="vertical-align:top;">:</td><td><div>True</div></td></tr><tr><td style="font-weight:bold;vertical-align:top;">is_restful</td><td style="vertical-align:top;">:</td><td><div>False</div></td></tr><tr><td style="font-weight:bold;vertical-align:top;">now</td><td style="vertical-align:top;">:</td><td><div>datetime.datetime(2014, 1, 22, 0, 35, 20, 763082)</div></td></tr><tr><td style="font-weight:bold;vertical-align:top;">raw_args</td><td style="vertical-align:top;">:</td><td><div></div></td></tr><tr><td style="font-weight:bold;vertical-align:top;">raw_extension</td><td style="vertical-align:top;">:</td><td><div>None</div></td></tr><tr><td style="font-weight:bold;vertical-align:top;">url</td><td style="vertical-align:top;">:</td><td><div>/SEACAT_ingresos/default/index</div></td></tr><tr><td style="font-weight:bold;vertical-align:top;">utcnow</td><td style="vertical-align:top;">:</td><td><div>datetime.datetime(2014, 1, 22, 3, 35, 20, 763113)</div></td></tr><tr><td style="font-weight:bold;vertical-align:top;">uuid</td><td style="vertical-align:top;">:</td><td><div>SEACAT_ingresos/127.0.0.1.2014-01-22.00-35-20.8f8214c6-15ec-451a-9756-c6006909e860</div></td></tr><tr><td style="font-weight:bold;vertical-align:top;">wsgi</td><td style="vertical-align:top;">:</td><td><div>&lt;gluon.main.LazyWSGI object at 0x7fe21c4c3d90&gt;</div></td></tr></table></div>'
tRp62
sS'frames'
p63
(lp64
(dp65
S'file'
p66
S'/home/leo/Dropbox/web2py/gluon/restricted.py'
p67
sS'dump'
p68
(dp69
S'environment'
p70
S"{'A': <class 'gluon.html.A'>, 'ANY_OF': <class 'gluon.validators.ANY_OF'>, 'Auth': <class 'gluon.tools.Auth'>, 'B': <class 'gluon.html.B'>, 'BEAUTIFY': <class 'gluon.html.BEAUTIFY'>, 'BODY': <class 'gluon.html.BODY'>, 'BR': <class 'gluon.html.BR'>, 'BUTTON': <class 'gluon.html.BUTTON'>, 'CAT': <class 'gluon.html.CAT'>, 'CENTER': <class 'gluon.html.CENTER'>, ...}"
p71
sS'ccode'
p72
S'<code object <module> at 0x7fe2382d3230, file "/...lications/SEACAT_ingresos/models/db.py", line 12>'
p73
ssS'lnum'
p74
I217
sS'lines'
p75
(dp76
I212
S'    try:'
p77
sI213
S'        if isinstance(code, types.CodeType):'
p78
sI214
S'            ccode = code'
p79
sI215
S'        else:'
p80
sI216
S'            ccode = compile2(code, layer)'
p81
sI217
S'        exec ccode in environment'
p82
sI218
S'    except HTTP:'
p83
sI219
S'        raise'
p84
sI220
S'    except RestrictedError:'
p85
sI221
S'        # do not encapsulate (obfuscate) the original RestrictedError'
p86
ssS'call'
p87
S"(code='# -*- coding: utf-8 -*-\\n\\n#######################...ble auditing\\n# auth.enable_record_versioning(db)\\n', environment={'A': <class 'gluon.html.A'>, 'ANY_OF': <class 'gluon.validators.ANY_OF'>, 'Auth': <class 'gluon.tools.Auth'>, 'B': <class 'gluon.html.B'>, 'BEAUTIFY': <class 'gluon.html.BEAUTIFY'>, 'BODY': <class 'gluon.html.BODY'>, 'BR': <class 'gluon.html.BR'>, 'BUTTON': <class 'gluon.html.BUTTON'>, 'CAT': <class 'gluon.html.CAT'>, 'CENTER': <class 'gluon.html.CENTER'>, ...}, layer='/home/leo/Dropbox/web2py/applications/SEACAT_ingresos/models/db.py')"
p88
sS'func'
p89
S'restricted'
p90
sa(dp91
g66
S'/home/leo/Dropbox/web2py/applications/SEACAT_ingresos/models/db.py'
p92
sg68
(dp93
S'username'
p94
S'undefined'
p95
sS'builtinFalse'
p96
S'False'
p97
sS'migrate'
p98
g95
sS'builtinTrue'
p99
S'True'
p100
sS'auth'
p101
S'<gluon.tools.Auth object>'
p102
sS'auth.define_tables'
p103
S'<bound method Auth.define_tables of <gluon.tools.Auth object>>'
p104
sS'signature'
p105
g95
ssg74
I73
sg75
(dp106
I68
S'                                           Field(\'obs\', \'text\', label=T("Observations")),'
p107
sI69
S'                                           #Field(\'personal_data_id\', \'reference personal_data\', writable=False, readable=False, requires=IS_IN_DB(db, \'personal_data.id\'), label=T("Personal Data ID")),'
p108
sI70
S'                                           #Field(\'address_id\', \'reference address\', writable=False, readable=False, requires=IS_IN_DB(db, \'address.id\'), label=T("Address ID"))'
p109
sI71
S'                                           ]'
p110
sI72
S'## create all tables needed by auth if not custom tables'
p111
sI73
S'auth.define_tables(username=False, signature=True, migrate=True)'
p112
sI74
S''
sI75
S"## Changing format to 'auth_user' table:"
p113
sI76
S'db.auth_user._format = \'%(last_name)s\'+", "+\'%(first_name)s\'+" "+\'%(middle_name)s\''
p114
sI77
S''
ssg87
S'()'
p115
sg89
S'<module>'
p116
sa(dp117
g66
S'/home/leo/Dropbox/web2py/gluon/tools.py'
p118
sg68
(dp119
S'builtinformat'
p120
S'<built-in function format>'
p121
ssg74
I1737
sg75
(dp122
I1732
S'                    *extra_fields,'
p123
sI1733
S'                    **dict('
p124
sI1734
S'                        migrate=self.__get_migrate(settings.table_user_name,'
p125
sI1735
S'                                                   migrate),'
p126
sI1736
S'                        fake_migrate=fake_migrate,'
p127
sI1737
S"                        format='%(first_name)s %(last_name)s (%(id)s)'))"
p128
sI1738
S"        reference_table_user = 'reference %s' % settings.table_user_name"
p129
sI1739
S'        if not settings.table_group_name in db.tables:'
p130
sI1740
S'            extra_fields = settings.extra_fields.get('
p131
sI1741
S'                settings.table_group_name, []) + signature_list'
p132
ssg87
S'(self=<gluon.tools.Auth object>, username=False, signature=True, migrate=True, fake_migrate=False)'
p133
sg89
S'define_tables'
p134
sa(dp135
g66
S'/home/leo/Dropbox/web2py/gluon/dal.py'
p136
sg68
(dp137
S'fields'
p138
S'(<gluon.dal.Field object>, <gluon.dal.Field object>, <gluon.dal.Field object>, <gluon.dal.Field object>, <gluon.dal.Field object>, <gluon.dal.Field object>, <gluon.dal.Field object>, <gluon.dal.Field object>, <gluon.dal.Field object>, <gluon.dal.Field object>, <gluon.dal.Field object>, <gluon.dal.Field object>, <Table auth_signature (id,is_active,created_on,created_by,modified_on,modified_by)>)'
p139
sS'self'
p140
S'<DAL uri="postgres:******@wspio1.pioix.edu.ar/seacat">'
p141
sS'args'
p142
S"{'fake_migrate': False, 'format': '%(first_name)s %(last_name)s (%(id)s)', 'migrate': True}"
p143
sS'tablename'
p144
S"'auth_user'"
p145
sS'table'
p146
g95
sS'self.lazy_define_table'
p147
S'<bound method DAL.lazy_define_table of <DAL uri="postgres:******@wspio1.pioix.edu.ar/seacat">>'
p148
ssg74
I8139
sg75
(dp149
I8134
S'                    % (tablename,invalid_args))'
p150
sI8135
S'        if self._lazy_tables and not tablename in self._LAZY_TABLES:'
p151
sI8136
S'            self._LAZY_TABLES[tablename] = (tablename,fields,args)'
p152
sI8137
S'            table = None'
p153
sI8138
S'        else:'
p154
sI8139
S'            table = self.lazy_define_table(tablename,*fields,**args)'
p155
sI8140
S'        if not tablename in self.tables:'
p156
sI8141
S'            self.tables.append(tablename)'
p157
sI8142
S'        return table'
p158
sI8143
S''
ssg87
S'(self=<DAL uri="postgres:******@wspio1.pioix.edu.ar/seacat">, tablename=\'auth_user\', *fields=(<gluon.dal.Field object>, <gluon.dal.Field object>, <gluon.dal.Field object>, <gluon.dal.Field object>, <gluon.dal.Field object>, <gluon.dal.Field object>, <gluon.dal.Field object>, <gluon.dal.Field object>, <gluon.dal.Field object>, <gluon.dal.Field object>, <gluon.dal.Field object>, <gluon.dal.Field object>, <Table auth_signature (id,is_active,created_on,created_by,modified_on,modified_by)>), **args={\'fake_migrate\': False, \'format\': \'%(first_name)s %(last_name)s (%(id)s)\', \'migrate\': True})'
p159
sg89
S'define_table'
p160
sa(dp161
g66
S'/home/leo/Dropbox/web2py/gluon/dal.py'
p162
sg68
(dp163
S'polymodel'
p164
S'None'
p165
ssg74
I8176
sg75
(dp166
I8171
S'            try:'
p167
sI8172
S'                GLOBAL_LOCKER.acquire()'
p168
sI8173
S'                self._lastsql = self._adapter.create_table('
p169
sI8174
S'                    table,migrate=migrate,'
p170
sI8175
S'                    fake_migrate=fake_migrate,'
p171
sI8176
S'                    polymodel=polymodel)'
p172
sI8177
S'            finally:'
p173
sI8178
S'                GLOBAL_LOCKER.release()'
p174
sI8179
S'        else:'
p175
sI8180
S'            table._dbt = None'
p176
ssg87
S'(self=<DAL uri="postgres:******@wspio1.pioix.edu.ar/seacat">, tablename=\'auth_user\', *fields=(<gluon.dal.Field object>, <gluon.dal.Field object>, <gluon.dal.Field object>, <gluon.dal.Field object>, <gluon.dal.Field object>, <gluon.dal.Field object>, <gluon.dal.Field object>, <gluon.dal.Field object>, <gluon.dal.Field object>, <gluon.dal.Field object>, <gluon.dal.Field object>, <gluon.dal.Field object>, <Table auth_signature (id,is_active,created_on,created_by,modified_on,modified_by)>), **args={\'fake_migrate\': False, \'format\': \'%(first_name)s %(last_name)s (%(id)s)\', \'migrate\': True})'
p177
sg89
S'lazy_define_table'
p178
sa(dp179
g66
S'/home/leo/Dropbox/web2py/gluon/dal.py'
p180
sg68
(dp181
S'query'
p182
S"'CREATE TABLE auth_user(\\n    id SERIAL PRIMARY KE...ER REFERENCES auth_user (id) ON DELETE CASCADE\\n);'"
p183
sS'self'
p184
S'<gluon.dal.PostgreSQLAdapter object>'
p185
sS'table'
p186
S'<Table auth_user (id,first_name,last_name,email,...bs,is_active,created_by,modified_on,modified_by)>'
p187
sS'self.create_sequence_and_triggers'
p188
S'<bound method PostgreSQLAdapter.create_sequence_...triggers of <gluon.dal.PostgreSQLAdapter object>>'
p189
ssg74
I1058
sg75
(dp190
I1056
S'                            query), table)'
p191
sI1057
S'            if not fake_migrate:'
p192
sI1058
S'                self.create_sequence_and_triggers(query,table)'
p193
sI1059
S'                table._db.commit()'
p194
sI1060
S'                # Postgres geom fields are added now,'
p195
sI1061
S'                # after the table has been created'
p196
sI1062
S'                for query in postcreation_fields:'
p197
sI1053
S'            if table._dbt:'
p198
sI1054
S"                self.log('timestamp: %s\\n%s\\n'"
p199
sI1055
S'                         % (datetime.datetime.today().isoformat(),'
p200
ssg87
S'(self=<gluon.dal.PostgreSQLAdapter object>, table=<Table auth_user (id,first_name,last_name,email,...bs,is_active,created_by,modified_on,modified_by)>, migrate=True, fake_migrate=False, polymodel=None)'
p201
sg89
S'create_table'
p202
sa(dp203
g66
S'/home/leo/Dropbox/web2py/gluon/dal.py'
p204
sg68
(dp205
S'query'
p206
S"'CREATE TABLE auth_user(\\n    id SERIAL PRIMARY KE...ER REFERENCES auth_user (id) ON DELETE CASCADE\\n);'"
p207
sS'self'
p208
S'<gluon.dal.PostgreSQLAdapter object>'
p209
sS'self.execute'
p210
S'<bound method PostgreSQLAdapter.execute of <gluon.dal.PostgreSQLAdapter object>>'
p211
ssg74
I2745
sg75
(dp212
I2740
S'    def create_sequence_and_triggers(self, query, table, **args):'
p213
sI2741
S'        # following lines should only be executed if table._sequence_name does not exist'
p214
sI2742
S"        # self.execute('CREATE SEQUENCE %s;' % table._sequence_name)"
p215
sI2743
S'        # self.execute("ALTER TABLE %s ALTER COLUMN %s SET DEFAULT NEXTVAL(\'%s\');" \\'
p216
sI2744
S'        #              % (table._tablename, table._fieldname, table._sequence_name))'
p217
sI2745
S'        self.execute(query)'
p218
sI2746
S''
sI2747
S"    REGEX_URI = re.compile('^(?P<user>[^:@]+)(\\:(?P<password>[^@]*))?@(?P<host>[^\\:@]+)(\\:(?P<port>[0-9]+))?/(?P<db>[^\\?]+)(\\?sslmode=(?P<sslmode>.+))?$')"
p219
sI2748
S''
sI2749
S"    def __init__(self,db,uri,pool_size=0,folder=None,db_codec ='UTF-8',"
p220
ssg87
S"(self=<gluon.dal.PostgreSQLAdapter object>, query='CREATE TABLE auth_user(\\n    id SERIAL PRIMARY KE...ER REFERENCES auth_user (id) ON DELETE CASCADE\\n);', table=<Table auth_user (id,first_name,last_name,email,...bs,is_active,created_by,modified_on,modified_by)>, **args={})"
p221
sg89
S'create_sequence_and_triggers'
p222
sa(dp223
g66
S'/home/leo/Dropbox/web2py/gluon/dal.py'
p224
sg68
(dp225
S'a'
S"('CREATE TABLE auth_user(\\n    id SERIAL PRIMARY KE...ER REFERENCES auth_user (id) ON DELETE CASCADE\\n);',)"
p226
sS'self'
p227
S'<gluon.dal.PostgreSQLAdapter object>'
p228
sS'b'
g21
sS'self.log_execute'
p229
S'<bound method PostgreSQLAdapter.log_execute of <gluon.dal.PostgreSQLAdapter object>>'
p230
ssg74
I1916
sg75
(dp231
I1920
S'        if isinstance(obj, CALLABLETYPES):'
p232
sI1911
S'        self.db._timings.append((command,time.time()-t0))'
p233
sI1912
S'        del self.db._timings[:-TIMINGSSIZE]'
p234
sI1913
S'        return ret'
p235
sI1914
S''
sI1915
S'    def execute(self, *a, **b):'
p236
sI1916
S'        return self.log_execute(*a, **b)'
p237
sI1917
S''
sI1918
S'    def represent(self, obj, fieldtype):'
p238
sI1919
S'        field_is_type = fieldtype.startswith'
p239
ssg87
S"(self=<gluon.dal.PostgreSQLAdapter object>, *a=('CREATE TABLE auth_user(\\n    id SERIAL PRIMARY KE...ER REFERENCES auth_user (id) ON DELETE CASCADE\\n);',), **b={})"
p240
sg89
S'execute'
p241
sa(dp242
g66
S'/home/leo/Dropbox/web2py/gluon/dal.py'
p243
sg68
(dp244
S'a'
S"('CREATE TABLE auth_user(\\n    id SERIAL PRIMARY KE...ER REFERENCES auth_user (id) ON DELETE CASCADE\\n);',)"
p245
sS'b'
g21
sS'self'
p246
S'<gluon.dal.PostgreSQLAdapter object>'
p247
sS'ret'
p248
g95
sS'self.cursor'
p249
S'<gluon.contrib.pg8000.dbapi.CursorWrapper object>'
p250
sS'command'
p251
S"'CREATE TABLE auth_user(\\n    id SERIAL PRIMARY KE...ER REFERENCES auth_user (id) ON DELETE CASCADE\\n);'"
p252
sS'self.cursor.execute'
p253
S'<bound method CursorWrapper._fn of <gluon.contrib.pg8000.dbapi.CursorWrapper object>>'
p254
ssg74
I1910
sg75
(dp255
I1905
S'            command = self.filter_sql_command(command)'
p256
sI1906
S'        if self.db._debug:'
p257
sI1907
S"            LOGGER.debug('SQL: %s' % command)"
p258
sI1908
S'        self.db._lastsql = command'
p259
sI1909
S'        t0 = time.time()'
p260
sI1910
S'        ret = self.cursor.execute(command, *a[1:], **b)'
p261
sI1911
S'        self.db._timings.append((command,time.time()-t0))'
p262
sI1912
S'        del self.db._timings[:-TIMINGSSIZE]'
p263
sI1913
S'        return ret'
p264
sI1914
S''
ssg87
S"(self=<gluon.dal.PostgreSQLAdapter object>, *a=('CREATE TABLE auth_user(\\n    id SERIAL PRIMARY KE...ER REFERENCES auth_user (id) ON DELETE CASCADE\\n);',), **b={})"
p265
sg89
S'log_execute'
p266
sa(dp267
g66
S'/home/leo/Dropbox/web2py/gluon/contrib/pg8000/dbapi.py'
p268
sg68
(dp269
S'self'
p270
S'<gluon.contrib.pg8000.dbapi.CursorWrapper object>'
p271
sS'args'
p272
S"('CREATE TABLE auth_user(\\n    id SERIAL PRIMARY KE...ER REFERENCES auth_user (id) ON DELETE CASCADE\\n);',)"
p273
sS'fn'
p274
S'<function execute>'
p275
sS'kwargs'
p276
g21
ssg74
I246
sg75
(dp277
I241
S''
sI242
S'def require_open_cursor(fn):'
p278
sI243
S'    def _fn(self, *args, **kwargs):'
p279
sI244
S'        if self.cursor == None:'
p280
sI245
S'            raise CursorClosedError()'
p281
sI246
S'        return fn(self, *args, **kwargs)'
p282
sI247
S'    return _fn'
p283
sI248
S''
sI249
S'##'
p284
sI250
S'# The class of object returned by the {@link #ConnectionWrapper.cursor cursor method}.'
p285
ssg87
S"(self=<gluon.contrib.pg8000.dbapi.CursorWrapper object>, *args=('CREATE TABLE auth_user(\\n    id SERIAL PRIMARY KE...ER REFERENCES auth_user (id) ON DELETE CASCADE\\n);',), **kwargs={})"
p286
sg89
S'_fn'
p287
sa(dp288
g66
S'/home/leo/Dropbox/web2py/gluon/contrib/pg8000/dbapi.py'
p289
sg68
(dp290
S'self._execute'
p291
S'<bound method CursorWrapper._execute of <gluon.contrib.pg8000.dbapi.CursorWrapper object>>'
p292
sS'self'
p293
S'<gluon.contrib.pg8000.dbapi.CursorWrapper object>'
p294
sS'args'
p295
S'()'
p296
sS'operation'
p297
S"'CREATE TABLE auth_user(\\n    id SERIAL PRIMARY KE...ER REFERENCES auth_user (id) ON DELETE CASCADE\\n);'"
p298
ssg74
I317
sg75
(dp299
I320
S'        new_query, new_args = convert_paramstyle(paramstyle, operation, args)'
p300
sI321
S'        try:'
p301
sI312
S'    @require_open_cursor'
p302
sI313
S'    def execute(self, operation, args=()):'
p303
sI314
S'        if not self._connection.in_transaction:'
p304
sI315
S'            self._connection.begin()'
p305
sI316
S'        self._override_rowcount = None'
p306
sI317
S'        self._execute(operation, args)'
p307
sI318
S''
sI319
S'    def _execute(self, operation, args=()):'
p308
ssg87
S"(self=<gluon.contrib.pg8000.dbapi.CursorWrapper object>, operation='CREATE TABLE auth_user(\\n    id SERIAL PRIMARY KE...ER REFERENCES auth_user (id) ON DELETE CASCADE\\n);', args=())"
p309
sg89
g241
sa(dp310
g66
S'/home/leo/Dropbox/web2py/gluon/contrib/pg8000/dbapi.py'
p311
sg68
(dp312
S'new_args'
p313
S'()'
p314
sS'self.cursor'
p315
S'<gluon.contrib.pg8000.interface.Cursor object>'
p316
sS'self'
p317
S'<gluon.contrib.pg8000.dbapi.CursorWrapper object>'
p318
sS'new_query'
p319
S"'CREATE TABLE auth_user(\\n    id SERIAL PRIMARY KE...ER REFERENCES auth_user (id) ON DELETE CASCADE\\n);'"
p320
sS'self.cursor.execute'
p321
S'<bound method Cursor.execute of <gluon.contrib.pg8000.interface.Cursor object>>'
p322
ssg74
I322
sg75
(dp323
I320
S'        new_query, new_args = convert_paramstyle(paramstyle, operation, args)'
p324
sI321
S'        try:'
p325
sI322
S'            self.cursor.execute(new_query, *new_args)'
p326
sI323
S'        except ConnectionClosedError:'
p327
sI324
S"            # can't rollback in this case"
p328
sI325
S'            raise'
p329
sI326
S'        except:'
p330
sI317
S'        self._execute(operation, args)'
p331
sI318
S''
sI319
S'    def _execute(self, operation, args=()):'
p332
ssg87
S"(self=<gluon.contrib.pg8000.dbapi.CursorWrapper object>, operation='CREATE TABLE auth_user(\\n    id SERIAL PRIMARY KE...ER REFERENCES auth_user (id) ON DELETE CASCADE\\n);', args=())"
p333
sg89
S'_execute'
p334
sa(dp335
g66
S'/home/leo/Dropbox/web2py/gluon/contrib/pg8000/interface.py'
p336
sg68
(dp337
S'self._stmt.execute'
p338
S'<bound method PreparedStatement.execute of <gluo...ntrib.pg8000.interface.PreparedStatement object>>'
p339
sS'kwargs'
p340
g21
sS'self'
p341
S'<gluon.contrib.pg8000.interface.Cursor object>'
p342
sS'args'
p343
S'()'
p344
sS'self._stmt'
p345
S'<gluon.contrib.pg8000.interface.PreparedStatement object>'
p346
ssg74
I399
sg75
(dp347
I394
S'                ## print "SimpleQuery:", query'
p348
sI395
S'                self._stmt = SimpleStatement(self.connection, query)'
p349
sI396
S'            else:'
p350
sI397
S'                # use PostgreSQL Extended Query Protocol'
p351
sI398
S'                self._stmt = PreparedStatement(self.connection, query, statement_name="", *[{"type": type(x), "value": x} for x in args])'
p352
sI399
S'            self._stmt.execute(*args, **kwargs)'
p353
sI400
S'        finally:'
p354
sI401
S'            self.connection._unnamed_prepared_statement_lock.release()'
p355
sI402
S''
sI403
S'    ##'
p356
ssg87
S"(self=<gluon.contrib.pg8000.interface.Cursor object>, query='CREATE TABLE auth_user(\\n    id SERIAL PRIMARY KE...ER REFERENCES auth_user (id) ON DELETE CASCADE\\n);', *args=(), **kwargs={})"
p357
sg89
g241
sa(dp358
g66
S'/home/leo/Dropbox/web2py/gluon/contrib/pg8000/interface.py'
p359
sg68
(dp360
S'kwargs.get'
p361
S'<built-in method get of dict object>'
p362
sS'args'
p363
S'()'
p364
sS'self.c'
p365
S'<gluon.contrib.pg8000.protocol.Connection object>'
p366
sS'self'
p367
S'<gluon.contrib.pg8000.interface.PreparedStatement object>'
p368
sS'cmd'
p369
g95
sS'self._row_desc'
p370
S'None'
p371
sS'self.c.bind'
p372
S'<bound method Connection._fn of <gluon.contrib.pg8000.protocol.Connection object>>'
p373
sS'self._statement_name'
p374
S"''"
p375
sS'self._parse_row_desc'
p376
S'(None, [])'
p377
sS'kwargs'
p378
g21
sS'self._portal_name'
p379
S"'pg8000_portal_4849'"
p380
ssg74
I169
sg75
(dp381
I164
S'                self._ongoing_row_count = 0'
p382
sI165
S'            if self._portal_name != None:'
p383
sI166
S'                self.c.close_portal(self._portal_name)'
p384
sI167
S'            self._command_complete = False'
p385
sI168
S'            self._portal_name = "pg8000_portal_%s" % self._statement_number'
p386
sI169
S'            self._row_desc, cmd = self.c.bind(self._portal_name, self._statement_name, args, self._parse_row_desc, kwargs.get("stream"))'
p387
sI170
S'            if self._row_desc:'
p388
sI171
S'                # We execute our cursor right away to fill up our cache.  This'
p389
sI172
S'                # prevents the cursor from being destroyed, apparently, by a rogue'
p390
sI173
S'                # Sync between Bind and Execute.  Since it is quite likely that'
p391
ssg87
S'(self=<gluon.contrib.pg8000.interface.PreparedStatement object>, *args=(), **kwargs={})'
p392
sg89
g241
sa(dp393
g66
S'/home/leo/Dropbox/web2py/gluon/contrib/pg8000/protocol.py'
p394
sg68
(dp395
S'self'
p396
S'<gluon.contrib.pg8000.protocol.Connection object>'
p397
sS'args'
p398
S"('pg8000_portal_4849', '', (), (None, []), None)"
p399
sS'fn'
p400
S'<function bind>'
p401
sS'kwargs'
p402
g21
ssg74
I943
sg75
(dp403
I938
S''
sI939
S'def sync_on_error(fn):'
p404
sI940
S'    def _fn(self, *args, **kwargs):'
p405
sI941
S'        try:'
p406
sI942
S'            self._sock_lock.acquire()'
p407
sI943
S'            return fn(self, *args, **kwargs)'
p408
sI944
S'        except:'
p409
sI945
S'            self._sync()'
p410
sI946
S'            raise'
p411
sI947
S'        finally:'
p412
ssg87
S"(self=<gluon.contrib.pg8000.protocol.Connection object>, *args=('pg8000_portal_4849', '', (), (None, []), None), **kwargs={})"
p413
sg89
g287
sa(dp414
g66
S'/home/leo/Dropbox/web2py/gluon/contrib/pg8000/protocol.py'
p415
sg68
(dp416
S'reader.handle_messages'
p417
S'<bound method MessageReader.handle_messages of <gluon.contrib.pg8000.protocol.MessageReader object>>'
p418
sS'reader'
p419
S'<gluon.contrib.pg8000.protocol.MessageReader object>'
p420
ssg74
I1142
sg75
(dp421
I1137
S''
sI1138
S'        # Return the new row desc, since it will have the format types we'
p422
sI1139
S'        # asked the server for'
p423
sI1140
S'        reader.add_message(RowDescription, lambda msg: (msg, None))'
p424
sI1141
S''
sI1142
S'        return reader.handle_messages()'
p425
sI1143
S''
sI1144
S'    def _copy_in_response(self, copyin, fileobj, old_reader):'
p426
sI1145
S'        if fileobj == None:'
p427
sI1146
S'            raise CopyQueryWithoutStreamError()'
p428
ssg87
S"(self=<gluon.contrib.pg8000.protocol.Connection object>, portal='pg8000_portal_4849', statement='', params=(), parse_data=(None, []), copy_stream=None)"
p429
sg89
S'bind'
p430
sa(dp431
g66
S'/home/leo/Dropbox/web2py/gluon/contrib/pg8000/protocol.py'
p432
sg68
(dp433
S'msg'
p434
S'<gluon.contrib.pg8000.protocol.NoData object>'
p435
sS'handler'
p436
S'<bound method Connection._bind_nodata of <gluon.contrib.pg8000.protocol.Connection object>>'
p437
sS'retval'
p438
S'0'
sS'args'
p439
S"('pg8000_portal_4849', <gluon.contrib.pg8000.protocol.MessageReader object>, None)"
p440
sS'kwargs'
p441
g21
ssg74
I911
sg75
(dp442
I906
S'            msg = self._conn._read_message()'
p443
sI907
S'            msg_handled = False'
p444
sI908
S'            for (msg_class, handler, args, kwargs) in self._msgs:'
p445
sI909
S'                if isinstance(msg, msg_class):'
p446
sI910
S'                    msg_handled = True'
p447
sI911
S'                    retval = handler(msg, *args, **kwargs)'
p448
sI912
S'                    if retval:'
p449
sI913
S'                        # The handler returned a true value, meaning that the'
p450
sI914
S'                        # message loop should be aborted.'
p451
sI915
S'                        if exc != None:'
p452
ssg87
S'(self=<gluon.contrib.pg8000.protocol.MessageReader object>)'
p453
sg89
S'handle_messages'
p454
sa(dp455
g66
S'/home/leo/Dropbox/web2py/gluon/contrib/pg8000/protocol.py'
p456
sg68
(dp457
S'reader.handle_messages'
p458
S'<bound method MessageReader.handle_messages of <gluon.contrib.pg8000.protocol.MessageReader object>>'
p459
sS'reader'
p460
S'<gluon.contrib.pg8000.protocol.MessageReader object>'
p461
ssg74
I1181
sg75
(dp462
I1184
S''
sI1185
S'    @sync_on_error'
p463
sI1176
S'        reader.add_message(CopyOutResponse, self._copy_out_response, copy_stream, reader)'
p464
sI1177
S'        reader.add_message(CopyInResponse, self._copy_in_response, copy_stream, reader)'
p465
sI1178
S"        reader.add_message(CommandComplete, lambda msg, out: out.setdefault('msg', msg) and False, output)"
p466
sI1179
S'        reader.add_message(ReadyForQuery, lambda msg: 1)'
p467
sI1180
S'        reader.delay_raising_exception = True'
p468
sI1181
S'        reader.handle_messages()'
p469
sI1182
S''
sI1183
S"        old_reader.return_value((None, output['msg']))"
p470
ssg87
S"(self=<gluon.contrib.pg8000.protocol.Connection object>, msg=<gluon.contrib.pg8000.protocol.NoData object>, portal='pg8000_portal_4849', old_reader=<gluon.contrib.pg8000.protocol.MessageReader object>, copy_stream=None)"
p471
sg89
S'_bind_nodata'
p472
sa(dp473
g66
S'/home/leo/Dropbox/web2py/gluon/contrib/pg8000/protocol.py'
p474
sg68
(dp475
S'exc'
p476
S"ProgrammingError('ERROR', '42P07', 'la relaci\\xc3\\xb3n \\xc2\\xabauth_user\\xc2\\xbb ya existe')"
p477
ssg74
I916
sg75
(dp478
I911
S'                    retval = handler(msg, *args, **kwargs)'
p479
sI912
S'                    if retval:'
p480
sI913
S'                        # The handler returned a true value, meaning that the'
p481
sI914
S'                        # message loop should be aborted.'
p482
sI915
S'                        if exc != None:'
p483
sI916
S'                            raise exc'
p484
sI917
S'                        return retval'
p485
sI918
S'                    elif hasattr(self, "_retval"):'
p486
sI919
S'                        # The handler told us to return -- used for non-true'
p487
sI920
S'                        # return values'
p488
ssg87
S'(self=<gluon.contrib.pg8000.protocol.MessageReader object>)'
p489
sg89
g454
sasS'pyver'
p490
S'Python 2.7.5+: /usr/bin/python (prefix: /usr)'
p491
sS'session'
p492
g61
(S'sp\x0e\x00\x00<div><table><tr><td style="font-weight:bold;vertical-align:top;">auth</td><td style="vertical-align:top;">:</td><td><div><table><tr><td style="font-weight:bold;vertical-align:top;">expiration</td><td style="vertical-align:top;">:</td><td><div>3600</div></td></tr><tr><td style="font-weight:bold;vertical-align:top;">hmac_key</td><td style="vertical-align:top;">:</td><td><div>cd823438-4d5e-4545-bc45-00ea0183ad44</div></td></tr><tr><td style="font-weight:bold;vertical-align:top;">last_visit</td><td style="vertical-align:top;">:</td><td><div>datetime.datetime(2014, 1, 22, 0, 35, 20, 763082)</div></td></tr><tr><td style="font-weight:bold;vertical-align:top;">user</td><td style="vertical-align:top;">:</td><td><div><table><tr><td style="font-weight:bold;vertical-align:top;">created_by</td><td style="vertical-align:top;">:</td><td><div>None</div></td></tr><tr><td style="font-weight:bold;vertical-align:top;">created_on</td><td style="vertical-align:top;">:</td><td><div>None</div></td></tr><tr><td style="font-weight:bold;vertical-align:top;">email</td><td style="vertical-align:top;">:</td><td><div>colomboleandro@pioix.edu.ar</div></td></tr><tr><td style="font-weight:bold;vertical-align:top;">first_name</td><td style="vertical-align:top;">:</td><td><div>Leandro</div></td></tr><tr><td style="font-weight:bold;vertical-align:top;">gender</td><td style="vertical-align:top;">:</td><td><div>Masculino</div></td></tr><tr><td style="font-weight:bold;vertical-align:top;">id</td><td style="vertical-align:top;">:</td><td><div>1L</div></td></tr><tr><td style="font-weight:bold;vertical-align:top;">is_active</td><td style="vertical-align:top;">:</td><td><div>True</div></td></tr><tr><td style="font-weight:bold;vertical-align:top;">last_login</td><td style="vertical-align:top;">:</td><td><div>None</div></td></tr><tr><td style="font-weight:bold;vertical-align:top;">last_name</td><td style="vertical-align:top;">:</td><td><div>Colombo Vi\xc3\xb1a</div></td></tr><tr><td style="font-weight:bold;vertical-align:top;">middle_name</td><td style="vertical-align:top;">:</td><td><div>Enrique</div></td></tr><tr><td style="font-weight:bold;vertical-align:top;">modified_by</td><td style="vertical-align:top;">:</td><td><div>None</div></td></tr><tr><td style="font-weight:bold;vertical-align:top;">modified_on</td><td style="vertical-align:top;">:</td><td><div>datetime.datetime(2014, 1, 22, 0, 18, 35)</div></td></tr><tr><td style="font-weight:bold;vertical-align:top;">obs</td><td style="vertical-align:top;">:</td><td><div></div></td></tr><tr><td style="font-weight:bold;vertical-align:top;">registration_id</td><td style="vertical-align:top;">:</td><td><div></div></td></tr><tr><td style="font-weight:bold;vertical-align:top;">registration_key</td><td style="vertical-align:top;">:</td><td><div></div></td></tr><tr><td style="font-weight:bold;vertical-align:top;">reset_password_key</td><td style="vertical-align:top;">:</td><td><div></div></td></tr></table></div></td></tr><tr><td style="font-weight:bold;vertical-align:top;">user_groups</td><td style="vertical-align:top;">:</td><td><div><table><tr><td style="font-weight:bold;vertical-align:top;">1</td><td style="vertical-align:top;">:</td><td><div>root</div></td></tr></table></div></td></tr></table></div></td></tr><tr><td style="font-weight:bold;vertical-align:top;">flash</td><td style="vertical-align:top;">:</td><td><div>None</div></td></tr><tr><td style="font-weight:bold;vertical-align:top;">last_orderby</td><td style="vertical-align:top;">:</td><td><div>None</div></td></tr><tr><td style="font-weight:bold;vertical-align:top;">last_query</td><td style="vertical-align:top;">:</td><td><div>db.auth_group.id&gt;0</div></td></tr></table></div>'
tRp493
sS'etype'
p494
S"<class 'gluon.contrib.pg8000.errors.ProgrammingError'>"
p495
sS'date'
p496
S'Wed Jan 22 00:35:22 2014'
p497
sS'response'
p498
g61
(S's\x00\x17\x00\x00<div><table><tr><td style="font-weight:bold;vertical-align:top;">body</td><td style="vertical-align:top;">:</td><td><div>&lt;cStringIO.StringO object at 0x2185810&gt;</div></td></tr><tr><td style="font-weight:bold;vertical-align:top;">cookies</td><td style="vertical-align:top;">:</td><td><div><table><tr><td style="font-weight:bold;vertical-align:top;">session_id_seacat_ingresos</td><td style="vertical-align:top;">:</td><td><div>127.0.0.1-f26ab437-dcfb-4664-8442-3d76eb2b5622<table><tr><td style="font-weight:bold;vertical-align:top;">comment</td><td style="vertical-align:top;">:</td><td><div></div></td></tr><tr><td style="font-weight:bold;vertical-align:top;">domain</td><td style="vertical-align:top;">:</td><td><div></div></td></tr><tr><td style="font-weight:bold;vertical-align:top;">expires</td><td style="vertical-align:top;">:</td><td><div></div></td></tr><tr><td style="font-weight:bold;vertical-align:top;">httponly</td><td style="vertical-align:top;">:</td><td><div></div></td></tr><tr><td style="font-weight:bold;vertical-align:top;">max-age</td><td style="vertical-align:top;">:</td><td><div></div></td></tr><tr><td style="font-weight:bold;vertical-align:top;">path</td><td style="vertical-align:top;">:</td><td><div>/</div></td></tr><tr><td style="font-weight:bold;vertical-align:top;">secure</td><td style="vertical-align:top;">:</td><td><div></div></td></tr><tr><td style="font-weight:bold;vertical-align:top;">version</td><td style="vertical-align:top;">:</td><td><div></div></td></tr></table></div></td></tr></table></div></td></tr><tr><td style="font-weight:bold;vertical-align:top;">delimiters</td><td style="vertical-align:top;">:</td><td><div><table><tr><td><div>{{</div></td></tr><tr><td><div>}}</div></td></tr></table></div></td></tr><tr><td style="font-weight:bold;vertical-align:top;">files</td><td style="vertical-align:top;">:</td><td><div><table></table></div></td></tr><tr><td style="font-weight:bold;vertical-align:top;">flash</td><td style="vertical-align:top;">:</td><td><div></div></td></tr><tr><td style="font-weight:bold;vertical-align:top;">generic_patterns</td><td style="vertical-align:top;">:</td><td><div><table><tr><td><div>*</div></td></tr></table></div></td></tr><tr><td style="font-weight:bold;vertical-align:top;">headers</td><td style="vertical-align:top;">:</td><td><div><table><tr><td style="font-weight:bold;vertical-align:top;">X-Powered-By</td><td style="vertical-align:top;">:</td><td><div>web2py</div></td></tr></table></div></td></tr><tr><td style="font-weight:bold;vertical-align:top;">menu</td><td style="vertical-align:top;">:</td><td><div><table></table></div></td></tr><tr><td style="font-weight:bold;vertical-align:top;">meta</td><td style="vertical-align:top;">:</td><td><div><table></table></div></td></tr><tr><td style="font-weight:bold;vertical-align:top;">models_to_run</td><td style="vertical-align:top;">:</td><td><div><table><tr><td><div>^\\w+\\.py$</div></td></tr><tr><td><div>^default/\\w+\\.py$</div></td></tr><tr><td><div>^default/index/\\w+\\.py$</div></td></tr></table></div></td></tr><tr><td style="font-weight:bold;vertical-align:top;">postprocessing</td><td style="vertical-align:top;">:</td><td><div><table></table></div></td></tr><tr><td style="font-weight:bold;vertical-align:top;">session_client</td><td style="vertical-align:top;">:</td><td><div>127.0.0.1</div></td></tr><tr><td style="font-weight:bold;vertical-align:top;">session_cookie_compression_level</td><td style="vertical-align:top;">:</td><td><div>None</div></td></tr><tr><td style="font-weight:bold;vertical-align:top;">session_cookie_expires</td><td style="vertical-align:top;">:</td><td><div>None</div></td></tr><tr><td style="font-weight:bold;vertical-align:top;">session_cookie_key</td><td style="vertical-align:top;">:</td><td><div>None</div></td></tr><tr><td style="font-weight:bold;vertical-align:top;">session_data_name</td><td style="vertical-align:top;">:</td><td><div>session_data_seacat_ingresos</div></td></tr><tr><td style="font-weight:bold;vertical-align:top;">session_file</td><td style="vertical-align:top;">:</td><td><div>&lt;open file &#x27;/home/leo/Dropbox/web2py/applications/SEACAT_ingresos/sessions/127.0.0.1-f26ab437-dcfb-4664-8442-3d76eb2b5622&#x27;, mode &#x27;rb+&#x27; at 0x7fe21c3b8ed0&gt;</div></td></tr><tr><td style="font-weight:bold;vertical-align:top;">session_filename</td><td style="vertical-align:top;">:</td><td><div>/home/leo/Dropbox/web2py/applications/SEACAT_ingresos/sessions/127.0.0.1-f26ab437-dcfb-4664-8442-3d76eb2b5622</div></td></tr><tr><td style="font-weight:bold;vertical-align:top;">session_hash</td><td style="vertical-align:top;">:</td><td><div>84e62fc89d919685373899de073c9d07</div></td></tr><tr><td style="font-weight:bold;vertical-align:top;">session_id</td><td style="vertical-align:top;">:</td><td><div>127.0.0.1-f26ab437-dcfb-4664-8442-3d76eb2b5622</div></td></tr><tr><td style="font-weight:bold;vertical-align:top;">session_id_name</td><td style="vertical-align:top;">:</td><td><div>session_id_seacat_ingresos</div></td></tr><tr><td style="font-weight:bold;vertical-align:top;">session_locked</td><td style="vertical-align:top;">:</td><td><div>True</div></td></tr><tr><td style="font-weight:bold;vertical-align:top;">session_masterapp</td><td style="vertical-align:top;">:</td><td><div>SEACAT_ingresos</div></td></tr><tr><td style="font-weight:bold;vertical-align:top;">session_new</td><td style="vertical-align:top;">:</td><td><div>False</div></td></tr><tr><td style="font-weight:bold;vertical-align:top;">session_storage_type</td><td style="vertical-align:top;">:</td><td><div>file</div></td></tr><tr><td style="font-weight:bold;vertical-align:top;">status</td><td style="vertical-align:top;">:</td><td><div>200</div></td></tr><tr><td style="font-weight:bold;vertical-align:top;">view</td><td style="vertical-align:top;">:</td><td><div>default/index.html</div></td></tr></table></div>'
tRp499
sS'locals'
p500
(dp501
S'exc'
p502
S"ProgrammingError('ERROR', '42P07', 'la relaci\\xc3\\xb3n \\xc2\\xabauth_user\\xc2\\xbb ya existe')"
p503
sS'msg_class'
p504
S"<class 'gluon.contrib.pg8000.protocol.ReadyForQuery'>"
p505
sS'self'
p506
S'<gluon.contrib.pg8000.protocol.MessageReader object>'
p507
sg46
S'()'
p508
sS'handler'
p509
S'<function <lambda>>'
p510
sS'kwargs'
p511
g21
sS'msg'
p512
S'<ReadyForQuery Idle in Failed Transaction>'
p513
sS'msg_handled'
p514
g100
sS'retval'
p515
S'1'
sssS'traceback'
p516
S'Traceback (most recent call last):\n  File "/home/leo/Dropbox/web2py/gluon/restricted.py", line 217, in restricted\n    exec ccode in environment\n  File "/home/leo/Dropbox/web2py/applications/SEACAT_ingresos/models/db.py", line 73, in <module>\n    auth.define_tables(username=False, signature=True, migrate=True)\n  File "/home/leo/Dropbox/web2py/gluon/tools.py", line 1737, in define_tables\n    format=\'%(first_name)s %(last_name)s (%(id)s)\'))\n  File "/home/leo/Dropbox/web2py/gluon/dal.py", line 8139, in define_table\n    table = self.lazy_define_table(tablename,*fields,**args)\n  File "/home/leo/Dropbox/web2py/gluon/dal.py", line 8176, in lazy_define_table\n    polymodel=polymodel)\n  File "/home/leo/Dropbox/web2py/gluon/dal.py", line 1058, in create_table\n    self.create_sequence_and_triggers(query,table)\n  File "/home/leo/Dropbox/web2py/gluon/dal.py", line 2745, in create_sequence_and_triggers\n    self.execute(query)\n  File "/home/leo/Dropbox/web2py/gluon/dal.py", line 1916, in execute\n    return self.log_execute(*a, **b)\n  File "/home/leo/Dropbox/web2py/gluon/dal.py", line 1910, in log_execute\n    ret = self.cursor.execute(command, *a[1:], **b)\n  File "/home/leo/Dropbox/web2py/gluon/contrib/pg8000/dbapi.py", line 246, in _fn\n    return fn(self, *args, **kwargs)\n  File "/home/leo/Dropbox/web2py/gluon/contrib/pg8000/dbapi.py", line 317, in execute\n    self._execute(operation, args)\n  File "/home/leo/Dropbox/web2py/gluon/contrib/pg8000/dbapi.py", line 322, in _execute\n    self.cursor.execute(new_query, *new_args)\n  File "/home/leo/Dropbox/web2py/gluon/contrib/pg8000/interface.py", line 399, in execute\n    self._stmt.execute(*args, **kwargs)\n  File "/home/leo/Dropbox/web2py/gluon/contrib/pg8000/interface.py", line 169, in execute\n    self._row_desc, cmd = self.c.bind(self._portal_name, self._statement_name, args, self._parse_row_desc, kwargs.get("stream"))\n  File "/home/leo/Dropbox/web2py/gluon/contrib/pg8000/protocol.py", line 943, in _fn\n    return fn(self, *args, **kwargs)\n  File "/home/leo/Dropbox/web2py/gluon/contrib/pg8000/protocol.py", line 1142, in bind\n    return reader.handle_messages()\n  File "/home/leo/Dropbox/web2py/gluon/contrib/pg8000/protocol.py", line 911, in handle_messages\n    retval = handler(msg, *args, **kwargs)\n  File "/home/leo/Dropbox/web2py/gluon/contrib/pg8000/protocol.py", line 1181, in _bind_nodata\n    reader.handle_messages()\n  File "/home/leo/Dropbox/web2py/gluon/contrib/pg8000/protocol.py", line 916, in handle_messages\n    raise exc\nProgrammingError: (\'ERROR\', \'42P07\', \'la relaci\\xc3\\xb3n \\xc2\\xabauth_user\\xc2\\xbb ya existe\')\n'
p517
s.