(dp1
S'output'
p2
S"<class 'gluon.contrib.pg8000.errors.ProgrammingError'> ('ERROR', '42P01', 'no existe la relaci\\xc3\\xb3n \\xc2\\xabauth_user\\xc2\\xbb')"
p3
sS'layer'
p4
S'/home/leo/Dropbox/web2py/applications/SEACAT_ingresos/models/db.py'
p5
sS'code'
p6
S'# -*- coding: utf-8 -*-\n\n#########################################################################\n## This scaffolding model makes your app work on Google App Engine too\n## File is released under public domain and you can use without limitations\n#########################################################################\n\n## if SSL/HTTPS is properly configured and you want all HTTP requests to\n## be redirected to HTTPS, uncomment the line below:\n# request.requires_https()\n\nif SUSPEND_SERVICE:\n    message = "<html><body><h2>"\n    message += T("System is under maitenance, please come back later.")\n    message += "</h2><h3>"\n    message += T("Sorry for the inconvenience")\n    message += "</h3><p>"\n    message += str(NOW)\n    message += "</p></body></html>"\n    raise HTTP(503, message)\n\ndb = DAL(DBURI, check_reserved=[DB_ENGINE])\n\n#if not request.env.web2py_runtime_gae:\n    ## if NOT running on Google App Engine use SQLite or other DB\n    #db = DAL(\'sqlite://storage.sqlite\',pool_size=1,check_reserved=[\'all\'])\n    ## To connect to a PostgreSQL DB: postgres://username:password@server/database\n    ## DBURI contains the string to configure de DB it\'s stored in 0.py\n#    db = DAL(DBURI, check_reserved=[DB_ENGINE])\n#else:\n    ## connect to Google BigTable (optional \'google:datastore://namespace\')\n#    db = DAL(\'google:datastore\')\n    ## store sessions and tickets there\n#   session.connect(request, response, db=db)\n    ## or store session in Memcache, Redis, etc.\n    ## from gluon.contrib.memdb import MEMDB\n    ## from google.appengine.api.memcache import Client\n    ## session.connect(request, response, db = MEMDB(Client()))\n\n## by default give a view/generic.extension to all actions from localhost\n## none otherwise. a pattern can be \'controller/function.extension\'\nresponse.generic_patterns = [\'*\'] if request.is_local else []\n## (optional) optimize handling of static files\n# response.optimize_css = \'concat,minify,inline\'\n# response.optimize_js = \'concat,minify,inline\'\n\n#########################################################################\n## Here is sample code if you need for\n## - email capabilities\n## - authentication (registration, login, logout, ... )\n## - authorization (role based authorization)\n## - services (xml, csv, json, xmlrpc, jsonrpc, amf, rss)\n## - old style crud actions\n## (more options discussed in gluon/tools.py)\n#########################################################################\n\nfrom gluon.tools import Auth, Crud, Service, PluginManager, prettydate\nauth = Auth(db)\ncrud, service, plugins = Crud(db), Service(), PluginManager()\n\n## Adding "last_login" and "obs" fields to \'auth_user\' table\nauth.settings.extra_fields[\'auth_user\'] = [\n                                           Field(\'middle_name\', label=T("Middle Name")),\n                                           # Falta agregar notnull...\n                                           Field(\'gender\', requires=IS_IN_SET(GENDER_LIST), label=T("Gender")),\n                                           Field(\'created_on\', \'datetime\', label=T("Created On"), writable=False, readable=True),\n                                           Field(\'last_login\', \'datetime\', label=T("Last Login"), writable=False, readable=True),\n                                           Field(\'obs\', \'text\', label=T("Observations")),\n                                           #Field(\'personal_data_id\', \'reference personal_data\', writable=False, readable=False, requires=IS_IN_DB(db, \'personal_data.id\'), label=T("Personal Data ID")),\n                                           #Field(\'address_id\', \'reference address\', writable=False, readable=False, requires=IS_IN_DB(db, \'address.id\'), label=T("Address ID"))\n                                           ]\n## create all tables needed by auth if not custom tables\nauth.define_tables(username=False, signature=True, migrate=True)\n\n## Changing format to \'auth_user\' table:\ndb.auth_user._format = \'%(last_name)s\'+", "+\'%(first_name)s\'+" "+\'%(middle_name)s\'\n\n## Settings for \'first_name\' field:\ndb.auth_user.first_name.required=True\ndb.auth_user.first_name.requires=IS_NOT_EMPTY()\n\n## Settings for \'last_name\' field:\ndb.auth_user.last_name.required=True\ndb.auth_user.last_name.requires=IS_NOT_EMPTY()\n\n## Setting email to unique\ndb.auth_user.email.requires = [IS_EMAIL(), IS_NOT_IN_DB(db, \'auth_user.email\')]\ndb.auth_user.email.unique=True\ndb.auth_user.email.error_message=T("This email is already in our database, please choose another one")\n\n## Changing attributes:\ndb.auth_group.description.readable = True\n\n## Removing "remember me" feature at login form\nauth.settings.remember_me_form = False\n\n## Defining new table for Images:\ndb.define_table(\'images\',\n                Field(\'name\', label=T("Name")),\n                Field(\'file\', \'upload\', label=T("File"), required=True),\n                auth.signature\n                )\n\n## Defining new table for address:\ndb.define_table(\'address\',\n                Field(\'uid\', \'reference auth_user\', writable=False, readable=False, requires=IS_IN_DB(db, \'auth_user.id\'), label=T("User ID")),\n                Field(\'street\', required=True, notnull=True, label=T("Street")),\n                Field(\'building\', \'integer\', label=T("Building")),\n                Field(\'floor\', label=T("Floor")),\n                Field(\'door\', label=T("Door")),\n                Field(\'apartment\', label=T("Apartment")),\n                Field(\'street1\', label=T("Street 1")),\n                Field(\'street2\', label=T("Street 2")),\n                Field(\'zip_code\', label=T("ZIP Code")),\n                Field(\'loc\', default=PROVINCES_LIST[2], label=T("Locality")),\n                Field(\'prov\', requires=IS_IN_SET(PROVINCES_LIST), default=PROVINCES_LIST[2], label=T("Province")),\n                Field(\'obs\', \'text\', label=T("Observations")),\n                auth.signature,\n                format=\'%(street)s\'+" "+\'%(building)s\'+" "+\'%(floor)s\'+" "+\'%(door)s\'+" "+\'%(apartment)s\'\n                )\n\n## Defining new table for personal data\ndb.define_table(\'personal_data\',\n                Field(\'uid\', \'reference auth_user\', writable=False, readable=False, requires=IS_IN_DB(db, \'auht_user.id\'), label=T("User ID")),\n                Field(\'doc_type\', required=True, requires=IS_IN_SET(DOC_TYPE_SET), notnull=True, default=DOC_TYPE_SET[0], label=T("Document Type")),\n                Field(\'doc\', \'string\', length=8, required=True, requires=IS_MATCH(\'\\d{8}\'), notnull=True, unique=True, label=T("Document"), comment=T("Insert only numbers without dots. i.e.: 12654897")),\n                Field(\'nac\', required=True, notnull=True, default="Argentina", label=T("Nacionality")),\n                Field(\'cuil\', \'string\', length=11, requires=IS_MATCH(\'\\d{11}\'), notnull=True, unique=True, label="CUIL"),\n                Field(\'dob\', \'date\', required=True, requires=IS_DATE(format=(\'%d-%m-%Y\')), notnull=True, label=T("Day of Birth")),\n                ## Commented because they are in \'auth_user\' table:\n                #Field(\'first_name\', required=True, notnull=True, label=T("First Name")),\n                #Field(\'middle_name\', label=T("Middle Name")),\n                #Field(\'last_name\', required=True, notnull=True, label=T("Last Name")),\n                #Field(\'mail1\', required=True, requires=IS_EMAIL(), notnull=True, label=T("email 1")),\n                Field(\'mail2\', requires=IS_EMPTY_OR(IS_EMAIL()), label=T("Alternative email"), comment=T("Another contact mail")),\n                Field(\'tel1_type\', required=True, requires=IS_IN_SET(TEL_TYPE_SET), notnull=True, default=TEL_TYPE_SET[0], label=T("Principal Phone Type")),\n                Field(\'tel1\', length=8, required=True, requires=IS_MATCH(\'\\d{8}\'), notnull=True, label=T("Principal Phone Number")),\n                Field(\'tel2_type\', requires=IS_IN_SET(TEL_TYPE_SET), default=TEL_TYPE_SET[0], label=T("Alternative Phone Type")),\n                Field(\'tel2\', length=8, requires=IS_MATCH(\'\\d{8}\'), label=T("Alternative Phone Number")),\n                Field(\'photo\', \'upload\', requires=IS_EMPTY_OR(IS_IMAGE(extensions=VALID_IMG_EXTENSION_SET, maxsize=MAX_PHOTO_SIZE)), label=T("Photo")),\n                Field(\'avatar\', \'upload\', requires=IS_EMPTY_OR(IS_IMAGE(extensions=VALID_IMG_EXTENSION_SET, maxsize=MAX_AVATAR_SIZE)), label=T("Avatar")),\n                Field(\'twitter\', requires=IS_EMPTY_OR(IS_URL()), label=T("Twitter Profile")),\n                Field(\'facebook\', requires=IS_EMPTY_OR(IS_URL()), label=T("Facebook Profile")),\n                Field(\'obs\', \'text\', label=T("Observations")),\n                auth.signature,\n                format=\'%(doc)s\'\n                )\n#db.personal_data.age = Field.Virtual(lambda row: (request.now-row.personal_data.dob).years)\n\n## Defining new table for Fathers.\ndb.define_table(\'father\',\n                Field(\'father_id\', \'reference auth_user\', writable=False, readable=False, requires=IS_IN_DB(db, \'auth_user.id\'), label=T("Father ID")),\n                Field(\'children_in_school\', \'boolean\', label=T("Do you have children in our school?")),\n                Field(\'children_name\', label=T("Children name")),\n                Field(\'student_network\', \'boolean\', label=T("Does your son goes to a school in our network?")),\n                Field(\'student_school\', requires=IS_EMPTY_OR(IS_IN_SET(SCHOOL_NETWORK_LIST)), label=T("Choose your school")),\n                auth.signature,\n                format=\'%(db.auth_user.last_name)s\'+\', \'+\'%(db.auth_user.first_name)s\'+\' \'+\'%(db.auth_user.middle_name)s\'\n               )\n\n## configure email\nmail = auth.settings.mailer\nmail.settings.server = \'logging\' or \'smtp.gmail.com:587\'\nmail.settings.sender = \'soportetecnico@pioix.edu.ar\'\nmail.settings.login = \'soportetecnico:deagostini\'\n\n## configure auth policy\nauth.settings.registration_requires_verification = False\nauth.settings.registration_requires_approval = False\nauth.settings.reset_password_requires_verification = True\nif not db().select(db.auth_user.ALL):\n    auth.settings.actions_disabled = []\nelse:\n    auth.settings.actions_disabled = [\'register\']\n\n## if you need to use OpenID, Facebook, MySpace, Twitter, Linkedin, etc.\n## register with janrain.com, write your domain:api_key in private/janrain.key\nfrom gluon.contrib.login_methods.rpx_account import use_janrain\nuse_janrain(auth, filename=\'private/janrain.key\')\n\n#########################################################################\n## Define your tables below (or better in another model file) for example\n##\n## >>> db.define_table(\'mytable\',Field(\'myfield\',\'string\'))\n##\n## Fields can be \'string\',\'text\',\'password\',\'integer\',\'double\',\'boolean\'\n##       \'date\',\'time\',\'datetime\',\'blob\',\'upload\', \'reference TABLENAME\'\n## There is an implicit \'id integer autoincrement\' field\n## Consult manual for more options, validators, etc.\n##\n## More API examples for controllers:\n##\n## >>> db.mytable.insert(myfield=\'value\')\n## >>> rows=db(db.mytable.myfield==\'value\').select(db.mytable.ALL)\n## >>> for row in rows: print row.id, row.myfield\n#########################################################################\n\n## after defining tables, uncomment below to enable auditing\n# auth.enable_record_versioning(db)\n'
p7
sS'snapshot'
p8
(dp9
S'exception'
p10
(dp11
S'__module__'
p12
S"'gluon.contrib.pg8000.errors'"
p13
sS'__getslice__'
p14
S"<method-wrapper '__getslice__' of ProgrammingError object>"
p15
sS'__str__'
p16
S"<method-wrapper '__str__' of ProgrammingError object>"
p17
sS'__reduce__'
p18
S'<built-in method __reduce__ of ProgrammingError object>'
p19
sS'__dict__'
p20
S'{}'
p21
sS'__sizeof__'
p22
S'<built-in method __sizeof__ of ProgrammingError object>'
p23
sS'__weakref__'
p24
S'None'
p25
sS'__init__'
p26
S"<method-wrapper '__init__' of ProgrammingError object>"
p27
sS'__setattr__'
p28
S"<method-wrapper '__setattr__' of ProgrammingError object>"
p29
sS'__reduce_ex__'
p30
S'<built-in method __reduce_ex__ of ProgrammingError object>'
p31
sS'__new__'
p32
S'<built-in method __new__ of type object>'
p33
sS'__format__'
p34
S'<built-in method __format__ of ProgrammingError object>'
p35
sS'__class__'
p36
S"<class 'gluon.contrib.pg8000.errors.ProgrammingError'>"
p37
sS'__doc__'
p38
S'None'
p39
sS'__getitem__'
p40
S"<method-wrapper '__getitem__' of ProgrammingError object>"
p41
sS'__setstate__'
p42
S'<built-in method __setstate__ of ProgrammingError object>'
p43
sS'__getattribute__'
p44
S"<method-wrapper '__getattribute__' of ProgrammingError object>"
p45
sS'args'
p46
S"('ERROR', '42P01', 'no existe la relaci\\xc3\\xb3n \\xc2\\xabauth_user\\xc2\\xbb')"
p47
sS'__subclasshook__'
p48
S'<built-in method __subclasshook__ of type object>'
p49
sS'__unicode__'
p50
S'<built-in method __unicode__ of ProgrammingError object>'
p51
sS'__delattr__'
p52
S"<method-wrapper '__delattr__' of ProgrammingError object>"
p53
sS'__repr__'
p54
S"<method-wrapper '__repr__' of ProgrammingError object>"
p55
sS'__hash__'
p56
S"<method-wrapper '__hash__' of ProgrammingError object>"
p57
ssS'evalue'
p58
S"('ERROR', '42P01', 'no existe la relaci\\xc3\\xb3n \\xc2\\xabauth_user\\xc2\\xbb')"
p59
sS'request'
p60
cgluon.html
XML_unpickle
p61
(S's\x19d\x00\x00<div><table><tr><td style="font-weight:bold;vertical-align:top;">ajax</td><td style="vertical-align:top;">:</td><td><div>False</div></td></tr><tr><td style="font-weight:bold;vertical-align:top;">application</td><td style="vertical-align:top;">:</td><td><div>SEACAT_ingresos</div></td></tr><tr><td style="font-weight:bold;vertical-align:top;">args</td><td style="vertical-align:top;">:</td><td><div><table></table></div></td></tr><tr><td style="font-weight:bold;vertical-align:top;">cid</td><td style="vertical-align:top;">:</td><td><div>None</div></td></tr><tr><td style="font-weight:bold;vertical-align:top;">client</td><td style="vertical-align:top;">:</td><td><div>127.0.0.1</div></td></tr><tr><td style="font-weight:bold;vertical-align:top;">controller</td><td style="vertical-align:top;">:</td><td><div>default</div></td></tr><tr><td style="font-weight:bold;vertical-align:top;">cookies</td><td style="vertical-align:top;">:</td><td><div><table><tr><td style="font-weight:bold;vertical-align:top;">session_id_admin</td><td style="vertical-align:top;">:</td><td><div>127.0.0.1-890a02b4-d81a-452d-b5f4-fe4e888bcdeb<table><tr><td style="font-weight:bold;vertical-align:top;">comment</td><td style="vertical-align:top;">:</td><td><div></div></td></tr><tr><td style="font-weight:bold;vertical-align:top;">domain</td><td style="vertical-align:top;">:</td><td><div></div></td></tr><tr><td style="font-weight:bold;vertical-align:top;">expires</td><td style="vertical-align:top;">:</td><td><div></div></td></tr><tr><td style="font-weight:bold;vertical-align:top;">httponly</td><td style="vertical-align:top;">:</td><td><div></div></td></tr><tr><td style="font-weight:bold;vertical-align:top;">max-age</td><td style="vertical-align:top;">:</td><td><div></div></td></tr><tr><td style="font-weight:bold;vertical-align:top;">path</td><td style="vertical-align:top;">:</td><td><div></div></td></tr><tr><td style="font-weight:bold;vertical-align:top;">secure</td><td style="vertical-align:top;">:</td><td><div></div></td></tr><tr><td style="font-weight:bold;vertical-align:top;">version</td><td style="vertical-align:top;">:</td><td><div></div></td></tr></table></div></td></tr><tr><td style="font-weight:bold;vertical-align:top;">session_id_isbp</td><td style="vertical-align:top;">:</td><td><div>127.0.0.1-f7d6e8bc-faca-433a-87b3-3d7e74279bdd<table><tr><td style="font-weight:bold;vertical-align:top;">comment</td><td style="vertical-align:top;">:</td><td><div></div></td></tr><tr><td style="font-weight:bold;vertical-align:top;">domain</td><td style="vertical-align:top;">:</td><td><div></div></td></tr><tr><td style="font-weight:bold;vertical-align:top;">expires</td><td style="vertical-align:top;">:</td><td><div></div></td></tr><tr><td style="font-weight:bold;vertical-align:top;">httponly</td><td style="vertical-align:top;">:</td><td><div></div></td></tr><tr><td style="font-weight:bold;vertical-align:top;">max-age</td><td style="vertical-align:top;">:</td><td><div></div></td></tr><tr><td style="font-weight:bold;vertical-align:top;">path</td><td style="vertical-align:top;">:</td><td><div></div></td></tr><tr><td style="font-weight:bold;vertical-align:top;">secure</td><td style="vertical-align:top;">:</td><td><div></div></td></tr><tr><td style="font-weight:bold;vertical-align:top;">version</td><td style="vertical-align:top;">:</td><td><div></div></td></tr></table></div></td></tr><tr><td style="font-weight:bold;vertical-align:top;">session_id_pgday</td><td style="vertical-align:top;">:</td><td><div>127.0.0.1-4b839bf6-587f-4a54-9d21-64fdbe2253ae<table><tr><td style="font-weight:bold;vertical-align:top;">comment</td><td style="vertical-align:top;">:</td><td><div></div></td></tr><tr><td style="font-weight:bold;vertical-align:top;">domain</td><td style="vertical-align:top;">:</td><td><div></div></td></tr><tr><td style="font-weight:bold;vertical-align:top;">expires</td><td style="vertical-align:top;">:</td><td><div></div></td></tr><tr><td style="font-weight:bold;vertical-align:top;">httponly</td><td style="vertical-align:top;">:</td><td><div></div></td></tr><tr><td style="font-weight:bold;vertical-align:top;">max-age</td><td style="vertical-align:top;">:</td><td><div></div></td></tr><tr><td style="font-weight:bold;vertical-align:top;">path</td><td style="vertical-align:top;">:</td><td><div></div></td></tr><tr><td style="font-weight:bold;vertical-align:top;">secure</td><td style="vertical-align:top;">:</td><td><div></div></td></tr><tr><td style="font-weight:bold;vertical-align:top;">version</td><td style="vertical-align:top;">:</td><td><div></div></td></tr></table></div></td></tr><tr><td style="font-weight:bold;vertical-align:top;">session_id_seacat_ingresos</td><td style="vertical-align:top;">:</td><td><div>127.0.0.1-c3d9353e-bde7-418f-a743-e842edc36176<table><tr><td style="font-weight:bold;vertical-align:top;">comment</td><td style="vertical-align:top;">:</td><td><div></div></td></tr><tr><td style="font-weight:bold;vertical-align:top;">domain</td><td style="vertical-align:top;">:</td><td><div></div></td></tr><tr><td style="font-weight:bold;vertical-align:top;">expires</td><td style="vertical-align:top;">:</td><td><div></div></td></tr><tr><td style="font-weight:bold;vertical-align:top;">httponly</td><td style="vertical-align:top;">:</td><td><div></div></td></tr><tr><td style="font-weight:bold;vertical-align:top;">max-age</td><td style="vertical-align:top;">:</td><td><div></div></td></tr><tr><td style="font-weight:bold;vertical-align:top;">path</td><td style="vertical-align:top;">:</td><td><div></div></td></tr><tr><td style="font-weight:bold;vertical-align:top;">secure</td><td style="vertical-align:top;">:</td><td><div></div></td></tr><tr><td style="font-weight:bold;vertical-align:top;">version</td><td style="vertical-align:top;">:</td><td><div></div></td></tr></table></div></td></tr><tr><td style="font-weight:bold;vertical-align:top;">session_id_welcome</td><td style="vertical-align:top;">:</td><td><div>127.0.0.1-e036a97f-f1cb-4429-807f-e6a9668cde90<table><tr><td style="font-weight:bold;vertical-align:top;">comment</td><td style="vertical-align:top;">:</td><td><div></div></td></tr><tr><td style="font-weight:bold;vertical-align:top;">domain</td><td style="vertical-align:top;">:</td><td><div></div></td></tr><tr><td style="font-weight:bold;vertical-align:top;">expires</td><td style="vertical-align:top;">:</td><td><div></div></td></tr><tr><td style="font-weight:bold;vertical-align:top;">httponly</td><td style="vertical-align:top;">:</td><td><div></div></td></tr><tr><td style="font-weight:bold;vertical-align:top;">max-age</td><td style="vertical-align:top;">:</td><td><div></div></td></tr><tr><td style="font-weight:bold;vertical-align:top;">path</td><td style="vertical-align:top;">:</td><td><div></div></td></tr><tr><td style="font-weight:bold;vertical-align:top;">secure</td><td style="vertical-align:top;">:</td><td><div></div></td></tr><tr><td style="font-weight:bold;vertical-align:top;">version</td><td style="vertical-align:top;">:</td><td><div></div></td></tr></table></div></td></tr></table></div></td></tr><tr><td style="font-weight:bold;vertical-align:top;">env</td><td style="vertical-align:top;">:</td><td><div><table><tr><td style="font-weight:bold;vertical-align:top;">HTTP_ACCEPT</td><td style="vertical-align:top;">:</td><td><div>text/html,application/xhtml+xml,application/xml;q=0.9,*/*;q=0.8</div></td></tr><tr><td style="font-weight:bold;vertical-align:top;">HTTP_ACCEPT_ENCODING</td><td style="vertical-align:top;">:</td><td><div>gzip,deflate,sdch</div></td></tr><tr><td style="font-weight:bold;vertical-align:top;">HTTP_ACCEPT_LANGUAGE</td><td style="vertical-align:top;">:</td><td><div>es,es-419;q=0.8,en-US;q=0.6,en;q=0.4</div></td></tr><tr><td style="font-weight:bold;vertical-align:top;">HTTP_CONNECTION</td><td style="vertical-align:top;">:</td><td><div>keep-alive</div></td></tr><tr><td style="font-weight:bold;vertical-align:top;">HTTP_COOKIE</td><td style="vertical-align:top;">:</td><td><div>session_id_isbp=127.0.0.1-f7d6e8bc-faca-433a-87b3-3d7e74279bdd; __utma=96992031.17915714.1390050310.1390050310.1390057708.2; __utmc=96992031; __utmz=96992031.1390050310.1.1.utmcsr=(direct)|utmccn=(direct)|utmcmd=(none); session_id_pgday=127.0.0.1-4b839bf6-587f-4a54-9d21-64fdbe2253ae; session_id_welcome=127.0.0.1-e036a97f-f1cb-4429-807f-e6a9668cde90; session_id_admin=127.0.0.1-890a02b4-d81a-452d-b5f4-fe4e888bcdeb; session_id_seacat_ingresos=127.0.0.1-c3d9353e-bde7-418f-a743-e842edc36176</div></td></tr><tr><td style="font-weight:bold;vertical-align:top;">HTTP_HOST</td><td style="vertical-align:top;">:</td><td><div>127.0.0.1:8000</div></td></tr><tr><td style="font-weight:bold;vertical-align:top;">HTTP_USER_AGENT</td><td style="vertical-align:top;">:</td><td><div>Mozilla/5.0 (X11; Linux x86_64) AppleWebKit/537.36 (KHTML, like Gecko) Chrome/28.0.1500.95 Safari/537.36</div></td></tr><tr><td style="font-weight:bold;vertical-align:top;">PATH_INFO</td><td style="vertical-align:top;">:</td><td><div>/SEACAT_ingresos/</div></td></tr><tr><td style="font-weight:bold;vertical-align:top;">QUERY_STRING</td><td style="vertical-align:top;">:</td><td><div></div></td></tr><tr><td style="font-weight:bold;vertical-align:top;">REMOTE_ADDR</td><td style="vertical-align:top;">:</td><td><div>127.0.0.1</div></td></tr><tr><td style="font-weight:bold;vertical-align:top;">REMOTE_PORT</td><td style="vertical-align:top;">:</td><td><div>56421</div></td></tr><tr><td style="font-weight:bold;vertical-align:top;">REQUEST_METHOD</td><td style="vertical-align:top;">:</td><td><div>GET</div></td></tr><tr><td style="font-weight:bold;vertical-align:top;">SCRIPT_NAME</td><td style="vertical-align:top;">:</td><td><div></div></td></tr><tr><td style="font-weight:bold;vertical-align:top;">SERVER_NAME</td><td style="vertical-align:top;">:</td><td><div>larrea-lmde</div></td></tr><tr><td style="font-weight:bold;vertical-align:top;">SERVER_PORT</td><td style="vertical-align:top;">:</td><td><div>8000</div></td></tr><tr><td style="font-weight:bold;vertical-align:top;">SERVER_PROTOCOL</td><td style="vertical-align:top;">:</td><td><div>HTTP/1.1</div></td></tr><tr><td style="font-weight:bold;vertical-align:top;">SERVER_SOFTWARE</td><td style="vertical-align:top;">:</td><td><div>Rocket 1.2.6</div></td></tr><tr><td style="font-weight:bold;vertical-align:top;">app_folders</td><td style="vertical-align:top;">:</td><td><div>set([&#x27;/home/leo/Dropbox/web2py/applications/SEACAT_ingresos/&#x27;, &#x27;/home/leo/Dropbox/web2py/applications/welcome/&#x27;])</div></td></tr><tr><td style="font-weight:bold;vertical-align:top;">applications_parent</td><td style="vertical-align:top;">:</td><td><div>/home/leo/Dropbox/web2py</div></td></tr><tr><td style="font-weight:bold;vertical-align:top;">cmd_args</td><td style="vertical-align:top;">:</td><td><div><table></table></div></td></tr><tr><td style="font-weight:bold;vertical-align:top;">cmd_options</td><td style="vertical-align:top;">:</td><td><div>&lt;Values at 0x30911b8: {&#x27;verbose&#x27;: False, &#x27;ip&#x27;: &#x27;127.0.0.1&#x27;, &#x27;debuglevel&#x27;: 30, &#x27;with_scheduler&#x27;: False, &#x27;ips&#x27;: [&#x27;127.0.1.1&#x27;], &#x27;shutdown_timeout&#x27;: 5, &#x27;taskbar&#x27;: False, &#x27;with_coverage&#x27;: False, &#x27;port&#x27;: 8000, &#x27;maxthreads&#x27;: None, &#x27;softcron&#x27;: False, &#x27;server_name&#x27;: &#x27;larrea-lmde&#x27;, &#x27;bpython&#x27;: False, &#x27;nogui&#x27;: False, &#x27;pid_filename&#x27;: &#x27;httpserver.pid&#x27;, &#x27;extcron&#x27;: False, &#x27;runcron&#x27;: False, &#x27;run_system_tests&#x27;: False, &#x27;test&#x27;: None, &#x27;folder&#x27;: &#x27;/home/leo/Dropbox/web2py&#x27;, &#x27;config&#x27;: &#x27;&#x27;, &#x27;minthreads&#x27;: None, &#x27;shell&#x27;: None, &#x27;run&#x27;: &#x27;&#x27;, &#x27;log_filename&#x27;: &#x27;httpserver.log&#x27;, &#x27;profiler_dir&#x27;: None, &#x27;args&#x27;: [&#x27;&#x27;], &#x27;socket_timeout&#x27;: 5, &#x27;ssl_ca_certificate&#x27;: None, &#x27;scheduler&#x27;: None, &#x27;interfaces&#x27;: None, &#x27;ssl_private_key&#x27;: &#x27;&#x27;, &#x27;scheduler_groups&#x27;: None, &#x27;password&#x27;: &#x27;&lt;ask&gt;&#x27;, &#x27;request_queue_size&#x27;: 5, &#x27;ssl_certificate&#x27;: &#x27;&#x27;, &#x27;cronjob&#x27;: False, &#x27;numthreads&#x27;: None, &#x27;quiet&#x27;: False, &#x27;import_models&#x27;: False, &#x27;timeout&#x27;: 10, &#x27;plain&#x27;: False, &#x27;nobanner&#x27;: False}&gt;</div></td></tr><tr><td style="font-weight:bold;vertical-align:top;">db_sessions</td><td style="vertical-align:top;">:</td><td><div>set([])</div></td></tr><tr><td style="font-weight:bold;vertical-align:top;">debugging</td><td style="vertical-align:top;">:</td><td><div>False</div></td></tr><tr><td style="font-weight:bold;vertical-align:top;">gluon_parent</td><td style="vertical-align:top;">:</td><td><div>/home/leo/Dropbox/web2py</div></td></tr><tr><td style="font-weight:bold;vertical-align:top;">http_accept</td><td style="vertical-align:top;">:</td><td><div>text/html,application/xhtml+xml,application/xml;q=0.9,*/*;q=0.8</div></td></tr><tr><td style="font-weight:bold;vertical-align:top;">http_accept_encoding</td><td style="vertical-align:top;">:</td><td><div>gzip,deflate,sdch</div></td></tr><tr><td style="font-weight:bold;vertical-align:top;">http_accept_language</td><td style="vertical-align:top;">:</td><td><div>es,es-419;q=0.8,en-US;q=0.6,en;q=0.4</div></td></tr><tr><td style="font-weight:bold;vertical-align:top;">http_connection</td><td style="vertical-align:top;">:</td><td><div>keep-alive</div></td></tr><tr><td style="font-weight:bold;vertical-align:top;">http_cookie</td><td style="vertical-align:top;">:</td><td><div>session_id_isbp=127.0.0.1-f7d6e8bc-faca-433a-87b3-3d7e74279bdd; __utma=96992031.17915714.1390050310.1390050310.1390057708.2; __utmc=96992031; __utmz=96992031.1390050310.1.1.utmcsr=(direct)|utmccn=(direct)|utmcmd=(none); session_id_pgday=127.0.0.1-4b839bf6-587f-4a54-9d21-64fdbe2253ae; session_id_welcome=127.0.0.1-e036a97f-f1cb-4429-807f-e6a9668cde90; session_id_admin=127.0.0.1-890a02b4-d81a-452d-b5f4-fe4e888bcdeb; session_id_seacat_ingresos=127.0.0.1-c3d9353e-bde7-418f-a743-e842edc36176</div></td></tr><tr><td style="font-weight:bold;vertical-align:top;">http_host</td><td style="vertical-align:top;">:</td><td><div>127.0.0.1:8000</div></td></tr><tr><td style="font-weight:bold;vertical-align:top;">http_user_agent</td><td style="vertical-align:top;">:</td><td><div>Mozilla/5.0 (X11; Linux x86_64) AppleWebKit/537.36 (KHTML, like Gecko) Chrome/28.0.1500.95 Safari/537.36</div></td></tr><tr><td style="font-weight:bold;vertical-align:top;">is_jython</td><td style="vertical-align:top;">:</td><td><div>False</div></td></tr><tr><td style="font-weight:bold;vertical-align:top;">is_pypy</td><td style="vertical-align:top;">:</td><td><div>False</div></td></tr><tr><td style="font-weight:bold;vertical-align:top;">is_source</td><td style="vertical-align:top;">:</td><td><div>True</div></td></tr><tr><td style="font-weight:bold;vertical-align:top;">local_hosts</td><td style="vertical-align:top;">:</td><td><div><table><tr><td><div>127.0.1.1</div></td></tr><tr><td><div>::1</div></td></tr><tr><td><div>larrea-lmde</div></td></tr><tr><td><div>::ffff:127.0.0.1</div></td></tr><tr><td><div>127.0.0.1</div></td></tr></table></div></td></tr><tr><td style="font-weight:bold;vertical-align:top;">path_info</td><td style="vertical-align:top;">:</td><td><div>/SEACAT_ingresos/</div></td></tr><tr><td style="font-weight:bold;vertical-align:top;">query_string</td><td style="vertical-align:top;">:</td><td><div></div></td></tr><tr><td style="font-weight:bold;vertical-align:top;">remote_addr</td><td style="vertical-align:top;">:</td><td><div>127.0.0.1</div></td></tr><tr><td style="font-weight:bold;vertical-align:top;">remote_port</td><td style="vertical-align:top;">:</td><td><div>56421</div></td></tr><tr><td style="font-weight:bold;vertical-align:top;">request_method</td><td style="vertical-align:top;">:</td><td><div>GET</div></td></tr><tr><td style="font-weight:bold;vertical-align:top;">request_uri</td><td style="vertical-align:top;">:</td><td><div>/SEACAT_ingresos/</div></td></tr><tr><td style="font-weight:bold;vertical-align:top;">script_name</td><td style="vertical-align:top;">:</td><td><div></div></td></tr><tr><td style="font-weight:bold;vertical-align:top;">server_name</td><td style="vertical-align:top;">:</td><td><div>larrea-lmde</div></td></tr><tr><td style="font-weight:bold;vertical-align:top;">server_port</td><td style="vertical-align:top;">:</td><td><div>8000</div></td></tr><tr><td style="font-weight:bold;vertical-align:top;">server_protocol</td><td style="vertical-align:top;">:</td><td><div>HTTP/1.1</div></td></tr><tr><td style="font-weight:bold;vertical-align:top;">server_software</td><td style="vertical-align:top;">:</td><td><div>Rocket 1.2.6</div></td></tr><tr><td style="font-weight:bold;vertical-align:top;">web2py_path</td><td style="vertical-align:top;">:</td><td><div>/home/leo/Dropbox/web2py</div></td></tr><tr><td style="font-weight:bold;vertical-align:top;">web2py_version</td><td style="vertical-align:top;">:</td><td><div>2.8.2-stable+timestamp.2013.11.28.13.54.07</div></td></tr><tr><td style="font-weight:bold;vertical-align:top;">wsgi.errors</td><td style="vertical-align:top;">:</td><td><div>&lt;open file &#x27;&lt;stderr&gt;&#x27;, mode &#x27;w&#x27; at 0x7faf519f91e0&gt;</div></td></tr><tr><td style="font-weight:bold;vertical-align:top;">wsgi.file_wrapper</td><td style="vertical-align:top;">:</td><td><div>&lt;class wsgiref.util.FileWrapper at 0x30060b8&gt;</div></td></tr><tr><td style="font-weight:bold;vertical-align:top;">wsgi.input</td><td style="vertical-align:top;">:</td><td><div>&lt;socket._fileobject object at 0x7faf402a6d50&gt;</div></td></tr><tr><td style="font-weight:bold;vertical-align:top;">wsgi.multiprocess</td><td style="vertical-align:top;">:</td><td><div>False</div></td></tr><tr><td style="font-weight:bold;vertical-align:top;">wsgi.multithread</td><td style="vertical-align:top;">:</td><td><div>True</div></td></tr><tr><td style="font-weight:bold;vertical-align:top;">wsgi.run_once</td><td style="vertical-align:top;">:</td><td><div>False</div></td></tr><tr><td style="font-weight:bold;vertical-align:top;">wsgi.url_scheme</td><td style="vertical-align:top;">:</td><td><div>http</div></td></tr><tr><td style="font-weight:bold;vertical-align:top;">wsgi.version</td><td style="vertical-align:top;">:</td><td><div><table><tr><td><div>1</div></td></tr><tr><td><div>0</div></td></tr></table></div></td></tr><tr><td style="font-weight:bold;vertical-align:top;">wsgi_errors</td><td style="vertical-align:top;">:</td><td><div>&lt;open file &#x27;&lt;stderr&gt;&#x27;, mode &#x27;w&#x27; at 0x7faf519f91e0&gt;</div></td></tr><tr><td style="font-weight:bold;vertical-align:top;">wsgi_file_wrapper</td><td style="vertical-align:top;">:</td><td><div>&lt;class wsgiref.util.FileWrapper at 0x30060b8&gt;</div></td></tr><tr><td style="font-weight:bold;vertical-align:top;">wsgi_input</td><td style="vertical-align:top;">:</td><td><div>&lt;socket._fileobject object at 0x7faf402a6d50&gt;</div></td></tr><tr><td style="font-weight:bold;vertical-align:top;">wsgi_multiprocess</td><td style="vertical-align:top;">:</td><td><div>False</div></td></tr><tr><td style="font-weight:bold;vertical-align:top;">wsgi_multithread</td><td style="vertical-align:top;">:</td><td><div>True</div></td></tr><tr><td style="font-weight:bold;vertical-align:top;">wsgi_run_once</td><td style="vertical-align:top;">:</td><td><div>False</div></td></tr><tr><td style="font-weight:bold;vertical-align:top;">wsgi_url_scheme</td><td style="vertical-align:top;">:</td><td><div>http</div></td></tr><tr><td style="font-weight:bold;vertical-align:top;">wsgi_version</td><td style="vertical-align:top;">:</td><td><div><table><tr><td><div>1</div></td></tr><tr><td><div>0</div></td></tr></table></div></td></tr></table></div></td></tr><tr><td style="font-weight:bold;vertical-align:top;">extension</td><td style="vertical-align:top;">:</td><td><div>html</div></td></tr><tr><td style="font-weight:bold;vertical-align:top;">folder</td><td style="vertical-align:top;">:</td><td><div>/home/leo/Dropbox/web2py/applications/SEACAT_ingresos/</div></td></tr><tr><td style="font-weight:bold;vertical-align:top;">function</td><td style="vertical-align:top;">:</td><td><div>index</div></td></tr><tr><td style="font-weight:bold;vertical-align:top;">global_settings</td><td style="vertical-align:top;">:</td><td><div><table><tr><td style="font-weight:bold;vertical-align:top;">app_folders</td><td style="vertical-align:top;">:</td><td><div>set([&#x27;/home/leo/Dropbox/web2py/applications/SEACAT_ingresos/&#x27;, &#x27;/home/leo/Dropbox/web2py/applications/welcome/&#x27;])</div></td></tr><tr><td style="font-weight:bold;vertical-align:top;">applications_parent</td><td style="vertical-align:top;">:</td><td><div>/home/leo/Dropbox/web2py</div></td></tr><tr><td style="font-weight:bold;vertical-align:top;">cmd_args</td><td style="vertical-align:top;">:</td><td><div><table></table></div></td></tr><tr><td style="font-weight:bold;vertical-align:top;">cmd_options</td><td style="vertical-align:top;">:</td><td><div>&lt;Values at 0x30911b8: {&#x27;verbose&#x27;: False, &#x27;ip&#x27;: &#x27;127.0.0.1&#x27;, &#x27;debuglevel&#x27;: 30, &#x27;with_scheduler&#x27;: False, &#x27;ips&#x27;: [&#x27;127.0.1.1&#x27;], &#x27;shutdown_timeout&#x27;: 5, &#x27;taskbar&#x27;: False, &#x27;with_coverage&#x27;: False, &#x27;port&#x27;: 8000, &#x27;maxthreads&#x27;: None, &#x27;softcron&#x27;: False, &#x27;server_name&#x27;: &#x27;larrea-lmde&#x27;, &#x27;bpython&#x27;: False, &#x27;nogui&#x27;: False, &#x27;pid_filename&#x27;: &#x27;httpserver.pid&#x27;, &#x27;extcron&#x27;: False, &#x27;runcron&#x27;: False, &#x27;run_system_tests&#x27;: False, &#x27;test&#x27;: None, &#x27;folder&#x27;: &#x27;/home/leo/Dropbox/web2py&#x27;, &#x27;config&#x27;: &#x27;&#x27;, &#x27;minthreads&#x27;: None, &#x27;shell&#x27;: None, &#x27;run&#x27;: &#x27;&#x27;, &#x27;log_filename&#x27;: &#x27;httpserver.log&#x27;, &#x27;profiler_dir&#x27;: None, &#x27;args&#x27;: [&#x27;&#x27;], &#x27;socket_timeout&#x27;: 5, &#x27;ssl_ca_certificate&#x27;: None, &#x27;scheduler&#x27;: None, &#x27;interfaces&#x27;: None, &#x27;ssl_private_key&#x27;: &#x27;&#x27;, &#x27;scheduler_groups&#x27;: None, &#x27;password&#x27;: &#x27;&lt;ask&gt;&#x27;, &#x27;request_queue_size&#x27;: 5, &#x27;ssl_certificate&#x27;: &#x27;&#x27;, &#x27;cronjob&#x27;: False, &#x27;numthreads&#x27;: None, &#x27;quiet&#x27;: False, &#x27;import_models&#x27;: False, &#x27;timeout&#x27;: 10, &#x27;plain&#x27;: False, &#x27;nobanner&#x27;: False}&gt;</div></td></tr><tr><td style="font-weight:bold;vertical-align:top;">db_sessions</td><td style="vertical-align:top;">:</td><td><div>set([])</div></td></tr><tr><td style="font-weight:bold;vertical-align:top;">debugging</td><td style="vertical-align:top;">:</td><td><div>False</div></td></tr><tr><td style="font-weight:bold;vertical-align:top;">gluon_parent</td><td style="vertical-align:top;">:</td><td><div>/home/leo/Dropbox/web2py</div></td></tr><tr><td style="font-weight:bold;vertical-align:top;">is_jython</td><td style="vertical-align:top;">:</td><td><div>False</div></td></tr><tr><td style="font-weight:bold;vertical-align:top;">is_pypy</td><td style="vertical-align:top;">:</td><td><div>False</div></td></tr><tr><td style="font-weight:bold;vertical-align:top;">is_source</td><td style="vertical-align:top;">:</td><td><div>True</div></td></tr><tr><td style="font-weight:bold;vertical-align:top;">local_hosts</td><td style="vertical-align:top;">:</td><td><div><table><tr><td><div>127.0.1.1</div></td></tr><tr><td><div>::1</div></td></tr><tr><td><div>larrea-lmde</div></td></tr><tr><td><div>::ffff:127.0.0.1</div></td></tr><tr><td><div>127.0.0.1</div></td></tr></table></div></td></tr><tr><td style="font-weight:bold;vertical-align:top;">web2py_version</td><td style="vertical-align:top;">:</td><td><div>2.8.2-stable+timestamp.2013.11.28.13.54.07</div></td></tr></table></div></td></tr><tr><td style="font-weight:bold;vertical-align:top;">is_https</td><td style="vertical-align:top;">:</td><td><div>False</div></td></tr><tr><td style="font-weight:bold;vertical-align:top;">is_local</td><td style="vertical-align:top;">:</td><td><div>True</div></td></tr><tr><td style="font-weight:bold;vertical-align:top;">is_restful</td><td style="vertical-align:top;">:</td><td><div>False</div></td></tr><tr><td style="font-weight:bold;vertical-align:top;">now</td><td style="vertical-align:top;">:</td><td><div>datetime.datetime(2014, 1, 22, 15, 8, 26, 583233)</div></td></tr><tr><td style="font-weight:bold;vertical-align:top;">raw_args</td><td style="vertical-align:top;">:</td><td><div></div></td></tr><tr><td style="font-weight:bold;vertical-align:top;">raw_extension</td><td style="vertical-align:top;">:</td><td><div>None</div></td></tr><tr><td style="font-weight:bold;vertical-align:top;">url</td><td style="vertical-align:top;">:</td><td><div>/SEACAT_ingresos/</div></td></tr><tr><td style="font-weight:bold;vertical-align:top;">utcnow</td><td style="vertical-align:top;">:</td><td><div>datetime.datetime(2014, 1, 22, 18, 8, 26, 583258)</div></td></tr><tr><td style="font-weight:bold;vertical-align:top;">uuid</td><td style="vertical-align:top;">:</td><td><div>SEACAT_ingresos/127.0.0.1.2014-01-22.15-08-26.b9a1d3b6-1ca6-45d4-af56-da2b722605ae</div></td></tr><tr><td style="font-weight:bold;vertical-align:top;">wsgi</td><td style="vertical-align:top;">:</td><td><div>&lt;gluon.main.LazyWSGI object at 0x7faf402c8f90&gt;</div></td></tr></table></div>'
tRp62
sS'frames'
p63
(lp64
(dp65
S'file'
p66
S'/home/leo/Dropbox/web2py/gluon/restricted.py'
p67
sS'dump'
p68
(dp69
S'environment'
p70
S"{'A': <class 'gluon.html.A'>, 'ANY_OF': <class 'gluon.validators.ANY_OF'>, 'Auth': <class 'gluon.tools.Auth'>, 'B': <class 'gluon.html.B'>, 'BEAUTIFY': <class 'gluon.html.BEAUTIFY'>, 'BODY': <class 'gluon.html.BODY'>, 'BR': <class 'gluon.html.BR'>, 'BUTTON': <class 'gluon.html.BUTTON'>, 'CAT': <class 'gluon.html.CAT'>, 'CENTER': <class 'gluon.html.CENTER'>, ...}"
p71
sS'ccode'
p72
S'<code object <module> at 0x7faf402d1e30, file "/...lications/SEACAT_ingresos/models/db.py", line 12>'
p73
ssS'lnum'
p74
I217
sS'lines'
p75
(dp76
I212
S'    try:'
p77
sI213
S'        if isinstance(code, types.CodeType):'
p78
sI214
S'            ccode = code'
p79
sI215
S'        else:'
p80
sI216
S'            ccode = compile2(code, layer)'
p81
sI217
S'        exec ccode in environment'
p82
sI218
S'    except HTTP:'
p83
sI219
S'        raise'
p84
sI220
S'    except RestrictedError:'
p85
sI221
S'        # do not encapsulate (obfuscate) the original RestrictedError'
p86
ssS'call'
p87
S"(code='# -*- coding: utf-8 -*-\\n\\n#######################...ble auditing\\n# auth.enable_record_versioning(db)\\n', environment={'A': <class 'gluon.html.A'>, 'ANY_OF': <class 'gluon.validators.ANY_OF'>, 'Auth': <class 'gluon.tools.Auth'>, 'B': <class 'gluon.html.B'>, 'BEAUTIFY': <class 'gluon.html.BEAUTIFY'>, 'BODY': <class 'gluon.html.BODY'>, 'BR': <class 'gluon.html.BR'>, 'BUTTON': <class 'gluon.html.BUTTON'>, 'CAT': <class 'gluon.html.CAT'>, 'CENTER': <class 'gluon.html.CENTER'>, ...}, layer='/home/leo/Dropbox/web2py/applications/SEACAT_ingresos/models/db.py')"
p88
sS'func'
p89
S'restricted'
p90
sa(dp91
g66
S'/home/leo/Dropbox/web2py/applications/SEACAT_ingresos/models/db.py'
p92
sg68
(dp93
S'db.auth_user'
p94
S'<Table auth_user (id,first_name,last_name,email,...bs,is_active,created_by,modified_on,modified_by)>'
p95
sS'db'
p96
S'<DAL uri="postgres:******@wspio1.pioix.edu.ar/seacat">'
p97
sS').select'
p98
S'undefined'
p99
sS'db.auth_user.ALL'
p100
S'<gluon.dal.SQLALL object>'
p101
ssg74
I171
sg75
(dp102
I166
S''
sI167
S'## configure auth policy'
p103
sI168
S'auth.settings.registration_requires_verification = False'
p104
sI169
S'auth.settings.registration_requires_approval = False'
p105
sI170
S'auth.settings.reset_password_requires_verification = True'
p106
sI171
S'if not db().select(db.auth_user.ALL):'
p107
sI172
S'    auth.settings.actions_disabled = []'
p108
sI173
S'else:'
p109
sI174
S"    auth.settings.actions_disabled = ['register']"
p110
sI175
S''
ssg87
S'()'
p111
sg89
S'<module>'
p112
sa(dp113
g66
S'/home/leo/Dropbox/web2py/gluon/dal.py'
p114
sg68
(dp115
S'self.query'
p116
S'None'
p117
sS'adapter.select'
p118
S'<bound method PostgreSQLAdapter.select of <gluon.dal.PostgreSQLAdapter object>>'
p119
sS'fields'
p120
S'[<gluon.dal.Field object>, <gluon.dal.Field object>, <gluon.dal.Field object>, <gluon.dal.Field object>, <gluon.dal.Field object>, <gluon.dal.Field object>, <gluon.dal.Field object>, <gluon.dal.Field object>, <gluon.dal.Field object>, <gluon.dal.Field object>, <gluon.dal.Field object>, <gluon.dal.Field object>, <gluon.dal.Field object>, <gluon.dal.Field object>, <gluon.dal.Field object>, <gluon.dal.Field object>, <gluon.dal.Field object>]'
p121
sS'adapter'
p122
S'<gluon.dal.PostgreSQLAdapter object>'
p123
sS'attributes'
p124
g21
sS'self'
p125
S'<Set None>'
p126
ssg74
I10335
sg75
(dp127
I10336
S''
sI10337
S'    def nested_select(self,*fields,**attributes):'
p128
sI10338
S'        return Expression(self.db,self._select(*fields,**attributes))'
p129
sI10339
S''
sI10330
S"                                    attributes.get('join',None),"
p130
sI10331
S"                                    attributes.get('left',None),"
p131
sI10332
S"                                    attributes.get('orderby',None),"
p132
sI10333
S"                                    attributes.get('groupby',None))"
p133
sI10334
S'        fields = adapter.expand_all(fields, tablenames)'
p134
sI10335
S'        return adapter.select(self.query,fields,attributes)'
p135
ssg87
S'(self=<Set None>, *fields=[<gluon.dal.Field object>, <gluon.dal.Field object>, <gluon.dal.Field object>, <gluon.dal.Field object>, <gluon.dal.Field object>, <gluon.dal.Field object>, <gluon.dal.Field object>, <gluon.dal.Field object>, <gluon.dal.Field object>, <gluon.dal.Field object>, <gluon.dal.Field object>, <gluon.dal.Field object>, <gluon.dal.Field object>, <gluon.dal.Field object>, <gluon.dal.Field object>, <gluon.dal.Field object>, <gluon.dal.Field object>], **attributes={})'
p136
sg89
S'select'
p137
sa(dp138
g66
S'/home/leo/Dropbox/web2py/gluon/dal.py'
p139
sg68
(dp140
S'fields'
p141
S'[<gluon.dal.Field object>, <gluon.dal.Field object>, <gluon.dal.Field object>, <gluon.dal.Field object>, <gluon.dal.Field object>, <gluon.dal.Field object>, <gluon.dal.Field object>, <gluon.dal.Field object>, <gluon.dal.Field object>, <gluon.dal.Field object>, <gluon.dal.Field object>, <gluon.dal.Field object>, <gluon.dal.Field object>, <gluon.dal.Field object>, <gluon.dal.Field object>, <gluon.dal.Field object>, <gluon.dal.Field object>]'
p142
sS'self'
p143
S'<gluon.dal.PostgreSQLAdapter object>'
p144
sS'attributes'
p145
g21
sS'self._select_aux'
p146
S'<bound method PostgreSQLAdapter._select_aux of <gluon.dal.PostgreSQLAdapter object>>'
p147
sS'sql'
p148
S"'SELECT  auth_user.id, auth_user.first_name, auth...odified_on, auth_user.modified_by FROM auth_user;'"
p149
ssg74
I1831
sg75
(dp150
I1826
S'            return cache_model('
p151
sI1827
S'                key,'
p152
sI1828
S'                lambda self=self,args=args:self._select_aux(*args),'
p153
sI1829
S'                time_expire)'
p154
sI1830
S'        else:'
p155
sI1831
S'            return self._select_aux(sql,fields,attributes)'
p156
sI1832
S''
sI1833
S'    def _count(self, query, distinct=None):'
p157
sI1834
S'        tablenames = self.tables(query)'
p158
sI1835
S'        if query:'
p159
ssg87
S'(self=<gluon.dal.PostgreSQLAdapter object>, query=None, fields=[<gluon.dal.Field object>, <gluon.dal.Field object>, <gluon.dal.Field object>, <gluon.dal.Field object>, <gluon.dal.Field object>, <gluon.dal.Field object>, <gluon.dal.Field object>, <gluon.dal.Field object>, <gluon.dal.Field object>, <gluon.dal.Field object>, <gluon.dal.Field object>, <gluon.dal.Field object>, <gluon.dal.Field object>, <gluon.dal.Field object>, <gluon.dal.Field object>, <gluon.dal.Field object>, <gluon.dal.Field object>], attributes={})'
p160
sg89
g137
sa(dp161
g66
S'/home/leo/Dropbox/web2py/gluon/dal.py'
p162
sg68
(dp163
S'self'
p164
S'<gluon.dal.PostgreSQLAdapter object>'
p165
sS'self.execute'
p166
S'<bound method PostgreSQLAdapter.execute of <gluon.dal.PostgreSQLAdapter object>>'
p167
sS'sql'
p168
S"'SELECT  auth_user.id, auth_user.first_name, auth...odified_on, auth_user.modified_by FROM auth_user;'"
p169
ssg74
I1796
sg75
(dp170
I1792
S'    def _select_aux(self,sql,fields,attributes):'
p171
sI1793
S'        args_get = attributes.get'
p172
sI1794
S"        cache = args_get('cache',None)"
p173
sI1795
S'        if not cache:'
p174
sI1796
S'            self.execute(sql)'
p175
sI1797
S'            rows = self._fetchall()'
p176
sI1798
S'        else:'
p177
sI1799
S'            (cache_model, time_expire) = cache'
p178
sI1800
S"            key = self.uri + '/' + sql + '/rows'"
p179
sI1791
S''
ssg87
S"(self=<gluon.dal.PostgreSQLAdapter object>, sql='SELECT  auth_user.id, auth_user.first_name, auth...odified_on, auth_user.modified_by FROM auth_user;', fields=[<gluon.dal.Field object>, <gluon.dal.Field object>, <gluon.dal.Field object>, <gluon.dal.Field object>, <gluon.dal.Field object>, <gluon.dal.Field object>, <gluon.dal.Field object>, <gluon.dal.Field object>, <gluon.dal.Field object>, <gluon.dal.Field object>, <gluon.dal.Field object>, <gluon.dal.Field object>, <gluon.dal.Field object>, <gluon.dal.Field object>, <gluon.dal.Field object>, <gluon.dal.Field object>, <gluon.dal.Field object>], attributes={})"
p180
sg89
S'_select_aux'
p181
sa(dp182
g66
S'/home/leo/Dropbox/web2py/gluon/dal.py'
p183
sg68
(dp184
S'a'
S"('SELECT  auth_user.id, auth_user.first_name, auth...odified_on, auth_user.modified_by FROM auth_user;',)"
p185
sS'self'
p186
S'<gluon.dal.PostgreSQLAdapter object>'
p187
sS'b'
g21
sS'self.log_execute'
p188
S'<bound method PostgreSQLAdapter.log_execute of <gluon.dal.PostgreSQLAdapter object>>'
p189
ssg74
I1916
sg75
(dp190
I1920
S'        if isinstance(obj, CALLABLETYPES):'
p191
sI1911
S'        self.db._timings.append((command,time.time()-t0))'
p192
sI1912
S'        del self.db._timings[:-TIMINGSSIZE]'
p193
sI1913
S'        return ret'
p194
sI1914
S''
sI1915
S'    def execute(self, *a, **b):'
p195
sI1916
S'        return self.log_execute(*a, **b)'
p196
sI1917
S''
sI1918
S'    def represent(self, obj, fieldtype):'
p197
sI1919
S'        field_is_type = fieldtype.startswith'
p198
ssg87
S"(self=<gluon.dal.PostgreSQLAdapter object>, *a=('SELECT  auth_user.id, auth_user.first_name, auth...odified_on, auth_user.modified_by FROM auth_user;',), **b={})"
p199
sg89
S'execute'
p200
sa(dp201
g66
S'/home/leo/Dropbox/web2py/gluon/dal.py'
p202
sg68
(dp203
S'a'
S"('SELECT  auth_user.id, auth_user.first_name, auth...odified_on, auth_user.modified_by FROM auth_user;',)"
p204
sS'b'
g21
sS'self'
p205
S'<gluon.dal.PostgreSQLAdapter object>'
p206
sS'ret'
p207
g99
sS'self.cursor'
p208
S'<gluon.contrib.pg8000.dbapi.CursorWrapper object>'
p209
sS'command'
p210
S"'SELECT  auth_user.id, auth_user.first_name, auth...odified_on, auth_user.modified_by FROM auth_user;'"
p211
sS'self.cursor.execute'
p212
S'<bound method CursorWrapper._fn of <gluon.contrib.pg8000.dbapi.CursorWrapper object>>'
p213
ssg74
I1910
sg75
(dp214
I1905
S'            command = self.filter_sql_command(command)'
p215
sI1906
S'        if self.db._debug:'
p216
sI1907
S"            LOGGER.debug('SQL: %s' % command)"
p217
sI1908
S'        self.db._lastsql = command'
p218
sI1909
S'        t0 = time.time()'
p219
sI1910
S'        ret = self.cursor.execute(command, *a[1:], **b)'
p220
sI1911
S'        self.db._timings.append((command,time.time()-t0))'
p221
sI1912
S'        del self.db._timings[:-TIMINGSSIZE]'
p222
sI1913
S'        return ret'
p223
sI1914
S''
ssg87
S"(self=<gluon.dal.PostgreSQLAdapter object>, *a=('SELECT  auth_user.id, auth_user.first_name, auth...odified_on, auth_user.modified_by FROM auth_user;',), **b={})"
p224
sg89
S'log_execute'
p225
sa(dp226
g66
S'/home/leo/Dropbox/web2py/gluon/contrib/pg8000/dbapi.py'
p227
sg68
(dp228
S'self'
p229
S'<gluon.contrib.pg8000.dbapi.CursorWrapper object>'
p230
sS'args'
p231
S"('SELECT  auth_user.id, auth_user.first_name, auth...odified_on, auth_user.modified_by FROM auth_user;',)"
p232
sS'fn'
p233
S'<function execute>'
p234
sS'kwargs'
p235
g21
ssg74
I246
sg75
(dp236
I241
S''
sI242
S'def require_open_cursor(fn):'
p237
sI243
S'    def _fn(self, *args, **kwargs):'
p238
sI244
S'        if self.cursor == None:'
p239
sI245
S'            raise CursorClosedError()'
p240
sI246
S'        return fn(self, *args, **kwargs)'
p241
sI247
S'    return _fn'
p242
sI248
S''
sI249
S'##'
p243
sI250
S'# The class of object returned by the {@link #ConnectionWrapper.cursor cursor method}.'
p244
ssg87
S"(self=<gluon.contrib.pg8000.dbapi.CursorWrapper object>, *args=('SELECT  auth_user.id, auth_user.first_name, auth...odified_on, auth_user.modified_by FROM auth_user;',), **kwargs={})"
p245
sg89
S'_fn'
p246
sa(dp247
g66
S'/home/leo/Dropbox/web2py/gluon/contrib/pg8000/dbapi.py'
p248
sg68
(dp249
S'self._execute'
p250
S'<bound method CursorWrapper._execute of <gluon.contrib.pg8000.dbapi.CursorWrapper object>>'
p251
sS'self'
p252
S'<gluon.contrib.pg8000.dbapi.CursorWrapper object>'
p253
sS'args'
p254
S'()'
p255
sS'operation'
p256
S"'SELECT  auth_user.id, auth_user.first_name, auth...odified_on, auth_user.modified_by FROM auth_user;'"
p257
ssg74
I317
sg75
(dp258
I320
S'        new_query, new_args = convert_paramstyle(paramstyle, operation, args)'
p259
sI321
S'        try:'
p260
sI312
S'    @require_open_cursor'
p261
sI313
S'    def execute(self, operation, args=()):'
p262
sI314
S'        if not self._connection.in_transaction:'
p263
sI315
S'            self._connection.begin()'
p264
sI316
S'        self._override_rowcount = None'
p265
sI317
S'        self._execute(operation, args)'
p266
sI318
S''
sI319
S'    def _execute(self, operation, args=()):'
p267
ssg87
S"(self=<gluon.contrib.pg8000.dbapi.CursorWrapper object>, operation='SELECT  auth_user.id, auth_user.first_name, auth...odified_on, auth_user.modified_by FROM auth_user;', args=())"
p268
sg89
g200
sa(dp269
g66
S'/home/leo/Dropbox/web2py/gluon/contrib/pg8000/dbapi.py'
p270
sg68
(dp271
S'new_args'
p272
S'()'
p273
sS'self.cursor'
p274
S'<gluon.contrib.pg8000.interface.Cursor object>'
p275
sS'self'
p276
S'<gluon.contrib.pg8000.dbapi.CursorWrapper object>'
p277
sS'new_query'
p278
S"'SELECT  auth_user.id, auth_user.first_name, auth...odified_on, auth_user.modified_by FROM auth_user;'"
p279
sS'self.cursor.execute'
p280
S'<bound method Cursor.execute of <gluon.contrib.pg8000.interface.Cursor object>>'
p281
ssg74
I322
sg75
(dp282
I320
S'        new_query, new_args = convert_paramstyle(paramstyle, operation, args)'
p283
sI321
S'        try:'
p284
sI322
S'            self.cursor.execute(new_query, *new_args)'
p285
sI323
S'        except ConnectionClosedError:'
p286
sI324
S"            # can't rollback in this case"
p287
sI325
S'            raise'
p288
sI326
S'        except:'
p289
sI317
S'        self._execute(operation, args)'
p290
sI318
S''
sI319
S'    def _execute(self, operation, args=()):'
p291
ssg87
S"(self=<gluon.contrib.pg8000.dbapi.CursorWrapper object>, operation='SELECT  auth_user.id, auth_user.first_name, auth...odified_on, auth_user.modified_by FROM auth_user;', args=())"
p292
sg89
S'_execute'
p293
sa(dp294
g66
S'/home/leo/Dropbox/web2py/gluon/contrib/pg8000/interface.py'
p295
sg68
(dp296
S'x'
g99
sS'args'
p297
S'()'
p298
sS'builtintype'
p299
S"<type 'type'>"
p300
sS'self._stmt'
p301
S'<gluon.contrib.pg8000.interface.PreparedStatement object>'
p302
sS'self'
p303
S'<gluon.contrib.pg8000.interface.Cursor object>'
p304
sS'self.connection'
p305
S'<gluon.contrib.pg8000.interface.Connection object>'
p306
sS'global PreparedStatement'
p307
S"<class 'gluon.contrib.pg8000.interface.PreparedStatement'>"
p308
sS'statement_name'
p309
g99
sS'query'
p310
S"'SELECT  auth_user.id, auth_user.first_name, auth...odified_on, auth_user.modified_by FROM auth_user;'"
p311
ssg74
I398
sg75
(dp312
I393
S'                # use PostgreSQL Simple Query Protocol'
p313
sI394
S'                ## print "SimpleQuery:", query'
p314
sI395
S'                self._stmt = SimpleStatement(self.connection, query)'
p315
sI396
S'            else:'
p316
sI397
S'                # use PostgreSQL Extended Query Protocol'
p317
sI398
S'                self._stmt = PreparedStatement(self.connection, query, statement_name="", *[{"type": type(x), "value": x} for x in args])'
p318
sI399
S'            self._stmt.execute(*args, **kwargs)'
p319
sI400
S'        finally:'
p320
sI401
S'            self.connection._unnamed_prepared_statement_lock.release()'
p321
sI402
S''
ssg87
S"(self=<gluon.contrib.pg8000.interface.Cursor object>, query='SELECT  auth_user.id, auth_user.first_name, auth...odified_on, auth_user.modified_by FROM auth_user;', *args=(), **kwargs={})"
p322
sg89
g200
sa(dp323
g66
S'/home/leo/Dropbox/web2py/gluon/contrib/pg8000/interface.py'
p324
sg68
(dp325
S'self.c'
p326
S'<gluon.contrib.pg8000.protocol.Connection object>'
p327
sS'self'
p328
S'<gluon.contrib.pg8000.interface.PreparedStatement object>'
p329
sS'self.c.parse'
p330
S'<bound method Connection._fn of <gluon.contrib.pg8000.protocol.Connection object>>'
p331
sS'self._statement_name'
p332
S"''"
p333
sS'self._parse_row_desc'
p334
g99
sS'statement'
p335
S"'SELECT  auth_user.id, auth_user.first_name, auth...odified_on, auth_user.modified_by FROM auth_user;'"
p336
sS'types'
p337
S'()'
p338
ssg74
I138
sg75
(dp339
I133
S'        self._statement_name = kwargs.get("statement_name", "pg8000_statement_%s" % self._statement_number)'
p340
sI134
S'        self._row_desc = None'
p341
sI135
S'        self._cached_rows = []'
p342
sI136
S'        self._ongoing_row_count = 0'
p343
sI137
S'        self._command_complete = True'
p344
sI138
S'        self._parse_row_desc = self.c.parse(self._statement_name, statement, types)'
p345
sI139
S'        self._lock = threading.RLock()'
p346
sI140
S''
sI141
S'    def close(self):'
p347
sI142
S'        if self._statement_name != "": # don\'t close unnamed statement'
p348
ssg87
S"(self=<gluon.contrib.pg8000.interface.PreparedStatement object>, connection=<gluon.contrib.pg8000.interface.Connection object>, statement='SELECT  auth_user.id, auth_user.first_name, auth...odified_on, auth_user.modified_by FROM auth_user;', *types=(), **kwargs={'statement_name': ''})"
p349
sg89
g26
sa(dp350
g66
S'/home/leo/Dropbox/web2py/gluon/contrib/pg8000/protocol.py'
p351
sg68
(dp352
S'self'
p353
S'<gluon.contrib.pg8000.protocol.Connection object>'
p354
sS'args'
p355
S"('', 'SELECT  auth_user.id, auth_user.first_name, auth...odified_on, auth_user.modified_by FROM auth_user;', ())"
p356
sS'fn'
p357
S'<function parse>'
p358
sS'kwargs'
p359
g21
ssg74
I943
sg75
(dp360
I938
S''
sI939
S'def sync_on_error(fn):'
p361
sI940
S'    def _fn(self, *args, **kwargs):'
p362
sI941
S'        try:'
p363
sI942
S'            self._sock_lock.acquire()'
p364
sI943
S'            return fn(self, *args, **kwargs)'
p365
sI944
S'        except:'
p366
sI945
S'            self._sync()'
p367
sI946
S'            raise'
p368
sI947
S'        finally:'
p369
ssg87
S"(self=<gluon.contrib.pg8000.protocol.Connection object>, *args=('', 'SELECT  auth_user.id, auth_user.first_name, auth...odified_on, auth_user.modified_by FROM auth_user;', ()), **kwargs={})"
p370
sg89
g246
sa(dp371
g66
S'/home/leo/Dropbox/web2py/gluon/contrib/pg8000/protocol.py'
p372
sg68
(dp373
S'reader.handle_messages'
p374
S'<bound method MessageReader.handle_messages of <gluon.contrib.pg8000.protocol.MessageReader object>>'
p375
sS'reader'
p376
S'<gluon.contrib.pg8000.protocol.MessageReader object>'
p377
ssg74
I1104
sg75
(dp378
I1099
S'        reader.add_message(NoData, lambda msg: (None, param_fc))'
p379
sI1100
S''
sI1101
S'        # Common row description response'
p380
sI1102
S'        reader.add_message(RowDescription, lambda msg: (msg, param_fc))'
p381
sI1103
S''
sI1104
S'        return reader.handle_messages()'
p382
sI1105
S''
sI1106
S'    @sync_on_error'
p383
sI1107
S'    def bind(self, portal, statement, params, parse_data, copy_stream):'
p384
sI1108
S'        self.verifyState("ready")'
p385
ssg87
S"(self=<gluon.contrib.pg8000.protocol.Connection object>, statement='', qs='SELECT  auth_user.id, auth_user.first_name, auth...odified_on, auth_user.modified_by FROM auth_user;', param_types=[])"
p386
sg89
S'parse'
p387
sa(dp388
g66
S'/home/leo/Dropbox/web2py/gluon/contrib/pg8000/protocol.py'
p389
sg68
(dp390
S'exc'
p391
S"ProgrammingError('ERROR', '42P01', 'no existe la relaci\\xc3\\xb3n \\xc2\\xabauth_user\\xc2\\xbb')"
p392
ssg74
I929
sg75
(dp393
I928
S'                if not self.delay_raising_exception:'
p394
sI929
S'                    raise exc'
p395
sI930
S'            elif isinstance(msg, NoticeResponse):'
p396
sI931
S'                self._conn.handleNoticeResponse(msg)'
p397
sI932
S'            elif isinstance(msg, ParameterStatus):'
p398
sI933
S'                self._conn.handleParameterStatus(msg)'
p399
sI924
S'            if msg_handled:'
p400
sI925
S'                continue'
p401
sI926
S'            elif isinstance(msg, ErrorResponse):'
p402
sI927
S'                exc = msg.createException()'
p403
ssg87
S'(self=<gluon.contrib.pg8000.protocol.MessageReader object>)'
p404
sg89
S'handle_messages'
p405
sasS'pyver'
p406
S'Python 2.7.5+: /usr/bin/python (prefix: /usr)'
p407
sS'session'
p408
g61
(S's\xbd\x01\x00\x00<div><table><tr><td style="font-weight:bold;vertical-align:top;">flash</td><td style="vertical-align:top;">:</td><td><div>None</div></td></tr><tr><td style="font-weight:bold;vertical-align:top;">last_orderby</td><td style="vertical-align:top;">:</td><td><div>None</div></td></tr><tr><td style="font-weight:bold;vertical-align:top;">last_query</td><td style="vertical-align:top;">:</td><td><div>db.auth_group.id&gt;0</div></td></tr></table></div>'
tRp409
sS'etype'
p410
S"<class 'gluon.contrib.pg8000.errors.ProgrammingError'>"
p411
sS'date'
p412
S'Wed Jan 22 15:08:27 2014'
p413
sS'response'
p414
g61
(S's\x00\x17\x00\x00<div><table><tr><td style="font-weight:bold;vertical-align:top;">body</td><td style="vertical-align:top;">:</td><td><div>&lt;cStringIO.StringO object at 0x7faf402c91b8&gt;</div></td></tr><tr><td style="font-weight:bold;vertical-align:top;">cookies</td><td style="vertical-align:top;">:</td><td><div><table><tr><td style="font-weight:bold;vertical-align:top;">session_id_seacat_ingresos</td><td style="vertical-align:top;">:</td><td><div>127.0.0.1-c3d9353e-bde7-418f-a743-e842edc36176<table><tr><td style="font-weight:bold;vertical-align:top;">comment</td><td style="vertical-align:top;">:</td><td><div></div></td></tr><tr><td style="font-weight:bold;vertical-align:top;">domain</td><td style="vertical-align:top;">:</td><td><div></div></td></tr><tr><td style="font-weight:bold;vertical-align:top;">expires</td><td style="vertical-align:top;">:</td><td><div></div></td></tr><tr><td style="font-weight:bold;vertical-align:top;">httponly</td><td style="vertical-align:top;">:</td><td><div></div></td></tr><tr><td style="font-weight:bold;vertical-align:top;">max-age</td><td style="vertical-align:top;">:</td><td><div></div></td></tr><tr><td style="font-weight:bold;vertical-align:top;">path</td><td style="vertical-align:top;">:</td><td><div>/</div></td></tr><tr><td style="font-weight:bold;vertical-align:top;">secure</td><td style="vertical-align:top;">:</td><td><div></div></td></tr><tr><td style="font-weight:bold;vertical-align:top;">version</td><td style="vertical-align:top;">:</td><td><div></div></td></tr></table></div></td></tr></table></div></td></tr><tr><td style="font-weight:bold;vertical-align:top;">delimiters</td><td style="vertical-align:top;">:</td><td><div><table><tr><td><div>{{</div></td></tr><tr><td><div>}}</div></td></tr></table></div></td></tr><tr><td style="font-weight:bold;vertical-align:top;">files</td><td style="vertical-align:top;">:</td><td><div><table></table></div></td></tr><tr><td style="font-weight:bold;vertical-align:top;">flash</td><td style="vertical-align:top;">:</td><td><div></div></td></tr><tr><td style="font-weight:bold;vertical-align:top;">generic_patterns</td><td style="vertical-align:top;">:</td><td><div><table><tr><td><div>*</div></td></tr></table></div></td></tr><tr><td style="font-weight:bold;vertical-align:top;">headers</td><td style="vertical-align:top;">:</td><td><div><table><tr><td style="font-weight:bold;vertical-align:top;">X-Powered-By</td><td style="vertical-align:top;">:</td><td><div>web2py</div></td></tr></table></div></td></tr><tr><td style="font-weight:bold;vertical-align:top;">menu</td><td style="vertical-align:top;">:</td><td><div><table></table></div></td></tr><tr><td style="font-weight:bold;vertical-align:top;">meta</td><td style="vertical-align:top;">:</td><td><div><table></table></div></td></tr><tr><td style="font-weight:bold;vertical-align:top;">models_to_run</td><td style="vertical-align:top;">:</td><td><div><table><tr><td><div>^\\w+\\.py$</div></td></tr><tr><td><div>^default/\\w+\\.py$</div></td></tr><tr><td><div>^default/index/\\w+\\.py$</div></td></tr></table></div></td></tr><tr><td style="font-weight:bold;vertical-align:top;">postprocessing</td><td style="vertical-align:top;">:</td><td><div><table></table></div></td></tr><tr><td style="font-weight:bold;vertical-align:top;">session_client</td><td style="vertical-align:top;">:</td><td><div>127.0.0.1</div></td></tr><tr><td style="font-weight:bold;vertical-align:top;">session_cookie_compression_level</td><td style="vertical-align:top;">:</td><td><div>None</div></td></tr><tr><td style="font-weight:bold;vertical-align:top;">session_cookie_expires</td><td style="vertical-align:top;">:</td><td><div>None</div></td></tr><tr><td style="font-weight:bold;vertical-align:top;">session_cookie_key</td><td style="vertical-align:top;">:</td><td><div>None</div></td></tr><tr><td style="font-weight:bold;vertical-align:top;">session_data_name</td><td style="vertical-align:top;">:</td><td><div>session_data_seacat_ingresos</div></td></tr><tr><td style="font-weight:bold;vertical-align:top;">session_file</td><td style="vertical-align:top;">:</td><td><div>&lt;open file &#x27;/home/leo/Dropbox/web2py/applications/SEACAT_ingresos/sessions/127.0.0.1-c3d9353e-bde7-418f-a743-e842edc36176&#x27;, mode &#x27;rb+&#x27; at 0x3079390&gt;</div></td></tr><tr><td style="font-weight:bold;vertical-align:top;">session_filename</td><td style="vertical-align:top;">:</td><td><div>/home/leo/Dropbox/web2py/applications/SEACAT_ingresos/sessions/127.0.0.1-c3d9353e-bde7-418f-a743-e842edc36176</div></td></tr><tr><td style="font-weight:bold;vertical-align:top;">session_hash</td><td style="vertical-align:top;">:</td><td><div>4967b10232d2781d0bf38a9ec65ab1a1</div></td></tr><tr><td style="font-weight:bold;vertical-align:top;">session_id</td><td style="vertical-align:top;">:</td><td><div>127.0.0.1-c3d9353e-bde7-418f-a743-e842edc36176</div></td></tr><tr><td style="font-weight:bold;vertical-align:top;">session_id_name</td><td style="vertical-align:top;">:</td><td><div>session_id_seacat_ingresos</div></td></tr><tr><td style="font-weight:bold;vertical-align:top;">session_locked</td><td style="vertical-align:top;">:</td><td><div>True</div></td></tr><tr><td style="font-weight:bold;vertical-align:top;">session_masterapp</td><td style="vertical-align:top;">:</td><td><div>SEACAT_ingresos</div></td></tr><tr><td style="font-weight:bold;vertical-align:top;">session_new</td><td style="vertical-align:top;">:</td><td><div>False</div></td></tr><tr><td style="font-weight:bold;vertical-align:top;">session_storage_type</td><td style="vertical-align:top;">:</td><td><div>file</div></td></tr><tr><td style="font-weight:bold;vertical-align:top;">status</td><td style="vertical-align:top;">:</td><td><div>200</div></td></tr><tr><td style="font-weight:bold;vertical-align:top;">view</td><td style="vertical-align:top;">:</td><td><div>default/index.html</div></td></tr></table></div>'
tRp415
sS'locals'
p416
(dp417
S'exc'
p418
S"ProgrammingError('ERROR', '42P01', 'no existe la relaci\\xc3\\xb3n \\xc2\\xabauth_user\\xc2\\xbb')"
p419
sS'msg_class'
p420
S"<class 'gluon.contrib.pg8000.protocol.RowDescription'>"
p421
sS'self'
p422
S'<gluon.contrib.pg8000.protocol.MessageReader object>'
p423
sg46
S'()'
p424
sS'handler'
p425
S'<function <lambda>>'
p426
sS'kwargs'
p427
g21
sS'msg'
p428
S"<ErrorResponse ERROR 42P01 'no existe la relaci\\xc3\\xb3n \\xc2\\xabauth_user\\xc2\\xbb'>"
p429
sS'msg_handled'
p430
S'False'
p431
sssS'traceback'
p432
S'Traceback (most recent call last):\n  File "/home/leo/Dropbox/web2py/gluon/restricted.py", line 217, in restricted\n    exec ccode in environment\n  File "/home/leo/Dropbox/web2py/applications/SEACAT_ingresos/models/db.py", line 171, in <module>\n    if not db().select(db.auth_user.ALL):\n  File "/home/leo/Dropbox/web2py/gluon/dal.py", line 10335, in select\n    return adapter.select(self.query,fields,attributes)\n  File "/home/leo/Dropbox/web2py/gluon/dal.py", line 1831, in select\n    return self._select_aux(sql,fields,attributes)\n  File "/home/leo/Dropbox/web2py/gluon/dal.py", line 1796, in _select_aux\n    self.execute(sql)\n  File "/home/leo/Dropbox/web2py/gluon/dal.py", line 1916, in execute\n    return self.log_execute(*a, **b)\n  File "/home/leo/Dropbox/web2py/gluon/dal.py", line 1910, in log_execute\n    ret = self.cursor.execute(command, *a[1:], **b)\n  File "/home/leo/Dropbox/web2py/gluon/contrib/pg8000/dbapi.py", line 246, in _fn\n    return fn(self, *args, **kwargs)\n  File "/home/leo/Dropbox/web2py/gluon/contrib/pg8000/dbapi.py", line 317, in execute\n    self._execute(operation, args)\n  File "/home/leo/Dropbox/web2py/gluon/contrib/pg8000/dbapi.py", line 322, in _execute\n    self.cursor.execute(new_query, *new_args)\n  File "/home/leo/Dropbox/web2py/gluon/contrib/pg8000/interface.py", line 398, in execute\n    self._stmt = PreparedStatement(self.connection, query, statement_name="", *[{"type": type(x), "value": x} for x in args])\n  File "/home/leo/Dropbox/web2py/gluon/contrib/pg8000/interface.py", line 138, in __init__\n    self._parse_row_desc = self.c.parse(self._statement_name, statement, types)\n  File "/home/leo/Dropbox/web2py/gluon/contrib/pg8000/protocol.py", line 943, in _fn\n    return fn(self, *args, **kwargs)\n  File "/home/leo/Dropbox/web2py/gluon/contrib/pg8000/protocol.py", line 1104, in parse\n    return reader.handle_messages()\n  File "/home/leo/Dropbox/web2py/gluon/contrib/pg8000/protocol.py", line 929, in handle_messages\n    raise exc\nProgrammingError: (\'ERROR\', \'42P01\', \'no existe la relaci\\xc3\\xb3n \\xc2\\xabauth_user\\xc2\\xbb\')\n'
p433
s.