(dp1
S'output'
p2
S"<class 'gluon.contrib.pg8000.errors.ProgrammingError'> ('ERROR', '0A000', 'no se puede truncar una tabla referida en una llave for\\xc3\\xa1nea')"
p3
sS'layer'
p4
S'/home/leo/Dropbox/web2py/applications/SEACAT_ingresos/controllers/admin.py'
p5
sS'code'
p6
S'# coding: utf8\n# intente algo como\ndef index():\n    if db.auth_user:\n        db.auth_user.truncate()\n        db.auth_user.insert(email=\'root\', password=\'root\')\n        ## Adding Groups in FIRST_DEPLOYMENT:\n        db.auth_group.insert(role=\'root\', description=\'Superadministrador\')\n        db.auth_group.insert(role=\'empleado\', description=\'Empleado de la Casa\')\n        db.auth_group.insert(role=\'soporte\', description=\'Soporte T\xc3\xa9cnico\')\n        db.auth_group.insert(role=\'directivo\', description=\'Directivo\')\n        db.auth_group.insert(role=\'director\', description=\'Director General\')\n        db.auth_group.insert(role=\'rector\', description=\'Rector del Colegio\')\n        db.auth_group.insert(role=\'secretaria\', description=\'Secretar\xc3\xada\')\n        db.auth_group.insert(role=\'secretario\', description=\'Secretario\')\n        db.auth_group.insert(role=\'derivaciones\', description=\'Oficina de Derivaciones\')\n        db.auth_group.insert(role=\'eoe\', description=\'Equipo de Orientaci\xc3\xb3n Escolar\')\n        db.auth_group.insert(role=\'administracion\', description=\'Administraci\xc3\xb3n\')\n        db.auth_group.insert(role=\'administrador\', description=\'Administrador\')\n        db.auth_group.insert(role=\'caja\', description=\'Caja\')\n        db.auth_group.insert(role=\'padre\', description=\'Padre o Madre\')\n        db.auth_group.insert(role=\'candidato\', description=\'Ingresante\')\n\n    ## Adding permission in FIRST_DEPLOYMENT:\n    auth.add_permission(db.auth_group(role=\'root\').id, \'create\', db.auth_user, 0)\n    auth.add_permission(db.auth_group(role=\'root\').id, \'view\', db.auth_user, 0)\n    auth.add_permission(db.auth_group(role="derivaciones").id, \'create new father\', db.auth_user, 0)\n    auth.add_permission(db.auth_group(role="derivaciones").id, \'view fathers list\', db.auth_user, 0)\n    return dict(message="hello from admin.py")\n\n@auth.requires_membership(\'root\')\ndef admin_users():\n    grid = SQLFORM.smartgrid(db.auth_user,\n                             fields=[db.auth_user.id,\n                                     db.auth_user.gender,\n                                     db.auth_user.first_name,\n                                     db.auth_user.middle_name,\n                                     db.auth_user.last_name,\n                                     db.auth_user.email,\n                                     db.auth_user.obs,\n                                     db.auth_user.last_login,\n                                     db.auth_user.created_on],\n                             maxtextlengths={\'auth_user.email\': 50},\n                             showbuttontext=False,\n                             orderby=\'auth_user.last_name\',\n                             paginate=50,\n                             links_in_grid=False,\n                             exportclasses=dict(csv=True, csv_with_hidden_cols=False, json=False, tsv=False, tsv_with_hidden_cols=False, xml=True))\n    return locals()\n\n@auth.requires_membership(\'root\')\ndef admin_user_groups():\n    grid = SQLFORM.grid(db.auth_group,\n                        maxtextlengths={\'auth_group.description\': 50},\n                        showbuttontext=False,\n                        orderby=\'auth_group.role\',\n                        paginate=50,\n                        links_in_grid=False,\n                        exportclasses=dict(csv=True, csv_with_hidden_cols=False, json=False, tsv=False, tsv_with_hidden_cols=False, xml=True))\n    return locals()\n\n@auth.requires_membership(\'root\')\ndef admin_user_memberships():\n    grid = SQLFORM.smartgrid(db.auth_membership,\n                             maxtextlengths={\'auth_membership.user_id\': 50},\n                             showbuttontext=False,\n                             #orderby=db.auth_user.last_name,\n                             paginate=50,\n                             links_in_grid=False,\n                             exportclasses=dict(csv=True, csv_with_hidden_cols=False, json=False, tsv=False, tsv_with_hidden_cols=False, xml=True))\n    return locals()\n\n@auth.requires_membership(\'root\')\ndef admin_user_permissions():\n    grid = SQLFORM.smartgrid(db.auth_permission,\n                             maxtextlengths={\'auth_permission.name\': 50},\n                             showbuttontext=False,\n                             paginate=50,\n                             links_in_grid=False,\n                             exportclasses=dict(csv=True, csv_with_hidden_cols=False, json=False, tsv=False, tsv_with_hidden_cols=False, xml=True))\n    return locals()\n\n@auth.requires_permission(\'create\', db.auth_user)\ndef new_user():\n    form = SQLFORM.factory(db.auth_user.first_name,\n                           db.auth_user.middle_name,\n                           db.auth_user.last_name,\n                           db.auth_user.gender,\n                           db.auth_user.email,\n                           db.auth_user.password,\n                           Field(\'password_check\', required=True, requires=[IS_EQUAL_TO(request.vars.password)], widget=SQLFORM.widgets.password.widget, label=T("Password Verification")),\n                           Field(\'role\', required=True, requires=IS_IN_DB(db, \'auth_group.role\', \'%(description)s\'), notnull=True, label=T("Role")),\n                           db.auth_user.obs\n                          )\n\n    if form.process().accepted:\n        ## After proccessing the form, we insert the data in the \'auth_user\' table.\n        new_user_id = db.auth_user.insert(**db.auth_user._filter_fields(form.vars))\n        ## And then we insert the membership of the new user.\n        db.auth_membership.insert(user_id=new_user_id,\n                                  group_id=db.auth_group(role=form.vars.role).id)\n        ## We set the \'created_on\' field to the current datetime.\n        db.auth_user[new_user_id]=dict(created_on=request.now)\n        response.flash = T("new record inserted")\n        redirect(URL(\'start\'))\n    elif form.errors:\n        response.flash = T("Form has errors")\n    return dict(form=form)\n\n@auth.requires_membership(\'root\')\ndef upload_image():\n    grid = SQLFORM.smartgrid(db.images)\n    return locals()\n\n@auth.requires_permission(\'view\', db.auth_user)\ndef users_list():\n    form = SQLFORM.factory(Field(\'role\', requires=IS_EMPTY_OR(IS_IN_DB(db, \'auth_group.role\', \'%(description)s\', zero=T("All"))), label=T("Filter")))\n    query =  (db.auth_membership.group_id==db.auth_group.id)&(db.auth_membership.user_id==db.auth_user.id)\n    if form.process().accepted:\n        if form.vars.role != None:\n            query &= (db.auth_group.role==request.vars.role)\n        response.flash = ""\n    fields = [db.auth_user.id,\n              db.auth_user.first_name,\n              db.auth_user.middle_name,\n              db.auth_user.last_name,\n              db.auth_user.email,\n              db.auth_user.created_on,\n              db.auth_user.last_login,\n              db.auth_group.description]\n    #rows = db(query).select()\n    grid = SQLFORM.grid(query,\n                        fields=fields,\n                        maxtextlengths={\'auth_user.id\': 5,\n                                        \'auth_user.first_name\': 20,\n                                        \'auth_user.middle_name\': 20,\n                                        \'auth_user.last_name\': 20,\n                                        \'auth_user.email\': 50,\n                                        \'auth_user.created_on\': 20,\n                                        \'auth_user.last_login\': 20},\n                        create=False,\n                        deletable=False,\n                        details=False,\n                        editable=False,\n                        searchable=False,\n                        csv=False,\n                        paginate=50)\n    return dict(form=form, grid=grid)\n\nresponse._vars=response._caller(index)\n'
p7
sS'snapshot'
p8
(dp9
S'exception'
p10
(dp11
S'__module__'
p12
S"'gluon.contrib.pg8000.errors'"
p13
sS'__getslice__'
p14
S"<method-wrapper '__getslice__' of ProgrammingError object>"
p15
sS'__str__'
p16
S"<method-wrapper '__str__' of ProgrammingError object>"
p17
sS'__reduce__'
p18
S'<built-in method __reduce__ of ProgrammingError object>'
p19
sS'__dict__'
p20
S'{}'
p21
sS'__sizeof__'
p22
S'<built-in method __sizeof__ of ProgrammingError object>'
p23
sS'__weakref__'
p24
S'None'
p25
sS'__init__'
p26
S"<method-wrapper '__init__' of ProgrammingError object>"
p27
sS'__setattr__'
p28
S"<method-wrapper '__setattr__' of ProgrammingError object>"
p29
sS'__reduce_ex__'
p30
S'<built-in method __reduce_ex__ of ProgrammingError object>'
p31
sS'__new__'
p32
S'<built-in method __new__ of type object>'
p33
sS'__format__'
p34
S'<built-in method __format__ of ProgrammingError object>'
p35
sS'__class__'
p36
S"<class 'gluon.contrib.pg8000.errors.ProgrammingError'>"
p37
sS'__doc__'
p38
S'None'
p39
sS'__getitem__'
p40
S"<method-wrapper '__getitem__' of ProgrammingError object>"
p41
sS'__setstate__'
p42
S'<built-in method __setstate__ of ProgrammingError object>'
p43
sS'__getattribute__'
p44
S"<method-wrapper '__getattribute__' of ProgrammingError object>"
p45
sS'args'
p46
S"('ERROR', '0A000', 'no se puede truncar una tabla referida en una llave for\\xc3\\xa1nea')"
p47
sS'__subclasshook__'
p48
S'<built-in method __subclasshook__ of type object>'
p49
sS'__unicode__'
p50
S'<built-in method __unicode__ of ProgrammingError object>'
p51
sS'__delattr__'
p52
S"<method-wrapper '__delattr__' of ProgrammingError object>"
p53
sS'__repr__'
p54
S"<method-wrapper '__repr__' of ProgrammingError object>"
p55
sS'__hash__'
p56
S"<method-wrapper '__hash__' of ProgrammingError object>"
p57
ssS'evalue'
p58
S"('ERROR', '0A000', 'no se puede truncar una tabla referida en una llave for\\xc3\\xa1nea')"
p59
sS'request'
p60
cgluon.html
XML_unpickle
p61
(S's\xdfe\x00\x00<div><table><tr><td style="font-weight:bold;vertical-align:top;">ajax</td><td style="vertical-align:top;">:</td><td><div>False</div></td></tr><tr><td style="font-weight:bold;vertical-align:top;">application</td><td style="vertical-align:top;">:</td><td><div>SEACAT_ingresos</div></td></tr><tr><td style="font-weight:bold;vertical-align:top;">args</td><td style="vertical-align:top;">:</td><td><div><table></table></div></td></tr><tr><td style="font-weight:bold;vertical-align:top;">cid</td><td style="vertical-align:top;">:</td><td><div>None</div></td></tr><tr><td style="font-weight:bold;vertical-align:top;">client</td><td style="vertical-align:top;">:</td><td><div>127.0.0.1</div></td></tr><tr><td style="font-weight:bold;vertical-align:top;">controller</td><td style="vertical-align:top;">:</td><td><div>admin</div></td></tr><tr><td style="font-weight:bold;vertical-align:top;">cookies</td><td style="vertical-align:top;">:</td><td><div><table><tr><td style="font-weight:bold;vertical-align:top;">session_id_admin</td><td style="vertical-align:top;">:</td><td><div>127.0.0.1-890a02b4-d81a-452d-b5f4-fe4e888bcdeb<table><tr><td style="font-weight:bold;vertical-align:top;">comment</td><td style="vertical-align:top;">:</td><td><div></div></td></tr><tr><td style="font-weight:bold;vertical-align:top;">domain</td><td style="vertical-align:top;">:</td><td><div></div></td></tr><tr><td style="font-weight:bold;vertical-align:top;">expires</td><td style="vertical-align:top;">:</td><td><div></div></td></tr><tr><td style="font-weight:bold;vertical-align:top;">httponly</td><td style="vertical-align:top;">:</td><td><div></div></td></tr><tr><td style="font-weight:bold;vertical-align:top;">max-age</td><td style="vertical-align:top;">:</td><td><div></div></td></tr><tr><td style="font-weight:bold;vertical-align:top;">path</td><td style="vertical-align:top;">:</td><td><div></div></td></tr><tr><td style="font-weight:bold;vertical-align:top;">secure</td><td style="vertical-align:top;">:</td><td><div></div></td></tr><tr><td style="font-weight:bold;vertical-align:top;">version</td><td style="vertical-align:top;">:</td><td><div></div></td></tr></table></div></td></tr><tr><td style="font-weight:bold;vertical-align:top;">session_id_isbp</td><td style="vertical-align:top;">:</td><td><div>127.0.0.1-f7d6e8bc-faca-433a-87b3-3d7e74279bdd<table><tr><td style="font-weight:bold;vertical-align:top;">comment</td><td style="vertical-align:top;">:</td><td><div></div></td></tr><tr><td style="font-weight:bold;vertical-align:top;">domain</td><td style="vertical-align:top;">:</td><td><div></div></td></tr><tr><td style="font-weight:bold;vertical-align:top;">expires</td><td style="vertical-align:top;">:</td><td><div></div></td></tr><tr><td style="font-weight:bold;vertical-align:top;">httponly</td><td style="vertical-align:top;">:</td><td><div></div></td></tr><tr><td style="font-weight:bold;vertical-align:top;">max-age</td><td style="vertical-align:top;">:</td><td><div></div></td></tr><tr><td style="font-weight:bold;vertical-align:top;">path</td><td style="vertical-align:top;">:</td><td><div></div></td></tr><tr><td style="font-weight:bold;vertical-align:top;">secure</td><td style="vertical-align:top;">:</td><td><div></div></td></tr><tr><td style="font-weight:bold;vertical-align:top;">version</td><td style="vertical-align:top;">:</td><td><div></div></td></tr></table></div></td></tr><tr><td style="font-weight:bold;vertical-align:top;">session_id_pgday</td><td style="vertical-align:top;">:</td><td><div>127.0.0.1-4b839bf6-587f-4a54-9d21-64fdbe2253ae<table><tr><td style="font-weight:bold;vertical-align:top;">comment</td><td style="vertical-align:top;">:</td><td><div></div></td></tr><tr><td style="font-weight:bold;vertical-align:top;">domain</td><td style="vertical-align:top;">:</td><td><div></div></td></tr><tr><td style="font-weight:bold;vertical-align:top;">expires</td><td style="vertical-align:top;">:</td><td><div></div></td></tr><tr><td style="font-weight:bold;vertical-align:top;">httponly</td><td style="vertical-align:top;">:</td><td><div></div></td></tr><tr><td style="font-weight:bold;vertical-align:top;">max-age</td><td style="vertical-align:top;">:</td><td><div></div></td></tr><tr><td style="font-weight:bold;vertical-align:top;">path</td><td style="vertical-align:top;">:</td><td><div></div></td></tr><tr><td style="font-weight:bold;vertical-align:top;">secure</td><td style="vertical-align:top;">:</td><td><div></div></td></tr><tr><td style="font-weight:bold;vertical-align:top;">version</td><td style="vertical-align:top;">:</td><td><div></div></td></tr></table></div></td></tr><tr><td style="font-weight:bold;vertical-align:top;">session_id_seacat_ingresos</td><td style="vertical-align:top;">:</td><td><div>127.0.0.1-a2589693-9f4a-40df-9f14-2fe733002bfd<table><tr><td style="font-weight:bold;vertical-align:top;">comment</td><td style="vertical-align:top;">:</td><td><div></div></td></tr><tr><td style="font-weight:bold;vertical-align:top;">domain</td><td style="vertical-align:top;">:</td><td><div></div></td></tr><tr><td style="font-weight:bold;vertical-align:top;">expires</td><td style="vertical-align:top;">:</td><td><div></div></td></tr><tr><td style="font-weight:bold;vertical-align:top;">httponly</td><td style="vertical-align:top;">:</td><td><div></div></td></tr><tr><td style="font-weight:bold;vertical-align:top;">max-age</td><td style="vertical-align:top;">:</td><td><div></div></td></tr><tr><td style="font-weight:bold;vertical-align:top;">path</td><td style="vertical-align:top;">:</td><td><div></div></td></tr><tr><td style="font-weight:bold;vertical-align:top;">secure</td><td style="vertical-align:top;">:</td><td><div></div></td></tr><tr><td style="font-weight:bold;vertical-align:top;">version</td><td style="vertical-align:top;">:</td><td><div></div></td></tr></table></div></td></tr><tr><td style="font-weight:bold;vertical-align:top;">session_id_welcome</td><td style="vertical-align:top;">:</td><td><div>127.0.0.1-e036a97f-f1cb-4429-807f-e6a9668cde90<table><tr><td style="font-weight:bold;vertical-align:top;">comment</td><td style="vertical-align:top;">:</td><td><div></div></td></tr><tr><td style="font-weight:bold;vertical-align:top;">domain</td><td style="vertical-align:top;">:</td><td><div></div></td></tr><tr><td style="font-weight:bold;vertical-align:top;">expires</td><td style="vertical-align:top;">:</td><td><div></div></td></tr><tr><td style="font-weight:bold;vertical-align:top;">httponly</td><td style="vertical-align:top;">:</td><td><div></div></td></tr><tr><td style="font-weight:bold;vertical-align:top;">max-age</td><td style="vertical-align:top;">:</td><td><div></div></td></tr><tr><td style="font-weight:bold;vertical-align:top;">path</td><td style="vertical-align:top;">:</td><td><div></div></td></tr><tr><td style="font-weight:bold;vertical-align:top;">secure</td><td style="vertical-align:top;">:</td><td><div></div></td></tr><tr><td style="font-weight:bold;vertical-align:top;">version</td><td style="vertical-align:top;">:</td><td><div></div></td></tr></table></div></td></tr></table></div></td></tr><tr><td style="font-weight:bold;vertical-align:top;">env</td><td style="vertical-align:top;">:</td><td><div><table><tr><td style="font-weight:bold;vertical-align:top;">HTTP_ACCEPT</td><td style="vertical-align:top;">:</td><td><div>text/html,application/xhtml+xml,application/xml;q=0.9,*/*;q=0.8</div></td></tr><tr><td style="font-weight:bold;vertical-align:top;">HTTP_ACCEPT_ENCODING</td><td style="vertical-align:top;">:</td><td><div>gzip,deflate,sdch</div></td></tr><tr><td style="font-weight:bold;vertical-align:top;">HTTP_ACCEPT_LANGUAGE</td><td style="vertical-align:top;">:</td><td><div>es,es-419;q=0.8,en-US;q=0.6,en;q=0.4</div></td></tr><tr><td style="font-weight:bold;vertical-align:top;">HTTP_CACHE_CONTROL</td><td style="vertical-align:top;">:</td><td><div>max-age=0</div></td></tr><tr><td style="font-weight:bold;vertical-align:top;">HTTP_CONNECTION</td><td style="vertical-align:top;">:</td><td><div>keep-alive</div></td></tr><tr><td style="font-weight:bold;vertical-align:top;">HTTP_COOKIE</td><td style="vertical-align:top;">:</td><td><div>session_id_isbp=127.0.0.1-f7d6e8bc-faca-433a-87b3-3d7e74279bdd; __utma=96992031.17915714.1390050310.1390050310.1390057708.2; __utmc=96992031; __utmz=96992031.1390050310.1.1.utmcsr=(direct)|utmccn=(direct)|utmcmd=(none); session_id_pgday=127.0.0.1-4b839bf6-587f-4a54-9d21-64fdbe2253ae; session_id_welcome=127.0.0.1-e036a97f-f1cb-4429-807f-e6a9668cde90; session_id_seacat_ingresos=127.0.0.1-a2589693-9f4a-40df-9f14-2fe733002bfd; session_id_admin=127.0.0.1-890a02b4-d81a-452d-b5f4-fe4e888bcdeb</div></td></tr><tr><td style="font-weight:bold;vertical-align:top;">HTTP_HOST</td><td style="vertical-align:top;">:</td><td><div>127.0.0.1:8000</div></td></tr><tr><td style="font-weight:bold;vertical-align:top;">HTTP_USER_AGENT</td><td style="vertical-align:top;">:</td><td><div>Mozilla/5.0 (X11; Linux x86_64) AppleWebKit/537.36 (KHTML, like Gecko) Chrome/28.0.1500.95 Safari/537.36</div></td></tr><tr><td style="font-weight:bold;vertical-align:top;">PATH_INFO</td><td style="vertical-align:top;">:</td><td><div>/SEACAT_ingresos/admin/index</div></td></tr><tr><td style="font-weight:bold;vertical-align:top;">QUERY_STRING</td><td style="vertical-align:top;">:</td><td><div></div></td></tr><tr><td style="font-weight:bold;vertical-align:top;">REMOTE_ADDR</td><td style="vertical-align:top;">:</td><td><div>127.0.0.1</div></td></tr><tr><td style="font-weight:bold;vertical-align:top;">REMOTE_PORT</td><td style="vertical-align:top;">:</td><td><div>53976</div></td></tr><tr><td style="font-weight:bold;vertical-align:top;">REQUEST_METHOD</td><td style="vertical-align:top;">:</td><td><div>GET</div></td></tr><tr><td style="font-weight:bold;vertical-align:top;">SCRIPT_NAME</td><td style="vertical-align:top;">:</td><td><div></div></td></tr><tr><td style="font-weight:bold;vertical-align:top;">SERVER_NAME</td><td style="vertical-align:top;">:</td><td><div>larrea-lmde</div></td></tr><tr><td style="font-weight:bold;vertical-align:top;">SERVER_PORT</td><td style="vertical-align:top;">:</td><td><div>8000</div></td></tr><tr><td style="font-weight:bold;vertical-align:top;">SERVER_PROTOCOL</td><td style="vertical-align:top;">:</td><td><div>HTTP/1.1</div></td></tr><tr><td style="font-weight:bold;vertical-align:top;">SERVER_SOFTWARE</td><td style="vertical-align:top;">:</td><td><div>Rocket 1.2.6</div></td></tr><tr><td style="font-weight:bold;vertical-align:top;">app_folders</td><td style="vertical-align:top;">:</td><td><div>set([&#x27;/home/leo/Dropbox/web2py/applications/SEACAT_ingresos/&#x27;, &#x27;/home/leo/Dropbox/web2py/applications/admin/&#x27;, &#x27;/home/leo/Dropbox/web2py/applications/welcome/&#x27;])</div></td></tr><tr><td style="font-weight:bold;vertical-align:top;">applications_parent</td><td style="vertical-align:top;">:</td><td><div>/home/leo/Dropbox/web2py</div></td></tr><tr><td style="font-weight:bold;vertical-align:top;">cmd_args</td><td style="vertical-align:top;">:</td><td><div><table></table></div></td></tr><tr><td style="font-weight:bold;vertical-align:top;">cmd_options</td><td style="vertical-align:top;">:</td><td><div>&lt;Values at 0x1f5b1b8: {&#x27;verbose&#x27;: False, &#x27;ip&#x27;: &#x27;127.0.0.1&#x27;, &#x27;debuglevel&#x27;: 30, &#x27;with_scheduler&#x27;: False, &#x27;ips&#x27;: [&#x27;127.0.1.1&#x27;], &#x27;shutdown_timeout&#x27;: 5, &#x27;taskbar&#x27;: False, &#x27;with_coverage&#x27;: False, &#x27;port&#x27;: 8000, &#x27;maxthreads&#x27;: None, &#x27;softcron&#x27;: False, &#x27;server_name&#x27;: &#x27;larrea-lmde&#x27;, &#x27;bpython&#x27;: False, &#x27;nogui&#x27;: False, &#x27;pid_filename&#x27;: &#x27;httpserver.pid&#x27;, &#x27;extcron&#x27;: False, &#x27;runcron&#x27;: False, &#x27;run_system_tests&#x27;: False, &#x27;test&#x27;: None, &#x27;folder&#x27;: &#x27;/home/leo/Dropbox/web2py&#x27;, &#x27;config&#x27;: &#x27;&#x27;, &#x27;minthreads&#x27;: None, &#x27;shell&#x27;: None, &#x27;run&#x27;: &#x27;&#x27;, &#x27;log_filename&#x27;: &#x27;httpserver.log&#x27;, &#x27;profiler_dir&#x27;: None, &#x27;args&#x27;: [&#x27;&#x27;], &#x27;socket_timeout&#x27;: 5, &#x27;ssl_ca_certificate&#x27;: None, &#x27;scheduler&#x27;: None, &#x27;interfaces&#x27;: None, &#x27;ssl_private_key&#x27;: &#x27;&#x27;, &#x27;scheduler_groups&#x27;: None, &#x27;password&#x27;: &#x27;&lt;ask&gt;&#x27;, &#x27;request_queue_size&#x27;: 5, &#x27;ssl_certificate&#x27;: &#x27;&#x27;, &#x27;cronjob&#x27;: False, &#x27;numthreads&#x27;: None, &#x27;quiet&#x27;: False, &#x27;import_models&#x27;: False, &#x27;timeout&#x27;: 10, &#x27;plain&#x27;: False, &#x27;nobanner&#x27;: False}&gt;</div></td></tr><tr><td style="font-weight:bold;vertical-align:top;">db_sessions</td><td style="vertical-align:top;">:</td><td><div>set([])</div></td></tr><tr><td style="font-weight:bold;vertical-align:top;">debugging</td><td style="vertical-align:top;">:</td><td><div>True</div></td></tr><tr><td style="font-weight:bold;vertical-align:top;">gluon_parent</td><td style="vertical-align:top;">:</td><td><div>/home/leo/Dropbox/web2py</div></td></tr><tr><td style="font-weight:bold;vertical-align:top;">http_accept</td><td style="vertical-align:top;">:</td><td><div>text/html,application/xhtml+xml,application/xml;q=0.9,*/*;q=0.8</div></td></tr><tr><td style="font-weight:bold;vertical-align:top;">http_accept_encoding</td><td style="vertical-align:top;">:</td><td><div>gzip,deflate,sdch</div></td></tr><tr><td style="font-weight:bold;vertical-align:top;">http_accept_language</td><td style="vertical-align:top;">:</td><td><div>es,es-419;q=0.8,en-US;q=0.6,en;q=0.4</div></td></tr><tr><td style="font-weight:bold;vertical-align:top;">http_cache_control</td><td style="vertical-align:top;">:</td><td><div>max-age=0</div></td></tr><tr><td style="font-weight:bold;vertical-align:top;">http_connection</td><td style="vertical-align:top;">:</td><td><div>keep-alive</div></td></tr><tr><td style="font-weight:bold;vertical-align:top;">http_cookie</td><td style="vertical-align:top;">:</td><td><div>session_id_isbp=127.0.0.1-f7d6e8bc-faca-433a-87b3-3d7e74279bdd; __utma=96992031.17915714.1390050310.1390050310.1390057708.2; __utmc=96992031; __utmz=96992031.1390050310.1.1.utmcsr=(direct)|utmccn=(direct)|utmcmd=(none); session_id_pgday=127.0.0.1-4b839bf6-587f-4a54-9d21-64fdbe2253ae; session_id_welcome=127.0.0.1-e036a97f-f1cb-4429-807f-e6a9668cde90; session_id_seacat_ingresos=127.0.0.1-a2589693-9f4a-40df-9f14-2fe733002bfd; session_id_admin=127.0.0.1-890a02b4-d81a-452d-b5f4-fe4e888bcdeb</div></td></tr><tr><td style="font-weight:bold;vertical-align:top;">http_host</td><td style="vertical-align:top;">:</td><td><div>127.0.0.1:8000</div></td></tr><tr><td style="font-weight:bold;vertical-align:top;">http_user_agent</td><td style="vertical-align:top;">:</td><td><div>Mozilla/5.0 (X11; Linux x86_64) AppleWebKit/537.36 (KHTML, like Gecko) Chrome/28.0.1500.95 Safari/537.36</div></td></tr><tr><td style="font-weight:bold;vertical-align:top;">is_jython</td><td style="vertical-align:top;">:</td><td><div>False</div></td></tr><tr><td style="font-weight:bold;vertical-align:top;">is_pypy</td><td style="vertical-align:top;">:</td><td><div>False</div></td></tr><tr><td style="font-weight:bold;vertical-align:top;">is_source</td><td style="vertical-align:top;">:</td><td><div>True</div></td></tr><tr><td style="font-weight:bold;vertical-align:top;">local_hosts</td><td style="vertical-align:top;">:</td><td><div><table><tr><td><div>127.0.1.1</div></td></tr><tr><td><div>::1</div></td></tr><tr><td><div>larrea-lmde</div></td></tr><tr><td><div>::ffff:127.0.0.1</div></td></tr><tr><td><div>127.0.0.1</div></td></tr></table></div></td></tr><tr><td style="font-weight:bold;vertical-align:top;">path_info</td><td style="vertical-align:top;">:</td><td><div>/SEACAT_ingresos/admin/index</div></td></tr><tr><td style="font-weight:bold;vertical-align:top;">query_string</td><td style="vertical-align:top;">:</td><td><div></div></td></tr><tr><td style="font-weight:bold;vertical-align:top;">remote_addr</td><td style="vertical-align:top;">:</td><td><div>127.0.0.1</div></td></tr><tr><td style="font-weight:bold;vertical-align:top;">remote_port</td><td style="vertical-align:top;">:</td><td><div>53976</div></td></tr><tr><td style="font-weight:bold;vertical-align:top;">request_method</td><td style="vertical-align:top;">:</td><td><div>GET</div></td></tr><tr><td style="font-weight:bold;vertical-align:top;">request_uri</td><td style="vertical-align:top;">:</td><td><div>/SEACAT_ingresos/admin/index</div></td></tr><tr><td style="font-weight:bold;vertical-align:top;">script_name</td><td style="vertical-align:top;">:</td><td><div></div></td></tr><tr><td style="font-weight:bold;vertical-align:top;">server_name</td><td style="vertical-align:top;">:</td><td><div>larrea-lmde</div></td></tr><tr><td style="font-weight:bold;vertical-align:top;">server_port</td><td style="vertical-align:top;">:</td><td><div>8000</div></td></tr><tr><td style="font-weight:bold;vertical-align:top;">server_protocol</td><td style="vertical-align:top;">:</td><td><div>HTTP/1.1</div></td></tr><tr><td style="font-weight:bold;vertical-align:top;">server_software</td><td style="vertical-align:top;">:</td><td><div>Rocket 1.2.6</div></td></tr><tr><td style="font-weight:bold;vertical-align:top;">web2py_path</td><td style="vertical-align:top;">:</td><td><div>/home/leo/Dropbox/web2py</div></td></tr><tr><td style="font-weight:bold;vertical-align:top;">web2py_version</td><td style="vertical-align:top;">:</td><td><div>2.8.2-stable+timestamp.2013.11.28.13.54.07</div></td></tr><tr><td style="font-weight:bold;vertical-align:top;">wsgi.errors</td><td style="vertical-align:top;">:</td><td><div>&lt;open file &#x27;&lt;stderr&gt;&#x27;, mode &#x27;w&#x27; at 0x7fe2536a01e0&gt;</div></td></tr><tr><td style="font-weight:bold;vertical-align:top;">wsgi.file_wrapper</td><td style="vertical-align:top;">:</td><td><div>&lt;class wsgiref.util.FileWrapper at 0x1ed1050&gt;</div></td></tr><tr><td style="font-weight:bold;vertical-align:top;">wsgi.input</td><td style="vertical-align:top;">:</td><td><div>&lt;socket._fileobject object at 0x7fe224180ad0&gt;</div></td></tr><tr><td style="font-weight:bold;vertical-align:top;">wsgi.multiprocess</td><td style="vertical-align:top;">:</td><td><div>False</div></td></tr><tr><td style="font-weight:bold;vertical-align:top;">wsgi.multithread</td><td style="vertical-align:top;">:</td><td><div>True</div></td></tr><tr><td style="font-weight:bold;vertical-align:top;">wsgi.run_once</td><td style="vertical-align:top;">:</td><td><div>False</div></td></tr><tr><td style="font-weight:bold;vertical-align:top;">wsgi.url_scheme</td><td style="vertical-align:top;">:</td><td><div>http</div></td></tr><tr><td style="font-weight:bold;vertical-align:top;">wsgi.version</td><td style="vertical-align:top;">:</td><td><div><table><tr><td><div>1</div></td></tr><tr><td><div>0</div></td></tr></table></div></td></tr><tr><td style="font-weight:bold;vertical-align:top;">wsgi_errors</td><td style="vertical-align:top;">:</td><td><div>&lt;open file &#x27;&lt;stderr&gt;&#x27;, mode &#x27;w&#x27; at 0x7fe2536a01e0&gt;</div></td></tr><tr><td style="font-weight:bold;vertical-align:top;">wsgi_file_wrapper</td><td style="vertical-align:top;">:</td><td><div>&lt;class wsgiref.util.FileWrapper at 0x1ed1050&gt;</div></td></tr><tr><td style="font-weight:bold;vertical-align:top;">wsgi_input</td><td style="vertical-align:top;">:</td><td><div>&lt;socket._fileobject object at 0x7fe224180ad0&gt;</div></td></tr><tr><td style="font-weight:bold;vertical-align:top;">wsgi_multiprocess</td><td style="vertical-align:top;">:</td><td><div>False</div></td></tr><tr><td style="font-weight:bold;vertical-align:top;">wsgi_multithread</td><td style="vertical-align:top;">:</td><td><div>True</div></td></tr><tr><td style="font-weight:bold;vertical-align:top;">wsgi_run_once</td><td style="vertical-align:top;">:</td><td><div>False</div></td></tr><tr><td style="font-weight:bold;vertical-align:top;">wsgi_url_scheme</td><td style="vertical-align:top;">:</td><td><div>http</div></td></tr><tr><td style="font-weight:bold;vertical-align:top;">wsgi_version</td><td style="vertical-align:top;">:</td><td><div><table><tr><td><div>1</div></td></tr><tr><td><div>0</div></td></tr></table></div></td></tr></table></div></td></tr><tr><td style="font-weight:bold;vertical-align:top;">extension</td><td style="vertical-align:top;">:</td><td><div>html</div></td></tr><tr><td style="font-weight:bold;vertical-align:top;">folder</td><td style="vertical-align:top;">:</td><td><div>/home/leo/Dropbox/web2py/applications/SEACAT_ingresos/</div></td></tr><tr><td style="font-weight:bold;vertical-align:top;">function</td><td style="vertical-align:top;">:</td><td><div>index</div></td></tr><tr><td style="font-weight:bold;vertical-align:top;">global_settings</td><td style="vertical-align:top;">:</td><td><div><table><tr><td style="font-weight:bold;vertical-align:top;">app_folders</td><td style="vertical-align:top;">:</td><td><div>set([&#x27;/home/leo/Dropbox/web2py/applications/SEACAT_ingresos/&#x27;, &#x27;/home/leo/Dropbox/web2py/applications/admin/&#x27;, &#x27;/home/leo/Dropbox/web2py/applications/welcome/&#x27;])</div></td></tr><tr><td style="font-weight:bold;vertical-align:top;">applications_parent</td><td style="vertical-align:top;">:</td><td><div>/home/leo/Dropbox/web2py</div></td></tr><tr><td style="font-weight:bold;vertical-align:top;">cmd_args</td><td style="vertical-align:top;">:</td><td><div><table></table></div></td></tr><tr><td style="font-weight:bold;vertical-align:top;">cmd_options</td><td style="vertical-align:top;">:</td><td><div>&lt;Values at 0x1f5b1b8: {&#x27;verbose&#x27;: False, &#x27;ip&#x27;: &#x27;127.0.0.1&#x27;, &#x27;debuglevel&#x27;: 30, &#x27;with_scheduler&#x27;: False, &#x27;ips&#x27;: [&#x27;127.0.1.1&#x27;], &#x27;shutdown_timeout&#x27;: 5, &#x27;taskbar&#x27;: False, &#x27;with_coverage&#x27;: False, &#x27;port&#x27;: 8000, &#x27;maxthreads&#x27;: None, &#x27;softcron&#x27;: False, &#x27;server_name&#x27;: &#x27;larrea-lmde&#x27;, &#x27;bpython&#x27;: False, &#x27;nogui&#x27;: False, &#x27;pid_filename&#x27;: &#x27;httpserver.pid&#x27;, &#x27;extcron&#x27;: False, &#x27;runcron&#x27;: False, &#x27;run_system_tests&#x27;: False, &#x27;test&#x27;: None, &#x27;folder&#x27;: &#x27;/home/leo/Dropbox/web2py&#x27;, &#x27;config&#x27;: &#x27;&#x27;, &#x27;minthreads&#x27;: None, &#x27;shell&#x27;: None, &#x27;run&#x27;: &#x27;&#x27;, &#x27;log_filename&#x27;: &#x27;httpserver.log&#x27;, &#x27;profiler_dir&#x27;: None, &#x27;args&#x27;: [&#x27;&#x27;], &#x27;socket_timeout&#x27;: 5, &#x27;ssl_ca_certificate&#x27;: None, &#x27;scheduler&#x27;: None, &#x27;interfaces&#x27;: None, &#x27;ssl_private_key&#x27;: &#x27;&#x27;, &#x27;scheduler_groups&#x27;: None, &#x27;password&#x27;: &#x27;&lt;ask&gt;&#x27;, &#x27;request_queue_size&#x27;: 5, &#x27;ssl_certificate&#x27;: &#x27;&#x27;, &#x27;cronjob&#x27;: False, &#x27;numthreads&#x27;: None, &#x27;quiet&#x27;: False, &#x27;import_models&#x27;: False, &#x27;timeout&#x27;: 10, &#x27;plain&#x27;: False, &#x27;nobanner&#x27;: False}&gt;</div></td></tr><tr><td style="font-weight:bold;vertical-align:top;">db_sessions</td><td style="vertical-align:top;">:</td><td><div>set([])</div></td></tr><tr><td style="font-weight:bold;vertical-align:top;">debugging</td><td style="vertical-align:top;">:</td><td><div>True</div></td></tr><tr><td style="font-weight:bold;vertical-align:top;">gluon_parent</td><td style="vertical-align:top;">:</td><td><div>/home/leo/Dropbox/web2py</div></td></tr><tr><td style="font-weight:bold;vertical-align:top;">is_jython</td><td style="vertical-align:top;">:</td><td><div>False</div></td></tr><tr><td style="font-weight:bold;vertical-align:top;">is_pypy</td><td style="vertical-align:top;">:</td><td><div>False</div></td></tr><tr><td style="font-weight:bold;vertical-align:top;">is_source</td><td style="vertical-align:top;">:</td><td><div>True</div></td></tr><tr><td style="font-weight:bold;vertical-align:top;">local_hosts</td><td style="vertical-align:top;">:</td><td><div><table><tr><td><div>127.0.1.1</div></td></tr><tr><td><div>::1</div></td></tr><tr><td><div>larrea-lmde</div></td></tr><tr><td><div>::ffff:127.0.0.1</div></td></tr><tr><td><div>127.0.0.1</div></td></tr></table></div></td></tr><tr><td style="font-weight:bold;vertical-align:top;">web2py_version</td><td style="vertical-align:top;">:</td><td><div>2.8.2-stable+timestamp.2013.11.28.13.54.07</div></td></tr></table></div></td></tr><tr><td style="font-weight:bold;vertical-align:top;">is_https</td><td style="vertical-align:top;">:</td><td><div>False</div></td></tr><tr><td style="font-weight:bold;vertical-align:top;">is_local</td><td style="vertical-align:top;">:</td><td><div>True</div></td></tr><tr><td style="font-weight:bold;vertical-align:top;">is_restful</td><td style="vertical-align:top;">:</td><td><div>False</div></td></tr><tr><td style="font-weight:bold;vertical-align:top;">now</td><td style="vertical-align:top;">:</td><td><div>datetime.datetime(2014, 1, 21, 20, 37, 57, 552852)</div></td></tr><tr><td style="font-weight:bold;vertical-align:top;">raw_args</td><td style="vertical-align:top;">:</td><td><div></div></td></tr><tr><td style="font-weight:bold;vertical-align:top;">raw_extension</td><td style="vertical-align:top;">:</td><td><div>None</div></td></tr><tr><td style="font-weight:bold;vertical-align:top;">url</td><td style="vertical-align:top;">:</td><td><div>/SEACAT_ingresos/admin/index</div></td></tr><tr><td style="font-weight:bold;vertical-align:top;">utcnow</td><td style="vertical-align:top;">:</td><td><div>datetime.datetime(2014, 1, 21, 23, 37, 57, 552882)</div></td></tr><tr><td style="font-weight:bold;vertical-align:top;">uuid</td><td style="vertical-align:top;">:</td><td><div>SEACAT_ingresos/127.0.0.1.2014-01-21.20-37-57.8f040739-9299-48f9-84ca-6e8e1af38b8e</div></td></tr><tr><td style="font-weight:bold;vertical-align:top;">wsgi</td><td style="vertical-align:top;">:</td><td><div>&lt;gluon.main.LazyWSGI object at 0x7fe2446760d0&gt;</div></td></tr></table></div>'
tRp62
sS'frames'
p63
(lp64
(dp65
S'file'
p66
S'/home/leo/Dropbox/web2py/gluon/restricted.py'
p67
sS'dump'
p68
(dp69
S'environment'
p70
S"{'A': <class 'gluon.html.A'>, 'ANY_OF': <class 'gluon.validators.ANY_OF'>, 'Auth': <class 'gluon.tools.Auth'>, 'B': <class 'gluon.html.B'>, 'BEAUTIFY': <class 'gluon.html.BEAUTIFY'>, 'BODY': <class 'gluon.html.BODY'>, 'BR': <class 'gluon.html.BR'>, 'BUTTON': <class 'gluon.html.BUTTON'>, 'CAT': <class 'gluon.html.CAT'>, 'CENTER': <class 'gluon.html.CENTER'>, ...}"
p71
sS'ccode'
p72
S'<code object <module> at 0x7fe2446799b0, file "/...ns/SEACAT_ingresos/controllers/admin.py", line 3>'
p73
ssS'lnum'
p74
I217
sS'lines'
p75
(dp76
I212
S'    try:'
p77
sI213
S'        if isinstance(code, types.CodeType):'
p78
sI214
S'            ccode = code'
p79
sI215
S'        else:'
p80
sI216
S'            ccode = compile2(code, layer)'
p81
sI217
S'        exec ccode in environment'
p82
sI218
S'    except HTTP:'
p83
sI219
S'        raise'
p84
sI220
S'    except RestrictedError:'
p85
sI221
S'        # do not encapsulate (obfuscate) the original RestrictedError'
p86
ssS'call'
p87
S"(code='# coding: utf8\\n# intente algo como\\ndef index():\\n...id=grid)\\n\\nresponse._vars=response._caller(index)\\n', environment={'A': <class 'gluon.html.A'>, 'ANY_OF': <class 'gluon.validators.ANY_OF'>, 'Auth': <class 'gluon.tools.Auth'>, 'B': <class 'gluon.html.B'>, 'BEAUTIFY': <class 'gluon.html.BEAUTIFY'>, 'BODY': <class 'gluon.html.BODY'>, 'BR': <class 'gluon.html.BR'>, 'BUTTON': <class 'gluon.html.BUTTON'>, 'CAT': <class 'gluon.html.CAT'>, 'CENTER': <class 'gluon.html.CENTER'>, ...}, layer='/home/leo/Dropbox/web2py/applications/SEACAT_ingresos/controllers/admin.py')"
p88
sS'func'
p89
S'restricted'
p90
sa(dp91
g66
S'/home/leo/Dropbox/web2py/applications/SEACAT_ingresos/controllers/admin.py'
p92
sg68
(dp93
sg74
I150
sg75
(dp94
I139
S"                                        'auth_user.created_on': 20,"
p95
sI140
S"                                        'auth_user.last_login': 20},"
p96
sI141
S'                        create=False,'
p97
sI142
S'                        deletable=False,'
p98
sI143
S'                        details=False,'
p99
sI144
S'                        editable=False,'
p100
sI145
S'                        searchable=False,'
p101
sI146
S'                        csv=False,'
p102
sI147
S'                        paginate=50)'
p103
sI148
S'    return dict(form=form, grid=grid)'
p104
ssg87
S'()'
p105
sg89
S'<module>'
p106
sa(dp107
g66
S'/home/leo/Dropbox/web2py/gluon/globals.py'
p108
sg68
(dp109
S'self'
p110
S'undefined'
p111
sS'f'
S'<function index>'
p112
ssg74
I372
sg75
(dp113
I367
S'        self.menu = []             # used by the default view layout'
p114
sI368
S'        self.files = []            # used by web2py_ajax.html'
p115
sI369
S'        self.generic_patterns = []  # patterns to allow generic views'
p116
sI370
S"        self.delimiters = ('{{', '}}')"
p117
sI371
S'        self._vars = None'
p118
sI372
S'        self._caller = lambda f: f()'
p119
sI373
S'        self._view_environment = None'
p120
sI374
S'        self._custom_commit = None'
p121
sI375
S'        self._custom_rollback = None'
p122
sI376
S''
ssg87
S'(f=<function index>)'
p123
sg89
S'<lambda>'
p124
sa(dp125
g66
S'/home/leo/Dropbox/web2py/applications/SEACAT_ingresos/controllers/admin.py'
p126
sg68
(dp127
S'global db'
p128
S'<DAL uri="postgres:******@wspio1.pioix.edu.ar/seacat">'
p129
sS'db.auth_user'
p130
S'<Table auth_user (id,first_name,last_name,email,...bs,is_active,created_by,modified_on,modified_by)>'
p131
sS'db.auth_user.truncate'
p132
S'<bound method Table.truncate of <Table auth_user...s,is_active,created_by,modified_on,modified_by)>>'
p133
ssg74
I5
sg75
(dp134
I2
S'# intente algo como'
p135
sI3
S'def index():'
p136
sI4
S'    if db.auth_user:'
p137
sI5
S'        db.auth_user.truncate()'
p138
sI6
S"        db.auth_user.insert(email='root', password='root')"
p139
sI7
S'        ## Adding Groups in FIRST_DEPLOYMENT:'
p140
sI8
S"        db.auth_group.insert(role='root', description='Superadministrador')"
p141
sI9
S"        db.auth_group.insert(role='empleado', description='Empleado de la Casa')"
p142
sI10
S"        db.auth_group.insert(role='soporte', description='Soporte T\xc3\xa9cnico')"
p143
sI11
S"        db.auth_group.insert(role='directivo', description='Directivo')"
p144
ssg87
S'()'
p145
sg89
S'index'
p146
sa(dp147
g66
S'/home/leo/Dropbox/web2py/gluon/dal.py'
p148
sg68
(dp149
S'self._db._adapter'
p150
S'<gluon.dal.PostgreSQLAdapter object>'
p151
sS'self'
p152
S'<Table auth_user (id,first_name,last_name,email,...bs,is_active,created_by,modified_on,modified_by)>'
p153
sS'mode'
p154
S'None'
p155
sS'self._db'
p156
S'<DAL uri="postgres:******@wspio1.pioix.edu.ar/seacat">'
p157
sS'self._db._adapter.truncate'
p158
S'<bound method PostgreSQLAdapter.truncate of <gluon.dal.PostgreSQLAdapter object>>'
p159
ssg74
I9079
sg75
(dp160
I9074
S''
sI9075
S'    def _truncate(self, mode = None):'
p161
sI9076
S'        return self._db._adapter._truncate(self, mode)'
p162
sI9077
S''
sI9078
S'    def truncate(self, mode = None):'
p163
sI9079
S'        return self._db._adapter.truncate(self, mode)'
p164
sI9080
S''
sI9081
S'    def import_from_csv_file('
p165
sI9082
S'        self,'
p166
sI9083
S'        csvfile,'
p167
ssg87
S'(self=<Table auth_user (id,first_name,last_name,email,...bs,is_active,created_by,modified_on,modified_by)>, mode=None)'
p168
sg89
S'truncate'
p169
sa(dp170
g66
S'/home/leo/Dropbox/web2py/gluon/dal.py'
p171
sg68
(dp172
S'query'
p173
S"'TRUNCATE TABLE auth_user ;'"
p174
sS'self'
p175
S'<gluon.dal.PostgreSQLAdapter object>'
p176
sS'self.execute'
p177
S'<bound method PostgreSQLAdapter.execute of <gluon.dal.PostgreSQLAdapter object>>'
p178
ssg74
I1544
sg75
(dp179
I1539
S'        # Prepare functions "write_to_logfile" and "close_logfile"'
p180
sI1540
S'        try:'
p181
sI1541
S'            queries = table._db._adapter._truncate(table, mode)'
p182
sI1542
S'            for query in queries:'
p183
sI1543
S"                self.log(query + '\\n', table)"
p184
sI1544
S'                self.execute(query)'
p185
sI1545
S"            self.log('success!\\n', table)"
p186
sI1546
S'        finally:'
p187
sI1547
S'            pass'
p188
sI1548
S''
ssg87
S'(self=<gluon.dal.PostgreSQLAdapter object>, table=<Table auth_user (id,first_name,last_name,email,...bs,is_active,created_by,modified_on,modified_by)>, mode=None)'
p189
sg89
g169
sa(dp190
g66
S'/home/leo/Dropbox/web2py/gluon/dal.py'
p191
sg68
(dp192
S'a'
S"('TRUNCATE TABLE auth_user ;',)"
p193
sS'self'
p194
S'<gluon.dal.PostgreSQLAdapter object>'
p195
sS'b'
g21
sS'self.log_execute'
p196
S'<bound method PostgreSQLAdapter.log_execute of <gluon.dal.PostgreSQLAdapter object>>'
p197
ssg74
I1916
sg75
(dp198
I1920
S'        if isinstance(obj, CALLABLETYPES):'
p199
sI1911
S'        self.db._timings.append((command,time.time()-t0))'
p200
sI1912
S'        del self.db._timings[:-TIMINGSSIZE]'
p201
sI1913
S'        return ret'
p202
sI1914
S''
sI1915
S'    def execute(self, *a, **b):'
p203
sI1916
S'        return self.log_execute(*a, **b)'
p204
sI1917
S''
sI1918
S'    def represent(self, obj, fieldtype):'
p205
sI1919
S'        field_is_type = fieldtype.startswith'
p206
ssg87
S"(self=<gluon.dal.PostgreSQLAdapter object>, *a=('TRUNCATE TABLE auth_user ;',), **b={})"
p207
sg89
S'execute'
p208
sa(dp209
g66
S'/home/leo/Dropbox/web2py/gluon/dal.py'
p210
sg68
(dp211
S'a'
S"('TRUNCATE TABLE auth_user ;',)"
p212
sS'b'
g21
sS'self'
p213
S'<gluon.dal.PostgreSQLAdapter object>'
p214
sS'ret'
p215
g111
sS'self.cursor'
p216
S'<gluon.contrib.pg8000.dbapi.CursorWrapper object>'
p217
sS'command'
p218
S"'TRUNCATE TABLE auth_user ;'"
p219
sS'self.cursor.execute'
p220
S'<bound method CursorWrapper._fn of <gluon.contrib.pg8000.dbapi.CursorWrapper object>>'
p221
ssg74
I1910
sg75
(dp222
I1905
S'            command = self.filter_sql_command(command)'
p223
sI1906
S'        if self.db._debug:'
p224
sI1907
S"            LOGGER.debug('SQL: %s' % command)"
p225
sI1908
S'        self.db._lastsql = command'
p226
sI1909
S'        t0 = time.time()'
p227
sI1910
S'        ret = self.cursor.execute(command, *a[1:], **b)'
p228
sI1911
S'        self.db._timings.append((command,time.time()-t0))'
p229
sI1912
S'        del self.db._timings[:-TIMINGSSIZE]'
p230
sI1913
S'        return ret'
p231
sI1914
S''
ssg87
S"(self=<gluon.dal.PostgreSQLAdapter object>, *a=('TRUNCATE TABLE auth_user ;',), **b={})"
p232
sg89
S'log_execute'
p233
sa(dp234
g66
S'/home/leo/Dropbox/web2py/gluon/contrib/pg8000/dbapi.py'
p235
sg68
(dp236
S'self'
p237
S'<gluon.contrib.pg8000.dbapi.CursorWrapper object>'
p238
sS'args'
p239
S"('TRUNCATE TABLE auth_user ;',)"
p240
sS'fn'
p241
S'<function execute>'
p242
sS'kwargs'
p243
g21
ssg74
I246
sg75
(dp244
I241
S''
sI242
S'def require_open_cursor(fn):'
p245
sI243
S'    def _fn(self, *args, **kwargs):'
p246
sI244
S'        if self.cursor == None:'
p247
sI245
S'            raise CursorClosedError()'
p248
sI246
S'        return fn(self, *args, **kwargs)'
p249
sI247
S'    return _fn'
p250
sI248
S''
sI249
S'##'
p251
sI250
S'# The class of object returned by the {@link #ConnectionWrapper.cursor cursor method}.'
p252
ssg87
S"(self=<gluon.contrib.pg8000.dbapi.CursorWrapper object>, *args=('TRUNCATE TABLE auth_user ;',), **kwargs={})"
p253
sg89
S'_fn'
p254
sa(dp255
g66
S'/home/leo/Dropbox/web2py/gluon/contrib/pg8000/dbapi.py'
p256
sg68
(dp257
S'self._execute'
p258
S'<bound method CursorWrapper._execute of <gluon.contrib.pg8000.dbapi.CursorWrapper object>>'
p259
sS'self'
p260
S'<gluon.contrib.pg8000.dbapi.CursorWrapper object>'
p261
sS'args'
p262
S'()'
p263
sS'operation'
p264
S"'TRUNCATE TABLE auth_user ;'"
p265
ssg74
I317
sg75
(dp266
I320
S'        new_query, new_args = convert_paramstyle(paramstyle, operation, args)'
p267
sI321
S'        try:'
p268
sI312
S'    @require_open_cursor'
p269
sI313
S'    def execute(self, operation, args=()):'
p270
sI314
S'        if not self._connection.in_transaction:'
p271
sI315
S'            self._connection.begin()'
p272
sI316
S'        self._override_rowcount = None'
p273
sI317
S'        self._execute(operation, args)'
p274
sI318
S''
sI319
S'    def _execute(self, operation, args=()):'
p275
ssg87
S"(self=<gluon.contrib.pg8000.dbapi.CursorWrapper object>, operation='TRUNCATE TABLE auth_user ;', args=())"
p276
sg89
g208
sa(dp277
g66
S'/home/leo/Dropbox/web2py/gluon/contrib/pg8000/dbapi.py'
p278
sg68
(dp279
S'new_args'
p280
S'()'
p281
sS'self.cursor'
p282
S'<gluon.contrib.pg8000.interface.Cursor object>'
p283
sS'self'
p284
S'<gluon.contrib.pg8000.dbapi.CursorWrapper object>'
p285
sS'new_query'
p286
S"'TRUNCATE TABLE auth_user ;'"
p287
sS'self.cursor.execute'
p288
S'<bound method Cursor.execute of <gluon.contrib.pg8000.interface.Cursor object>>'
p289
ssg74
I322
sg75
(dp290
I320
S'        new_query, new_args = convert_paramstyle(paramstyle, operation, args)'
p291
sI321
S'        try:'
p292
sI322
S'            self.cursor.execute(new_query, *new_args)'
p293
sI323
S'        except ConnectionClosedError:'
p294
sI324
S"            # can't rollback in this case"
p295
sI325
S'            raise'
p296
sI326
S'        except:'
p297
sI317
S'        self._execute(operation, args)'
p298
sI318
S''
sI319
S'    def _execute(self, operation, args=()):'
p299
ssg87
S"(self=<gluon.contrib.pg8000.dbapi.CursorWrapper object>, operation='TRUNCATE TABLE auth_user ;', args=())"
p300
sg89
S'_execute'
p301
sa(dp302
g66
S'/home/leo/Dropbox/web2py/gluon/contrib/pg8000/interface.py'
p303
sg68
(dp304
S'self._stmt.execute'
p305
S'<bound method PreparedStatement.execute of <gluo...ntrib.pg8000.interface.PreparedStatement object>>'
p306
sS'kwargs'
p307
g21
sS'self'
p308
S'<gluon.contrib.pg8000.interface.Cursor object>'
p309
sS'args'
p310
S'()'
p311
sS'self._stmt'
p312
S'<gluon.contrib.pg8000.interface.PreparedStatement object>'
p313
ssg74
I399
sg75
(dp314
I394
S'                ## print "SimpleQuery:", query'
p315
sI395
S'                self._stmt = SimpleStatement(self.connection, query)'
p316
sI396
S'            else:'
p317
sI397
S'                # use PostgreSQL Extended Query Protocol'
p318
sI398
S'                self._stmt = PreparedStatement(self.connection, query, statement_name="", *[{"type": type(x), "value": x} for x in args])'
p319
sI399
S'            self._stmt.execute(*args, **kwargs)'
p320
sI400
S'        finally:'
p321
sI401
S'            self.connection._unnamed_prepared_statement_lock.release()'
p322
sI402
S''
sI403
S'    ##'
p323
ssg87
S"(self=<gluon.contrib.pg8000.interface.Cursor object>, query='TRUNCATE TABLE auth_user ;', *args=(), **kwargs={})"
p324
sg89
g208
sa(dp325
g66
S'/home/leo/Dropbox/web2py/gluon/contrib/pg8000/interface.py'
p326
sg68
(dp327
S'kwargs.get'
p328
S'<built-in method get of dict object>'
p329
sS'args'
p330
S'()'
p331
sS'self.c'
p332
S'<gluon.contrib.pg8000.protocol.Connection object>'
p333
sS'self'
p334
S'<gluon.contrib.pg8000.interface.PreparedStatement object>'
p335
sS'cmd'
p336
g111
sS'self._row_desc'
p337
S'None'
p338
sS'self.c.bind'
p339
S'<bound method Connection._fn of <gluon.contrib.pg8000.protocol.Connection object>>'
p340
sS'self._statement_name'
p341
S"''"
p342
sS'self._parse_row_desc'
p343
S'(None, [])'
p344
sS'kwargs'
p345
g21
sS'self._portal_name'
p346
S"'pg8000_portal_618'"
p347
ssg74
I169
sg75
(dp348
I164
S'                self._ongoing_row_count = 0'
p349
sI165
S'            if self._portal_name != None:'
p350
sI166
S'                self.c.close_portal(self._portal_name)'
p351
sI167
S'            self._command_complete = False'
p352
sI168
S'            self._portal_name = "pg8000_portal_%s" % self._statement_number'
p353
sI169
S'            self._row_desc, cmd = self.c.bind(self._portal_name, self._statement_name, args, self._parse_row_desc, kwargs.get("stream"))'
p354
sI170
S'            if self._row_desc:'
p355
sI171
S'                # We execute our cursor right away to fill up our cache.  This'
p356
sI172
S'                # prevents the cursor from being destroyed, apparently, by a rogue'
p357
sI173
S'                # Sync between Bind and Execute.  Since it is quite likely that'
p358
ssg87
S'(self=<gluon.contrib.pg8000.interface.PreparedStatement object>, *args=(), **kwargs={})'
p359
sg89
g208
sa(dp360
g66
S'/home/leo/Dropbox/web2py/gluon/contrib/pg8000/protocol.py'
p361
sg68
(dp362
S'self'
p363
S'<gluon.contrib.pg8000.protocol.Connection object>'
p364
sS'args'
p365
S"('pg8000_portal_618', '', (), (None, []), None)"
p366
sS'fn'
p367
S'<function bind>'
p368
sS'kwargs'
p369
g21
ssg74
I943
sg75
(dp370
I938
S''
sI939
S'def sync_on_error(fn):'
p371
sI940
S'    def _fn(self, *args, **kwargs):'
p372
sI941
S'        try:'
p373
sI942
S'            self._sock_lock.acquire()'
p374
sI943
S'            return fn(self, *args, **kwargs)'
p375
sI944
S'        except:'
p376
sI945
S'            self._sync()'
p377
sI946
S'            raise'
p378
sI947
S'        finally:'
p379
ssg87
S"(self=<gluon.contrib.pg8000.protocol.Connection object>, *args=('pg8000_portal_618', '', (), (None, []), None), **kwargs={})"
p380
sg89
g254
sa(dp381
g66
S'/home/leo/Dropbox/web2py/gluon/contrib/pg8000/protocol.py'
p382
sg68
(dp383
S'reader.handle_messages'
p384
S'<bound method MessageReader.handle_messages of <gluon.contrib.pg8000.protocol.MessageReader object>>'
p385
sS'reader'
p386
S'<gluon.contrib.pg8000.protocol.MessageReader object>'
p387
ssg74
I1142
sg75
(dp388
I1137
S''
sI1138
S'        # Return the new row desc, since it will have the format types we'
p389
sI1139
S'        # asked the server for'
p390
sI1140
S'        reader.add_message(RowDescription, lambda msg: (msg, None))'
p391
sI1141
S''
sI1142
S'        return reader.handle_messages()'
p392
sI1143
S''
sI1144
S'    def _copy_in_response(self, copyin, fileobj, old_reader):'
p393
sI1145
S'        if fileobj == None:'
p394
sI1146
S'            raise CopyQueryWithoutStreamError()'
p395
ssg87
S"(self=<gluon.contrib.pg8000.protocol.Connection object>, portal='pg8000_portal_618', statement='', params=(), parse_data=(None, []), copy_stream=None)"
p396
sg89
S'bind'
p397
sa(dp398
g66
S'/home/leo/Dropbox/web2py/gluon/contrib/pg8000/protocol.py'
p399
sg68
(dp400
S'msg'
p401
S'<gluon.contrib.pg8000.protocol.NoData object>'
p402
sS'handler'
p403
S'<bound method Connection._bind_nodata of <gluon.contrib.pg8000.protocol.Connection object>>'
p404
sS'retval'
p405
S'0'
sS'args'
p406
S"('pg8000_portal_618', <gluon.contrib.pg8000.protocol.MessageReader object>, None)"
p407
sS'kwargs'
p408
g21
ssg74
I911
sg75
(dp409
I906
S'            msg = self._conn._read_message()'
p410
sI907
S'            msg_handled = False'
p411
sI908
S'            for (msg_class, handler, args, kwargs) in self._msgs:'
p412
sI909
S'                if isinstance(msg, msg_class):'
p413
sI910
S'                    msg_handled = True'
p414
sI911
S'                    retval = handler(msg, *args, **kwargs)'
p415
sI912
S'                    if retval:'
p416
sI913
S'                        # The handler returned a true value, meaning that the'
p417
sI914
S'                        # message loop should be aborted.'
p418
sI915
S'                        if exc != None:'
p419
ssg87
S'(self=<gluon.contrib.pg8000.protocol.MessageReader object>)'
p420
sg89
S'handle_messages'
p421
sa(dp422
g66
S'/home/leo/Dropbox/web2py/gluon/contrib/pg8000/protocol.py'
p423
sg68
(dp424
S'reader.handle_messages'
p425
S'<bound method MessageReader.handle_messages of <gluon.contrib.pg8000.protocol.MessageReader object>>'
p426
sS'reader'
p427
S'<gluon.contrib.pg8000.protocol.MessageReader object>'
p428
ssg74
I1181
sg75
(dp429
I1184
S''
sI1185
S'    @sync_on_error'
p430
sI1176
S'        reader.add_message(CopyOutResponse, self._copy_out_response, copy_stream, reader)'
p431
sI1177
S'        reader.add_message(CopyInResponse, self._copy_in_response, copy_stream, reader)'
p432
sI1178
S"        reader.add_message(CommandComplete, lambda msg, out: out.setdefault('msg', msg) and False, output)"
p433
sI1179
S'        reader.add_message(ReadyForQuery, lambda msg: 1)'
p434
sI1180
S'        reader.delay_raising_exception = True'
p435
sI1181
S'        reader.handle_messages()'
p436
sI1182
S''
sI1183
S"        old_reader.return_value((None, output['msg']))"
p437
ssg87
S"(self=<gluon.contrib.pg8000.protocol.Connection object>, msg=<gluon.contrib.pg8000.protocol.NoData object>, portal='pg8000_portal_618', old_reader=<gluon.contrib.pg8000.protocol.MessageReader object>, copy_stream=None)"
p438
sg89
S'_bind_nodata'
p439
sa(dp440
g66
S'/home/leo/Dropbox/web2py/gluon/contrib/pg8000/protocol.py'
p441
sg68
(dp442
S'exc'
p443
S"ProgrammingError('ERROR', '0A000', 'no se puede ... una tabla referida en una llave for\\xc3\\xa1nea')"
p444
ssg74
I916
sg75
(dp445
I911
S'                    retval = handler(msg, *args, **kwargs)'
p446
sI912
S'                    if retval:'
p447
sI913
S'                        # The handler returned a true value, meaning that the'
p448
sI914
S'                        # message loop should be aborted.'
p449
sI915
S'                        if exc != None:'
p450
sI916
S'                            raise exc'
p451
sI917
S'                        return retval'
p452
sI918
S'                    elif hasattr(self, "_retval"):'
p453
sI919
S'                        # The handler told us to return -- used for non-true'
p454
sI920
S'                        # return values'
p455
ssg87
S'(self=<gluon.contrib.pg8000.protocol.MessageReader object>)'
p456
sg89
g421
sasS'pyver'
p457
S'Python 2.7.5+: /usr/bin/python (prefix: /usr)'
p458
sS'session'
p459
g61
(S's\xb8\x01\x00\x00<div><table><tr><td style="font-weight:bold;vertical-align:top;">flash</td><td style="vertical-align:top;">:</td><td><div></div></td></tr><tr><td style="font-weight:bold;vertical-align:top;">last_orderby</td><td style="vertical-align:top;">:</td><td><div>None</div></td></tr><tr><td style="font-weight:bold;vertical-align:top;">last_query</td><td style="vertical-align:top;">:</td><td><div>db.auth_user.id&gt;0</div></td></tr></table></div>'
tRp460
sS'etype'
p461
S"<class 'gluon.contrib.pg8000.errors.ProgrammingError'>"
p462
sS'date'
p463
S'Tue Jan 21 20:37:58 2014'
p464
sS'response'
p465
g61
(S's\xa7\x1f\x00\x00<div><table><tr><td style="font-weight:bold;vertical-align:top;">body</td><td style="vertical-align:top;">:</td><td><div>&lt;cStringIO.StringO object at 0x7fe22417d0a0&gt;</div></td></tr><tr><td style="font-weight:bold;vertical-align:top;">cookies</td><td style="vertical-align:top;">:</td><td><div><table><tr><td style="font-weight:bold;vertical-align:top;">session_id_seacat_ingresos</td><td style="vertical-align:top;">:</td><td><div>127.0.0.1-a2589693-9f4a-40df-9f14-2fe733002bfd<table><tr><td style="font-weight:bold;vertical-align:top;">comment</td><td style="vertical-align:top;">:</td><td><div></div></td></tr><tr><td style="font-weight:bold;vertical-align:top;">domain</td><td style="vertical-align:top;">:</td><td><div></div></td></tr><tr><td style="font-weight:bold;vertical-align:top;">expires</td><td style="vertical-align:top;">:</td><td><div></div></td></tr><tr><td style="font-weight:bold;vertical-align:top;">httponly</td><td style="vertical-align:top;">:</td><td><div></div></td></tr><tr><td style="font-weight:bold;vertical-align:top;">max-age</td><td style="vertical-align:top;">:</td><td><div></div></td></tr><tr><td style="font-weight:bold;vertical-align:top;">path</td><td style="vertical-align:top;">:</td><td><div>/</div></td></tr><tr><td style="font-weight:bold;vertical-align:top;">secure</td><td style="vertical-align:top;">:</td><td><div></div></td></tr><tr><td style="font-weight:bold;vertical-align:top;">version</td><td style="vertical-align:top;">:</td><td><div></div></td></tr></table></div></td></tr></table></div></td></tr><tr><td style="font-weight:bold;vertical-align:top;">delimiters</td><td style="vertical-align:top;">:</td><td><div><table><tr><td><div>{{</div></td></tr><tr><td><div>}}</div></td></tr></table></div></td></tr><tr><td style="font-weight:bold;vertical-align:top;">files</td><td style="vertical-align:top;">:</td><td><div><table></table></div></td></tr><tr><td style="font-weight:bold;vertical-align:top;">flash</td><td style="vertical-align:top;">:</td><td><div></div></td></tr><tr><td style="font-weight:bold;vertical-align:top;">generic_patterns</td><td style="vertical-align:top;">:</td><td><div><table><tr><td><div>*</div></td></tr></table></div></td></tr><tr><td style="font-weight:bold;vertical-align:top;">google_analytics_id</td><td style="vertical-align:top;">:</td><td><div>None</div></td></tr><tr><td style="font-weight:bold;vertical-align:top;">headers</td><td style="vertical-align:top;">:</td><td><div><table><tr><td style="font-weight:bold;vertical-align:top;">X-Powered-By</td><td style="vertical-align:top;">:</td><td><div>web2py</div></td></tr></table></div></td></tr><tr><td style="font-weight:bold;vertical-align:top;">logo</td><td style="vertical-align:top;">:</td><td><div><a class="brand" data-w2p_disable_with="default" href="/SEACAT_ingresos/default/index"><img alt="Logo de SEACAT" src="/SEACAT_ingresos/static/Logo_seacat_mini.png" /></a></div></td></tr><tr><td style="font-weight:bold;vertical-align:top;">menu</td><td style="vertical-align:top;">:</td><td><div><table><tr><td><div><table><tr><td><div>P\xc3\xa1gina Principal</div></td></tr><tr><td><div>False</div></td></tr><tr><td><div>/SEACAT_ingresos/default/index</div></td></tr><tr><td><div><table></table></div></td></tr></table></div></td></tr><tr><td><div><table><tr><td><div>Nuevo</div></td></tr><tr><td><div>False</div></td></tr><tr><td><div>None</div></td></tr><tr><td><div><table></table></div></td></tr></table></div></td></tr><tr><td><div><table><tr><td><div>Vista</div></td></tr><tr><td><div>False</div></td></tr><tr><td><div>None</div></td></tr><tr><td><div><table></table></div></td></tr></table></div></td></tr><tr><td><div><table><tr><td><div>Ayuda</div></td></tr><tr><td><div>False</div></td></tr><tr><td><div>/SEACAT_ingresos/default/help</div></td></tr><tr><td><div><table></table></div></td></tr></table></div></td></tr></table></div></td></tr><tr><td style="font-weight:bold;vertical-align:top;">meta</td><td style="vertical-align:top;">:</td><td><div><table><tr><td style="font-weight:bold;vertical-align:top;">author</td><td style="vertical-align:top;">:</td><td><div>Leandro E. Colombo Vi\xc3\xb1a &lt;colomboleandro@pioix.edu.ar&gt;</div></td></tr><tr><td style="font-weight:bold;vertical-align:top;">description</td><td style="vertical-align:top;">:</td><td><div>Sistema de Inscripciones para el Colegio P\xc3\xado IX</div></td></tr><tr><td style="font-weight:bold;vertical-align:top;">generator</td><td style="vertical-align:top;">:</td><td><div>Web2py Web Framework</div></td></tr><tr><td style="font-weight:bold;vertical-align:top;">keywords</td><td style="vertical-align:top;">:</td><td><div>Inscripciones, P\xc3\xado IX, Ingresantes, SEACAT</div></td></tr></table></div></td></tr><tr><td style="font-weight:bold;vertical-align:top;">models_to_run</td><td style="vertical-align:top;">:</td><td><div><table><tr><td><div>^\\w+\\.py$</div></td></tr><tr><td><div>^admin/\\w+\\.py$</div></td></tr><tr><td><div>^admin/index/\\w+\\.py$</div></td></tr></table></div></td></tr><tr><td style="font-weight:bold;vertical-align:top;">postprocessing</td><td style="vertical-align:top;">:</td><td><div><table></table></div></td></tr><tr><td style="font-weight:bold;vertical-align:top;">session_client</td><td style="vertical-align:top;">:</td><td><div>127.0.0.1</div></td></tr><tr><td style="font-weight:bold;vertical-align:top;">session_cookie_compression_level</td><td style="vertical-align:top;">:</td><td><div>None</div></td></tr><tr><td style="font-weight:bold;vertical-align:top;">session_cookie_expires</td><td style="vertical-align:top;">:</td><td><div>None</div></td></tr><tr><td style="font-weight:bold;vertical-align:top;">session_cookie_key</td><td style="vertical-align:top;">:</td><td><div>None</div></td></tr><tr><td style="font-weight:bold;vertical-align:top;">session_data_name</td><td style="vertical-align:top;">:</td><td><div>session_data_seacat_ingresos</div></td></tr><tr><td style="font-weight:bold;vertical-align:top;">session_file</td><td style="vertical-align:top;">:</td><td><div>&lt;open file &#x27;/home/leo/Dropbox/web2py/applications/SEACAT_ingresos/sessions/127.0.0.1-a2589693-9f4a-40df-9f14-2fe733002bfd&#x27;, mode &#x27;rb+&#x27; at 0x7fe2449541e0&gt;</div></td></tr><tr><td style="font-weight:bold;vertical-align:top;">session_filename</td><td style="vertical-align:top;">:</td><td><div>/home/leo/Dropbox/web2py/applications/SEACAT_ingresos/sessions/127.0.0.1-a2589693-9f4a-40df-9f14-2fe733002bfd</div></td></tr><tr><td style="font-weight:bold;vertical-align:top;">session_hash</td><td style="vertical-align:top;">:</td><td><div>37c46d00e0b862d8736df70881350420</div></td></tr><tr><td style="font-weight:bold;vertical-align:top;">session_id</td><td style="vertical-align:top;">:</td><td><div>127.0.0.1-a2589693-9f4a-40df-9f14-2fe733002bfd</div></td></tr><tr><td style="font-weight:bold;vertical-align:top;">session_id_name</td><td style="vertical-align:top;">:</td><td><div>session_id_seacat_ingresos</div></td></tr><tr><td style="font-weight:bold;vertical-align:top;">session_locked</td><td style="vertical-align:top;">:</td><td><div>True</div></td></tr><tr><td style="font-weight:bold;vertical-align:top;">session_masterapp</td><td style="vertical-align:top;">:</td><td><div>SEACAT_ingresos</div></td></tr><tr><td style="font-weight:bold;vertical-align:top;">session_new</td><td style="vertical-align:top;">:</td><td><div>False</div></td></tr><tr><td style="font-weight:bold;vertical-align:top;">session_storage_type</td><td style="vertical-align:top;">:</td><td><div>file</div></td></tr><tr><td style="font-weight:bold;vertical-align:top;">status</td><td style="vertical-align:top;">:</td><td><div>200</div></td></tr><tr><td style="font-weight:bold;vertical-align:top;">subtitle</td><td style="vertical-align:top;">:</td><td><div>v.0.0.1b</div></td></tr><tr><td style="font-weight:bold;vertical-align:top;">title</td><td style="vertical-align:top;">:</td><td><div>SEACAT</div></td></tr><tr><td style="font-weight:bold;vertical-align:top;">view</td><td style="vertical-align:top;">:</td><td><div>admin/index.html</div></td></tr></table></div>'
tRp466
sS'locals'
p467
(dp468
S'exc'
p469
S"ProgrammingError('ERROR', '0A000', 'no se puede ... una tabla referida en una llave for\\xc3\\xa1nea')"
p470
sS'msg_class'
p471
S"<class 'gluon.contrib.pg8000.protocol.ReadyForQuery'>"
p472
sS'self'
p473
S'<gluon.contrib.pg8000.protocol.MessageReader object>'
p474
sg46
S'()'
p475
sS'handler'
p476
S'<function <lambda>>'
p477
sS'kwargs'
p478
g21
sS'msg'
p479
S'<ReadyForQuery Idle in Failed Transaction>'
p480
sS'msg_handled'
p481
S'True'
p482
sS'retval'
p483
S'1'
sssS'traceback'
p484
S'Traceback (most recent call last):\n  File "/home/leo/Dropbox/web2py/gluon/restricted.py", line 217, in restricted\n    exec ccode in environment\n  File "/home/leo/Dropbox/web2py/applications/SEACAT_ingresos/controllers/admin.py", line 150, in <module>\n  File "/home/leo/Dropbox/web2py/gluon/globals.py", line 372, in <lambda>\n    self._caller = lambda f: f()\n  File "/home/leo/Dropbox/web2py/applications/SEACAT_ingresos/controllers/admin.py", line 5, in index\n    db.auth_user.truncate()\n  File "/home/leo/Dropbox/web2py/gluon/dal.py", line 9079, in truncate\n    return self._db._adapter.truncate(self, mode)\n  File "/home/leo/Dropbox/web2py/gluon/dal.py", line 1544, in truncate\n    self.execute(query)\n  File "/home/leo/Dropbox/web2py/gluon/dal.py", line 1916, in execute\n    return self.log_execute(*a, **b)\n  File "/home/leo/Dropbox/web2py/gluon/dal.py", line 1910, in log_execute\n    ret = self.cursor.execute(command, *a[1:], **b)\n  File "/home/leo/Dropbox/web2py/gluon/contrib/pg8000/dbapi.py", line 246, in _fn\n    return fn(self, *args, **kwargs)\n  File "/home/leo/Dropbox/web2py/gluon/contrib/pg8000/dbapi.py", line 317, in execute\n    self._execute(operation, args)\n  File "/home/leo/Dropbox/web2py/gluon/contrib/pg8000/dbapi.py", line 322, in _execute\n    self.cursor.execute(new_query, *new_args)\n  File "/home/leo/Dropbox/web2py/gluon/contrib/pg8000/interface.py", line 399, in execute\n    self._stmt.execute(*args, **kwargs)\n  File "/home/leo/Dropbox/web2py/gluon/contrib/pg8000/interface.py", line 169, in execute\n    self._row_desc, cmd = self.c.bind(self._portal_name, self._statement_name, args, self._parse_row_desc, kwargs.get("stream"))\n  File "/home/leo/Dropbox/web2py/gluon/contrib/pg8000/protocol.py", line 943, in _fn\n    return fn(self, *args, **kwargs)\n  File "/home/leo/Dropbox/web2py/gluon/contrib/pg8000/protocol.py", line 1142, in bind\n    return reader.handle_messages()\n  File "/home/leo/Dropbox/web2py/gluon/contrib/pg8000/protocol.py", line 911, in handle_messages\n    retval = handler(msg, *args, **kwargs)\n  File "/home/leo/Dropbox/web2py/gluon/contrib/pg8000/protocol.py", line 1181, in _bind_nodata\n    reader.handle_messages()\n  File "/home/leo/Dropbox/web2py/gluon/contrib/pg8000/protocol.py", line 916, in handle_messages\n    raise exc\nProgrammingError: (\'ERROR\', \'0A000\', \'no se puede truncar una tabla referida en una llave for\\xc3\\xa1nea\')\n'
p485
s.