(dp1
S'output'
p2
S"<class 'gluon.contrib.pg8000.errors.ProgrammingError'> ('ERROR', '42P07', 'la relaci\\xc3\\xb3n \\xc2\\xabdate\\xc2\\xbb ya existe')"
p3
sS'layer'
p4
S'/home/leo/Dropbox/web2py/applications/SEACAT_ingresos/models/db.py'
p5
sS'code'
p6
S'# -*- coding: utf-8 -*-\n\n#########################################################################\n## This scaffolding model makes your app work on Google App Engine too\n## File is released under public domain and you can use without limitations\n#########################################################################\n\n## if SSL/HTTPS is properly configured and you want all HTTP requests to\n## be redirected to HTTPS, uncomment the line below:\n# request.requires_https()\n\nif SUSPEND_SERVICE:\n    message = "<html><body><h2>"\n    message += T("System is under maitenance, please come back later.")\n    message += "</h2><h3>"\n    message += T("Sorry for the inconvenience")\n    message += "</h3><p>"\n    message += str(NOW)\n    message += "</p></body></html>"\n    raise HTTP(503, message)\n\ndb = DAL(DBURI, check_reserved=[DB_ENGINE])\n\n#if not request.env.web2py_runtime_gae:\n    ## if NOT running on Google App Engine use SQLite or other DB\n    #db = DAL(\'sqlite://storage.sqlite\',pool_size=1,check_reserved=[\'all\'])\n    ## To connect to a PostgreSQL DB: postgres://username:password@server/database\n    ## DBURI contains the string to configure de DB it\'s stored in 0.py\n#    db = DAL(DBURI, check_reserved=[DB_ENGINE])\n#else:\n    ## connect to Google BigTable (optional \'google:datastore://namespace\')\n#    db = DAL(\'google:datastore\')\n    ## store sessions and tickets there\n#   session.connect(request, response, db=db)\n    ## or store session in Memcache, Redis, etc.\n    ## from gluon.contrib.memdb import MEMDB\n    ## from google.appengine.api.memcache import Client\n    ## session.connect(request, response, db = MEMDB(Client()))\n\n## by default give a view/generic.extension to all actions from localhost\n## none otherwise. a pattern can be \'controller/function.extension\'\nresponse.generic_patterns = [\'*\'] if request.is_local else []\n## (optional) optimize handling of static files\n# response.optimize_css = \'concat,minify,inline\'\n# response.optimize_js = \'concat,minify,inline\'\n\n#########################################################################\n## Here is sample code if you need for\n## - email capabilities\n## - authentication (registration, login, logout, ... )\n## - authorization (role based authorization)\n## - services (xml, csv, json, xmlrpc, jsonrpc, amf, rss)\n## - old style crud actions\n## (more options discussed in gluon/tools.py)\n#########################################################################\n\nfrom gluon.tools import Auth, Crud, Service, PluginManager, prettydate\nauth = Auth(db)\ncrud, service, plugins = Crud(db), Service(), PluginManager()\n\n## Adding "last_login" and "obs" fields to \'auth_user\' table\nauth.settings.extra_fields[\'auth_user\'] = [\n                                           Field(\'middle_name\', label=T("Middle Name")),\n                                           # Falta agregar notnull...\n                                           Field(\'gender\', requires=IS_IN_SET(GENDER_LIST), label=T("Gender")),\n                                           Field(\'created_on\', \'datetime\', label=T("Created On"), writable=False, readable=True),\n                                           Field(\'last_login\', \'datetime\', label=T("Last Login"), writable=False, readable=True),\n                                           Field(\'obs\', \'text\', label=T("Observations")),\n                                           #Field(\'personal_data_id\', \'reference personal_data\', writable=False, readable=False, requires=IS_IN_DB(db, \'personal_data.id\'), label=T("Personal Data ID")),\n                                           #Field(\'address_id\', \'reference address\', writable=False, readable=False, requires=IS_IN_DB(db, \'address.id\'), label=T("Address ID"))\n                                           ]\n## create all tables needed by auth if not custom tables\nauth.define_tables(username=False, signature=True, migrate=True)\n\n## Changing format to \'auth_user\' table:\ndb.auth_user._format = \'%(last_name)s\'+", "+\'%(first_name)s\'+" "+\'%(middle_name)s\'\n\n## Settings for \'first_name\' field:\ndb.auth_user.first_name.required=True\ndb.auth_user.first_name.requires=IS_NOT_EMPTY()\n\n## Settings for \'last_name\' field:\ndb.auth_user.last_name.required=True\ndb.auth_user.last_name.requires=IS_NOT_EMPTY()\n\n## Setting email to unique\ndb.auth_user.email.requires = [IS_EMAIL(), IS_NOT_IN_DB(db, \'auth_user.email\')]\ndb.auth_user.email.unique=True\ndb.auth_user.email.error_message=T("This email is already in our database, please choose another one")\n\n## Changing attributes:\ndb.auth_group.description.readable = True\n\n## Removing "remember me" feature at login form\nauth.settings.remember_me_form = False\n\n## Defining new table for Images:\ndb.define_table(\'images\',\n                Field(\'name\', label=T("Name")),\n                Field(\'file\', \'upload\', label=T("File"), required=True),\n                auth.signature\n                )\n\n## Defining new table for address:\ndb.define_table(\'address\',\n                Field(\'uid\', \'reference auth_user\', writable=False, readable=False, requires=IS_IN_DB(db, \'auth_user.id\'), label=T("User ID")),\n                Field(\'street\', required=True, notnull=True, label=T("Street")),\n                Field(\'building\', \'integer\', label=T("Building")),\n                Field(\'floor\', label=T("Floor")),\n                Field(\'door\', label=T("Door")),\n                Field(\'apartment\', label=T("Apartment")),\n                Field(\'street1\', label=T("Street 1")),\n                Field(\'street2\', label=T("Street 2")),\n                Field(\'zip_code\', label=T("ZIP Code")),\n                Field(\'loc\', default=PROVINCES_LIST[2], label=T("Locality")),\n                Field(\'prov\', requires=IS_IN_SET(PROVINCES_LIST), default=PROVINCES_LIST[2], label=T("Province")),\n                Field(\'obs\', \'text\', label=T("Observations")),\n                auth.signature,\n                format=\'%(street)s\'+" "+\'%(building)s\'+" "+\'%(floor)s\'+" "+\'%(door)s\'+" "+\'%(apartment)s\'\n                )\n\n## Defining new table for personal data\ndb.define_table(\'personal_data\',\n                Field(\'uid\', \'reference auth_user\', writable=False, readable=False, requires=IS_IN_DB(db, \'auht_user.id\'), label=T("User ID")),\n                Field(\'doc_type\', required=True, requires=IS_IN_SET(DOC_TYPE_SET), notnull=True, default=DOC_TYPE_SET[0], label=T("Document Type")),\n                Field(\'doc\', \'string\', length=8, required=True, requires=IS_MATCH(\'\\d{8}\'), notnull=True, unique=True, label=T("Document"), comment=T("Insert only numbers without dots. i.e.: 12654897")),\n                Field(\'nac\', required=True, notnull=True, default="Argentina", label=T("Nacionality")),\n                Field(\'cuil\', \'string\', length=11, requires=IS_MATCH(\'\\d{11}\'), notnull=True, unique=True, label="CUIL"),\n                Field(\'dob\', \'date\', required=True, requires=IS_DATE(format=(\'%d-%m-%Y\')), notnull=True, label=T("Day of Birth")),\n                ## Commented because they are in \'auth_user\' table:\n                #Field(\'first_name\', required=True, notnull=True, label=T("First Name")),\n                #Field(\'middle_name\', label=T("Middle Name")),\n                #Field(\'last_name\', required=True, notnull=True, label=T("Last Name")),\n                #Field(\'mail1\', required=True, requires=IS_EMAIL(), notnull=True, label=T("email 1")),\n                Field(\'mail2\', requires=IS_EMPTY_OR(IS_EMAIL()), label=T("Alternative email"), comment=T("Another contact mail")),\n                Field(\'tel1_type\', required=True, requires=IS_IN_SET(TEL_TYPE_SET), notnull=True, default=TEL_TYPE_SET[0], label=T("Principal Phone Type")),\n                Field(\'tel1\', length=8, required=True, requires=IS_MATCH(\'\\d{8}\'), notnull=True, label=T("Principal Phone Number")),\n                Field(\'tel2_type\', requires=IS_IN_SET(TEL_TYPE_SET), default=TEL_TYPE_SET[0], label=T("Alternative Phone Type")),\n                Field(\'tel2\', length=8, requires=IS_MATCH(\'\\d{8}\'), label=T("Alternative Phone Number")),\n                Field(\'photo\', \'upload\', requires=IS_EMPTY_OR(IS_IMAGE(extensions=VALID_IMG_EXTENSION_SET, maxsize=MAX_PHOTO_SIZE)), label=T("Photo")),\n                Field(\'avatar\', \'upload\', requires=IS_EMPTY_OR(IS_IMAGE(extensions=VALID_IMG_EXTENSION_SET, maxsize=MAX_AVATAR_SIZE)), label=T("Avatar")),\n                Field(\'twitter\', requires=IS_EMPTY_OR(IS_URL()), label=T("Twitter Profile")),\n                Field(\'facebook\', requires=IS_EMPTY_OR(IS_URL()), label=T("Facebook Profile")),\n                Field(\'obs\', \'text\', label=T("Observations")),\n                auth.signature,\n                format=\'%(doc)s\'\n                )\n#db.personal_data.age = Field.Virtual(lambda row: (request.now-row.personal_data.dob).years)\n\n## Defining new table for Fathers.\ndb.define_table(\'father\',\n                Field(\'father_id\', \'reference auth_user\', writable=False, readable=False, requires=IS_IN_DB(db, \'auth_user.id\'), label=T("Father ID")),\n                Field(\'children_in_school\', \'boolean\', label=T("Do you have children in our school?")),\n                Field(\'children_name\', label=T("Children name")),\n                Field(\'student_network\', \'boolean\', label=T("Does your son goes to a school in our network?")),\n                Field(\'student_school\', requires=IS_EMPTY_OR(IS_IN_SET(SCHOOL_NETWORK_LIST)), label=T("Choose your school")),\n                auth.signature,\n                format=\'%(db.auth_user.last_name)s\'+\', \'+\'%(db.auth_user.first_name)s\'+\' \'+\'%(db.auth_user.middle_name)s\'\n               )\n\ndb.define_table(\'date\',\n                Field(\'type\', required=True, requires=IS_IN_SET(DATE_TYPE), label=T("Date Type")),\n                Field(\'date\', \'date\', required=True, requires=IS_DATE(), label=T("Date")),\n                Field(\'start_time\', \'time\', requires=IS_EMPTY_OR(IS_TIME()), label=T("Start Time")),\n                Field(\'end_time\', \'time\', requires=IS_EMPTY_OR(IS_TIME()), label=T("End Time")),\n                Field(\'description\', label=T("Description"))\n                )\n\n## configure email\nmail = auth.settings.mailer\nmail.settings.server = \'logging\' or \'smtp.gmail.com:587\'\nmail.settings.sender = \'soportetecnico@pioix.edu.ar\'\nmail.settings.login = \'soportetecnico:deagostini\'\n\n## configure auth policy\nauth.settings.registration_requires_verification = False\nauth.settings.registration_requires_approval = False\nauth.settings.reset_password_requires_verification = True\nif not db().select(db.auth_user.ALL):\n    auth.settings.actions_disabled = []\nelse:\n    auth.settings.actions_disabled = [\'register\']\n\n## if you need to use OpenID, Facebook, MySpace, Twitter, Linkedin, etc.\n## register with janrain.com, write your domain:api_key in private/janrain.key\nfrom gluon.contrib.login_methods.rpx_account import use_janrain\nuse_janrain(auth, filename=\'private/janrain.key\')\n\n#########################################################################\n## Define your tables below (or better in another model file) for example\n##\n## >>> db.define_table(\'mytable\',Field(\'myfield\',\'string\'))\n##\n## Fields can be \'string\',\'text\',\'password\',\'integer\',\'double\',\'boolean\'\n##       \'date\',\'time\',\'datetime\',\'blob\',\'upload\', \'reference TABLENAME\'\n## There is an implicit \'id integer autoincrement\' field\n## Consult manual for more options, validators, etc.\n##\n## More API examples for controllers:\n##\n## >>> db.mytable.insert(myfield=\'value\')\n## >>> rows=db(db.mytable.myfield==\'value\').select(db.mytable.ALL)\n## >>> for row in rows: print row.id, row.myfield\n#########################################################################\n\n## after defining tables, uncomment below to enable auditing\n# auth.enable_record_versioning(db)\n'
p7
sS'snapshot'
p8
(dp9
S'exception'
p10
(dp11
S'__module__'
p12
S"'gluon.contrib.pg8000.errors'"
p13
sS'__getslice__'
p14
S"<method-wrapper '__getslice__' of ProgrammingError object>"
p15
sS'__str__'
p16
S"<method-wrapper '__str__' of ProgrammingError object>"
p17
sS'__reduce__'
p18
S'<built-in method __reduce__ of ProgrammingError object>'
p19
sS'__dict__'
p20
S'{}'
p21
sS'__sizeof__'
p22
S'<built-in method __sizeof__ of ProgrammingError object>'
p23
sS'__weakref__'
p24
S'None'
p25
sS'__init__'
p26
S"<method-wrapper '__init__' of ProgrammingError object>"
p27
sS'__setattr__'
p28
S"<method-wrapper '__setattr__' of ProgrammingError object>"
p29
sS'__reduce_ex__'
p30
S'<built-in method __reduce_ex__ of ProgrammingError object>'
p31
sS'__new__'
p32
S'<built-in method __new__ of type object>'
p33
sS'__format__'
p34
S'<built-in method __format__ of ProgrammingError object>'
p35
sS'__class__'
p36
S"<class 'gluon.contrib.pg8000.errors.ProgrammingError'>"
p37
sS'__doc__'
p38
S'None'
p39
sS'__getitem__'
p40
S"<method-wrapper '__getitem__' of ProgrammingError object>"
p41
sS'__setstate__'
p42
S'<built-in method __setstate__ of ProgrammingError object>'
p43
sS'__getattribute__'
p44
S"<method-wrapper '__getattribute__' of ProgrammingError object>"
p45
sS'args'
p46
S"('ERROR', '42P07', 'la relaci\\xc3\\xb3n \\xc2\\xabdate\\xc2\\xbb ya existe')"
p47
sS'__subclasshook__'
p48
S'<built-in method __subclasshook__ of type object>'
p49
sS'__unicode__'
p50
S'<built-in method __unicode__ of ProgrammingError object>'
p51
sS'__delattr__'
p52
S"<method-wrapper '__delattr__' of ProgrammingError object>"
p53
sS'__repr__'
p54
S"<method-wrapper '__repr__' of ProgrammingError object>"
p55
sS'__hash__'
p56
S"<method-wrapper '__hash__' of ProgrammingError object>"
p57
ssS'evalue'
p58
S"('ERROR', '42P07', 'la relaci\\xc3\\xb3n \\xc2\\xabdate\\xc2\\xbb ya existe')"
p59
sS'request'
p60
cgluon.html
XML_unpickle
p61
(S's\xd1e\x00\x00<div><table><tr><td style="font-weight:bold;vertical-align:top;">ajax</td><td style="vertical-align:top;">:</td><td><div>False</div></td></tr><tr><td style="font-weight:bold;vertical-align:top;">application</td><td style="vertical-align:top;">:</td><td><div>SEACAT_ingresos</div></td></tr><tr><td style="font-weight:bold;vertical-align:top;">args</td><td style="vertical-align:top;">:</td><td><div><table></table></div></td></tr><tr><td style="font-weight:bold;vertical-align:top;">cid</td><td style="vertical-align:top;">:</td><td><div>None</div></td></tr><tr><td style="font-weight:bold;vertical-align:top;">client</td><td style="vertical-align:top;">:</td><td><div>127.0.0.1</div></td></tr><tr><td style="font-weight:bold;vertical-align:top;">controller</td><td style="vertical-align:top;">:</td><td><div>default</div></td></tr><tr><td style="font-weight:bold;vertical-align:top;">cookies</td><td style="vertical-align:top;">:</td><td><div><table><tr><td style="font-weight:bold;vertical-align:top;">session_id_admin</td><td style="vertical-align:top;">:</td><td><div>127.0.0.1-890a02b4-d81a-452d-b5f4-fe4e888bcdeb<table><tr><td style="font-weight:bold;vertical-align:top;">comment</td><td style="vertical-align:top;">:</td><td><div></div></td></tr><tr><td style="font-weight:bold;vertical-align:top;">domain</td><td style="vertical-align:top;">:</td><td><div></div></td></tr><tr><td style="font-weight:bold;vertical-align:top;">expires</td><td style="vertical-align:top;">:</td><td><div></div></td></tr><tr><td style="font-weight:bold;vertical-align:top;">httponly</td><td style="vertical-align:top;">:</td><td><div></div></td></tr><tr><td style="font-weight:bold;vertical-align:top;">max-age</td><td style="vertical-align:top;">:</td><td><div></div></td></tr><tr><td style="font-weight:bold;vertical-align:top;">path</td><td style="vertical-align:top;">:</td><td><div></div></td></tr><tr><td style="font-weight:bold;vertical-align:top;">secure</td><td style="vertical-align:top;">:</td><td><div></div></td></tr><tr><td style="font-weight:bold;vertical-align:top;">version</td><td style="vertical-align:top;">:</td><td><div></div></td></tr></table></div></td></tr><tr><td style="font-weight:bold;vertical-align:top;">session_id_isbp</td><td style="vertical-align:top;">:</td><td><div>127.0.0.1-f7d6e8bc-faca-433a-87b3-3d7e74279bdd<table><tr><td style="font-weight:bold;vertical-align:top;">comment</td><td style="vertical-align:top;">:</td><td><div></div></td></tr><tr><td style="font-weight:bold;vertical-align:top;">domain</td><td style="vertical-align:top;">:</td><td><div></div></td></tr><tr><td style="font-weight:bold;vertical-align:top;">expires</td><td style="vertical-align:top;">:</td><td><div></div></td></tr><tr><td style="font-weight:bold;vertical-align:top;">httponly</td><td style="vertical-align:top;">:</td><td><div></div></td></tr><tr><td style="font-weight:bold;vertical-align:top;">max-age</td><td style="vertical-align:top;">:</td><td><div></div></td></tr><tr><td style="font-weight:bold;vertical-align:top;">path</td><td style="vertical-align:top;">:</td><td><div></div></td></tr><tr><td style="font-weight:bold;vertical-align:top;">secure</td><td style="vertical-align:top;">:</td><td><div></div></td></tr><tr><td style="font-weight:bold;vertical-align:top;">version</td><td style="vertical-align:top;">:</td><td><div></div></td></tr></table></div></td></tr><tr><td style="font-weight:bold;vertical-align:top;">session_id_pgday</td><td style="vertical-align:top;">:</td><td><div>127.0.0.1-4b839bf6-587f-4a54-9d21-64fdbe2253ae<table><tr><td style="font-weight:bold;vertical-align:top;">comment</td><td style="vertical-align:top;">:</td><td><div></div></td></tr><tr><td style="font-weight:bold;vertical-align:top;">domain</td><td style="vertical-align:top;">:</td><td><div></div></td></tr><tr><td style="font-weight:bold;vertical-align:top;">expires</td><td style="vertical-align:top;">:</td><td><div></div></td></tr><tr><td style="font-weight:bold;vertical-align:top;">httponly</td><td style="vertical-align:top;">:</td><td><div></div></td></tr><tr><td style="font-weight:bold;vertical-align:top;">max-age</td><td style="vertical-align:top;">:</td><td><div></div></td></tr><tr><td style="font-weight:bold;vertical-align:top;">path</td><td style="vertical-align:top;">:</td><td><div></div></td></tr><tr><td style="font-weight:bold;vertical-align:top;">secure</td><td style="vertical-align:top;">:</td><td><div></div></td></tr><tr><td style="font-weight:bold;vertical-align:top;">version</td><td style="vertical-align:top;">:</td><td><div></div></td></tr></table></div></td></tr><tr><td style="font-weight:bold;vertical-align:top;">session_id_seacat_ingresos</td><td style="vertical-align:top;">:</td><td><div>127.0.0.1-dccda76f-8e66-42cb-af3f-52b73eb8e7da<table><tr><td style="font-weight:bold;vertical-align:top;">comment</td><td style="vertical-align:top;">:</td><td><div></div></td></tr><tr><td style="font-weight:bold;vertical-align:top;">domain</td><td style="vertical-align:top;">:</td><td><div></div></td></tr><tr><td style="font-weight:bold;vertical-align:top;">expires</td><td style="vertical-align:top;">:</td><td><div></div></td></tr><tr><td style="font-weight:bold;vertical-align:top;">httponly</td><td style="vertical-align:top;">:</td><td><div></div></td></tr><tr><td style="font-weight:bold;vertical-align:top;">max-age</td><td style="vertical-align:top;">:</td><td><div></div></td></tr><tr><td style="font-weight:bold;vertical-align:top;">path</td><td style="vertical-align:top;">:</td><td><div></div></td></tr><tr><td style="font-weight:bold;vertical-align:top;">secure</td><td style="vertical-align:top;">:</td><td><div></div></td></tr><tr><td style="font-weight:bold;vertical-align:top;">version</td><td style="vertical-align:top;">:</td><td><div></div></td></tr></table></div></td></tr><tr><td style="font-weight:bold;vertical-align:top;">session_id_welcome</td><td style="vertical-align:top;">:</td><td><div>127.0.0.1-e036a97f-f1cb-4429-807f-e6a9668cde90<table><tr><td style="font-weight:bold;vertical-align:top;">comment</td><td style="vertical-align:top;">:</td><td><div></div></td></tr><tr><td style="font-weight:bold;vertical-align:top;">domain</td><td style="vertical-align:top;">:</td><td><div></div></td></tr><tr><td style="font-weight:bold;vertical-align:top;">expires</td><td style="vertical-align:top;">:</td><td><div></div></td></tr><tr><td style="font-weight:bold;vertical-align:top;">httponly</td><td style="vertical-align:top;">:</td><td><div></div></td></tr><tr><td style="font-weight:bold;vertical-align:top;">max-age</td><td style="vertical-align:top;">:</td><td><div></div></td></tr><tr><td style="font-weight:bold;vertical-align:top;">path</td><td style="vertical-align:top;">:</td><td><div></div></td></tr><tr><td style="font-weight:bold;vertical-align:top;">secure</td><td style="vertical-align:top;">:</td><td><div></div></td></tr><tr><td style="font-weight:bold;vertical-align:top;">version</td><td style="vertical-align:top;">:</td><td><div></div></td></tr></table></div></td></tr></table></div></td></tr><tr><td style="font-weight:bold;vertical-align:top;">env</td><td style="vertical-align:top;">:</td><td><div><table><tr><td style="font-weight:bold;vertical-align:top;">HTTP_ACCEPT</td><td style="vertical-align:top;">:</td><td><div>text/html,application/xhtml+xml,application/xml;q=0.9,*/*;q=0.8</div></td></tr><tr><td style="font-weight:bold;vertical-align:top;">HTTP_ACCEPT_ENCODING</td><td style="vertical-align:top;">:</td><td><div>gzip,deflate,sdch</div></td></tr><tr><td style="font-weight:bold;vertical-align:top;">HTTP_ACCEPT_LANGUAGE</td><td style="vertical-align:top;">:</td><td><div>es,es-419;q=0.8,en-US;q=0.6,en;q=0.4</div></td></tr><tr><td style="font-weight:bold;vertical-align:top;">HTTP_CACHE_CONTROL</td><td style="vertical-align:top;">:</td><td><div>max-age=0</div></td></tr><tr><td style="font-weight:bold;vertical-align:top;">HTTP_CONNECTION</td><td style="vertical-align:top;">:</td><td><div>keep-alive</div></td></tr><tr><td style="font-weight:bold;vertical-align:top;">HTTP_COOKIE</td><td style="vertical-align:top;">:</td><td><div>session_id_isbp=127.0.0.1-f7d6e8bc-faca-433a-87b3-3d7e74279bdd; __utma=96992031.17915714.1390050310.1390050310.1390057708.2; __utmc=96992031; __utmz=96992031.1390050310.1.1.utmcsr=(direct)|utmccn=(direct)|utmcmd=(none); session_id_pgday=127.0.0.1-4b839bf6-587f-4a54-9d21-64fdbe2253ae; session_id_welcome=127.0.0.1-e036a97f-f1cb-4429-807f-e6a9668cde90; session_id_seacat_ingresos=127.0.0.1-dccda76f-8e66-42cb-af3f-52b73eb8e7da; session_id_admin=127.0.0.1-890a02b4-d81a-452d-b5f4-fe4e888bcdeb</div></td></tr><tr><td style="font-weight:bold;vertical-align:top;">HTTP_HOST</td><td style="vertical-align:top;">:</td><td><div>127.0.0.1:8000</div></td></tr><tr><td style="font-weight:bold;vertical-align:top;">HTTP_USER_AGENT</td><td style="vertical-align:top;">:</td><td><div>Mozilla/5.0 (X11; Linux x86_64) AppleWebKit/537.36 (KHTML, like Gecko) Chrome/28.0.1500.95 Safari/537.36</div></td></tr><tr><td style="font-weight:bold;vertical-align:top;">PATH_INFO</td><td style="vertical-align:top;">:</td><td><div>/SEACAT_ingresos/default</div></td></tr><tr><td style="font-weight:bold;vertical-align:top;">QUERY_STRING</td><td style="vertical-align:top;">:</td><td><div></div></td></tr><tr><td style="font-weight:bold;vertical-align:top;">REMOTE_ADDR</td><td style="vertical-align:top;">:</td><td><div>127.0.0.1</div></td></tr><tr><td style="font-weight:bold;vertical-align:top;">REMOTE_PORT</td><td style="vertical-align:top;">:</td><td><div>57531</div></td></tr><tr><td style="font-weight:bold;vertical-align:top;">REQUEST_METHOD</td><td style="vertical-align:top;">:</td><td><div>GET</div></td></tr><tr><td style="font-weight:bold;vertical-align:top;">SCRIPT_NAME</td><td style="vertical-align:top;">:</td><td><div></div></td></tr><tr><td style="font-weight:bold;vertical-align:top;">SERVER_NAME</td><td style="vertical-align:top;">:</td><td><div>larrea-lmde</div></td></tr><tr><td style="font-weight:bold;vertical-align:top;">SERVER_PORT</td><td style="vertical-align:top;">:</td><td><div>8000</div></td></tr><tr><td style="font-weight:bold;vertical-align:top;">SERVER_PROTOCOL</td><td style="vertical-align:top;">:</td><td><div>HTTP/1.1</div></td></tr><tr><td style="font-weight:bold;vertical-align:top;">SERVER_SOFTWARE</td><td style="vertical-align:top;">:</td><td><div>Rocket 1.2.6</div></td></tr><tr><td style="font-weight:bold;vertical-align:top;">app_folders</td><td style="vertical-align:top;">:</td><td><div>set([&#x27;/home/leo/Dropbox/web2py/applications/SEACAT_ingresos/&#x27;, &#x27;/home/leo/Dropbox/web2py/applications/admin/&#x27;, &#x27;/home/leo/Dropbox/web2py/applications/welcome/&#x27;])</div></td></tr><tr><td style="font-weight:bold;vertical-align:top;">applications_parent</td><td style="vertical-align:top;">:</td><td><div>/home/leo/Dropbox/web2py</div></td></tr><tr><td style="font-weight:bold;vertical-align:top;">cmd_args</td><td style="vertical-align:top;">:</td><td><div><table></table></div></td></tr><tr><td style="font-weight:bold;vertical-align:top;">cmd_options</td><td style="vertical-align:top;">:</td><td><div>&lt;Values at 0x30911b8: {&#x27;verbose&#x27;: False, &#x27;ip&#x27;: &#x27;127.0.0.1&#x27;, &#x27;debuglevel&#x27;: 30, &#x27;with_scheduler&#x27;: False, &#x27;ips&#x27;: [&#x27;127.0.1.1&#x27;], &#x27;shutdown_timeout&#x27;: 5, &#x27;taskbar&#x27;: False, &#x27;with_coverage&#x27;: False, &#x27;port&#x27;: 8000, &#x27;maxthreads&#x27;: None, &#x27;softcron&#x27;: False, &#x27;server_name&#x27;: &#x27;larrea-lmde&#x27;, &#x27;bpython&#x27;: False, &#x27;nogui&#x27;: False, &#x27;pid_filename&#x27;: &#x27;httpserver.pid&#x27;, &#x27;extcron&#x27;: False, &#x27;runcron&#x27;: False, &#x27;run_system_tests&#x27;: False, &#x27;test&#x27;: None, &#x27;folder&#x27;: &#x27;/home/leo/Dropbox/web2py&#x27;, &#x27;config&#x27;: &#x27;&#x27;, &#x27;minthreads&#x27;: None, &#x27;shell&#x27;: None, &#x27;run&#x27;: &#x27;&#x27;, &#x27;log_filename&#x27;: &#x27;httpserver.log&#x27;, &#x27;profiler_dir&#x27;: None, &#x27;args&#x27;: [&#x27;&#x27;], &#x27;socket_timeout&#x27;: 5, &#x27;ssl_ca_certificate&#x27;: None, &#x27;scheduler&#x27;: None, &#x27;interfaces&#x27;: None, &#x27;ssl_private_key&#x27;: &#x27;&#x27;, &#x27;scheduler_groups&#x27;: None, &#x27;password&#x27;: &#x27;&lt;ask&gt;&#x27;, &#x27;request_queue_size&#x27;: 5, &#x27;ssl_certificate&#x27;: &#x27;&#x27;, &#x27;cronjob&#x27;: False, &#x27;numthreads&#x27;: None, &#x27;quiet&#x27;: False, &#x27;import_models&#x27;: False, &#x27;timeout&#x27;: 10, &#x27;plain&#x27;: False, &#x27;nobanner&#x27;: False}&gt;</div></td></tr><tr><td style="font-weight:bold;vertical-align:top;">db_sessions</td><td style="vertical-align:top;">:</td><td><div>set([])</div></td></tr><tr><td style="font-weight:bold;vertical-align:top;">debugging</td><td style="vertical-align:top;">:</td><td><div>True</div></td></tr><tr><td style="font-weight:bold;vertical-align:top;">gluon_parent</td><td style="vertical-align:top;">:</td><td><div>/home/leo/Dropbox/web2py</div></td></tr><tr><td style="font-weight:bold;vertical-align:top;">http_accept</td><td style="vertical-align:top;">:</td><td><div>text/html,application/xhtml+xml,application/xml;q=0.9,*/*;q=0.8</div></td></tr><tr><td style="font-weight:bold;vertical-align:top;">http_accept_encoding</td><td style="vertical-align:top;">:</td><td><div>gzip,deflate,sdch</div></td></tr><tr><td style="font-weight:bold;vertical-align:top;">http_accept_language</td><td style="vertical-align:top;">:</td><td><div>es,es-419;q=0.8,en-US;q=0.6,en;q=0.4</div></td></tr><tr><td style="font-weight:bold;vertical-align:top;">http_cache_control</td><td style="vertical-align:top;">:</td><td><div>max-age=0</div></td></tr><tr><td style="font-weight:bold;vertical-align:top;">http_connection</td><td style="vertical-align:top;">:</td><td><div>keep-alive</div></td></tr><tr><td style="font-weight:bold;vertical-align:top;">http_cookie</td><td style="vertical-align:top;">:</td><td><div>session_id_isbp=127.0.0.1-f7d6e8bc-faca-433a-87b3-3d7e74279bdd; __utma=96992031.17915714.1390050310.1390050310.1390057708.2; __utmc=96992031; __utmz=96992031.1390050310.1.1.utmcsr=(direct)|utmccn=(direct)|utmcmd=(none); session_id_pgday=127.0.0.1-4b839bf6-587f-4a54-9d21-64fdbe2253ae; session_id_welcome=127.0.0.1-e036a97f-f1cb-4429-807f-e6a9668cde90; session_id_seacat_ingresos=127.0.0.1-dccda76f-8e66-42cb-af3f-52b73eb8e7da; session_id_admin=127.0.0.1-890a02b4-d81a-452d-b5f4-fe4e888bcdeb</div></td></tr><tr><td style="font-weight:bold;vertical-align:top;">http_host</td><td style="vertical-align:top;">:</td><td><div>127.0.0.1:8000</div></td></tr><tr><td style="font-weight:bold;vertical-align:top;">http_user_agent</td><td style="vertical-align:top;">:</td><td><div>Mozilla/5.0 (X11; Linux x86_64) AppleWebKit/537.36 (KHTML, like Gecko) Chrome/28.0.1500.95 Safari/537.36</div></td></tr><tr><td style="font-weight:bold;vertical-align:top;">is_jython</td><td style="vertical-align:top;">:</td><td><div>False</div></td></tr><tr><td style="font-weight:bold;vertical-align:top;">is_pypy</td><td style="vertical-align:top;">:</td><td><div>False</div></td></tr><tr><td style="font-weight:bold;vertical-align:top;">is_source</td><td style="vertical-align:top;">:</td><td><div>True</div></td></tr><tr><td style="font-weight:bold;vertical-align:top;">local_hosts</td><td style="vertical-align:top;">:</td><td><div><table><tr><td><div>127.0.1.1</div></td></tr><tr><td><div>::1</div></td></tr><tr><td><div>larrea-lmde</div></td></tr><tr><td><div>::ffff:127.0.0.1</div></td></tr><tr><td><div>127.0.0.1</div></td></tr></table></div></td></tr><tr><td style="font-weight:bold;vertical-align:top;">path_info</td><td style="vertical-align:top;">:</td><td><div>/SEACAT_ingresos/default</div></td></tr><tr><td style="font-weight:bold;vertical-align:top;">query_string</td><td style="vertical-align:top;">:</td><td><div></div></td></tr><tr><td style="font-weight:bold;vertical-align:top;">remote_addr</td><td style="vertical-align:top;">:</td><td><div>127.0.0.1</div></td></tr><tr><td style="font-weight:bold;vertical-align:top;">remote_port</td><td style="vertical-align:top;">:</td><td><div>57531</div></td></tr><tr><td style="font-weight:bold;vertical-align:top;">request_method</td><td style="vertical-align:top;">:</td><td><div>GET</div></td></tr><tr><td style="font-weight:bold;vertical-align:top;">request_uri</td><td style="vertical-align:top;">:</td><td><div>/SEACAT_ingresos/default</div></td></tr><tr><td style="font-weight:bold;vertical-align:top;">script_name</td><td style="vertical-align:top;">:</td><td><div></div></td></tr><tr><td style="font-weight:bold;vertical-align:top;">server_name</td><td style="vertical-align:top;">:</td><td><div>larrea-lmde</div></td></tr><tr><td style="font-weight:bold;vertical-align:top;">server_port</td><td style="vertical-align:top;">:</td><td><div>8000</div></td></tr><tr><td style="font-weight:bold;vertical-align:top;">server_protocol</td><td style="vertical-align:top;">:</td><td><div>HTTP/1.1</div></td></tr><tr><td style="font-weight:bold;vertical-align:top;">server_software</td><td style="vertical-align:top;">:</td><td><div>Rocket 1.2.6</div></td></tr><tr><td style="font-weight:bold;vertical-align:top;">web2py_path</td><td style="vertical-align:top;">:</td><td><div>/home/leo/Dropbox/web2py</div></td></tr><tr><td style="font-weight:bold;vertical-align:top;">web2py_version</td><td style="vertical-align:top;">:</td><td><div>2.8.2-stable+timestamp.2013.11.28.13.54.07</div></td></tr><tr><td style="font-weight:bold;vertical-align:top;">wsgi.errors</td><td style="vertical-align:top;">:</td><td><div>&lt;open file &#x27;&lt;stderr&gt;&#x27;, mode &#x27;w&#x27; at 0x7faf519f91e0&gt;</div></td></tr><tr><td style="font-weight:bold;vertical-align:top;">wsgi.file_wrapper</td><td style="vertical-align:top;">:</td><td><div>&lt;class wsgiref.util.FileWrapper at 0x30060b8&gt;</div></td></tr><tr><td style="font-weight:bold;vertical-align:top;">wsgi.input</td><td style="vertical-align:top;">:</td><td><div>&lt;socket._fileobject object at 0x7faf2813fad0&gt;</div></td></tr><tr><td style="font-weight:bold;vertical-align:top;">wsgi.multiprocess</td><td style="vertical-align:top;">:</td><td><div>False</div></td></tr><tr><td style="font-weight:bold;vertical-align:top;">wsgi.multithread</td><td style="vertical-align:top;">:</td><td><div>True</div></td></tr><tr><td style="font-weight:bold;vertical-align:top;">wsgi.run_once</td><td style="vertical-align:top;">:</td><td><div>False</div></td></tr><tr><td style="font-weight:bold;vertical-align:top;">wsgi.url_scheme</td><td style="vertical-align:top;">:</td><td><div>http</div></td></tr><tr><td style="font-weight:bold;vertical-align:top;">wsgi.version</td><td style="vertical-align:top;">:</td><td><div><table><tr><td><div>1</div></td></tr><tr><td><div>0</div></td></tr></table></div></td></tr><tr><td style="font-weight:bold;vertical-align:top;">wsgi_errors</td><td style="vertical-align:top;">:</td><td><div>&lt;open file &#x27;&lt;stderr&gt;&#x27;, mode &#x27;w&#x27; at 0x7faf519f91e0&gt;</div></td></tr><tr><td style="font-weight:bold;vertical-align:top;">wsgi_file_wrapper</td><td style="vertical-align:top;">:</td><td><div>&lt;class wsgiref.util.FileWrapper at 0x30060b8&gt;</div></td></tr><tr><td style="font-weight:bold;vertical-align:top;">wsgi_input</td><td style="vertical-align:top;">:</td><td><div>&lt;socket._fileobject object at 0x7faf2813fad0&gt;</div></td></tr><tr><td style="font-weight:bold;vertical-align:top;">wsgi_multiprocess</td><td style="vertical-align:top;">:</td><td><div>False</div></td></tr><tr><td style="font-weight:bold;vertical-align:top;">wsgi_multithread</td><td style="vertical-align:top;">:</td><td><div>True</div></td></tr><tr><td style="font-weight:bold;vertical-align:top;">wsgi_run_once</td><td style="vertical-align:top;">:</td><td><div>False</div></td></tr><tr><td style="font-weight:bold;vertical-align:top;">wsgi_url_scheme</td><td style="vertical-align:top;">:</td><td><div>http</div></td></tr><tr><td style="font-weight:bold;vertical-align:top;">wsgi_version</td><td style="vertical-align:top;">:</td><td><div><table><tr><td><div>1</div></td></tr><tr><td><div>0</div></td></tr></table></div></td></tr></table></div></td></tr><tr><td style="font-weight:bold;vertical-align:top;">extension</td><td style="vertical-align:top;">:</td><td><div>html</div></td></tr><tr><td style="font-weight:bold;vertical-align:top;">folder</td><td style="vertical-align:top;">:</td><td><div>/home/leo/Dropbox/web2py/applications/SEACAT_ingresos/</div></td></tr><tr><td style="font-weight:bold;vertical-align:top;">function</td><td style="vertical-align:top;">:</td><td><div>index</div></td></tr><tr><td style="font-weight:bold;vertical-align:top;">global_settings</td><td style="vertical-align:top;">:</td><td><div><table><tr><td style="font-weight:bold;vertical-align:top;">app_folders</td><td style="vertical-align:top;">:</td><td><div>set([&#x27;/home/leo/Dropbox/web2py/applications/SEACAT_ingresos/&#x27;, &#x27;/home/leo/Dropbox/web2py/applications/admin/&#x27;, &#x27;/home/leo/Dropbox/web2py/applications/welcome/&#x27;])</div></td></tr><tr><td style="font-weight:bold;vertical-align:top;">applications_parent</td><td style="vertical-align:top;">:</td><td><div>/home/leo/Dropbox/web2py</div></td></tr><tr><td style="font-weight:bold;vertical-align:top;">cmd_args</td><td style="vertical-align:top;">:</td><td><div><table></table></div></td></tr><tr><td style="font-weight:bold;vertical-align:top;">cmd_options</td><td style="vertical-align:top;">:</td><td><div>&lt;Values at 0x30911b8: {&#x27;verbose&#x27;: False, &#x27;ip&#x27;: &#x27;127.0.0.1&#x27;, &#x27;debuglevel&#x27;: 30, &#x27;with_scheduler&#x27;: False, &#x27;ips&#x27;: [&#x27;127.0.1.1&#x27;], &#x27;shutdown_timeout&#x27;: 5, &#x27;taskbar&#x27;: False, &#x27;with_coverage&#x27;: False, &#x27;port&#x27;: 8000, &#x27;maxthreads&#x27;: None, &#x27;softcron&#x27;: False, &#x27;server_name&#x27;: &#x27;larrea-lmde&#x27;, &#x27;bpython&#x27;: False, &#x27;nogui&#x27;: False, &#x27;pid_filename&#x27;: &#x27;httpserver.pid&#x27;, &#x27;extcron&#x27;: False, &#x27;runcron&#x27;: False, &#x27;run_system_tests&#x27;: False, &#x27;test&#x27;: None, &#x27;folder&#x27;: &#x27;/home/leo/Dropbox/web2py&#x27;, &#x27;config&#x27;: &#x27;&#x27;, &#x27;minthreads&#x27;: None, &#x27;shell&#x27;: None, &#x27;run&#x27;: &#x27;&#x27;, &#x27;log_filename&#x27;: &#x27;httpserver.log&#x27;, &#x27;profiler_dir&#x27;: None, &#x27;args&#x27;: [&#x27;&#x27;], &#x27;socket_timeout&#x27;: 5, &#x27;ssl_ca_certificate&#x27;: None, &#x27;scheduler&#x27;: None, &#x27;interfaces&#x27;: None, &#x27;ssl_private_key&#x27;: &#x27;&#x27;, &#x27;scheduler_groups&#x27;: None, &#x27;password&#x27;: &#x27;&lt;ask&gt;&#x27;, &#x27;request_queue_size&#x27;: 5, &#x27;ssl_certificate&#x27;: &#x27;&#x27;, &#x27;cronjob&#x27;: False, &#x27;numthreads&#x27;: None, &#x27;quiet&#x27;: False, &#x27;import_models&#x27;: False, &#x27;timeout&#x27;: 10, &#x27;plain&#x27;: False, &#x27;nobanner&#x27;: False}&gt;</div></td></tr><tr><td style="font-weight:bold;vertical-align:top;">db_sessions</td><td style="vertical-align:top;">:</td><td><div>set([])</div></td></tr><tr><td style="font-weight:bold;vertical-align:top;">debugging</td><td style="vertical-align:top;">:</td><td><div>True</div></td></tr><tr><td style="font-weight:bold;vertical-align:top;">gluon_parent</td><td style="vertical-align:top;">:</td><td><div>/home/leo/Dropbox/web2py</div></td></tr><tr><td style="font-weight:bold;vertical-align:top;">is_jython</td><td style="vertical-align:top;">:</td><td><div>False</div></td></tr><tr><td style="font-weight:bold;vertical-align:top;">is_pypy</td><td style="vertical-align:top;">:</td><td><div>False</div></td></tr><tr><td style="font-weight:bold;vertical-align:top;">is_source</td><td style="vertical-align:top;">:</td><td><div>True</div></td></tr><tr><td style="font-weight:bold;vertical-align:top;">local_hosts</td><td style="vertical-align:top;">:</td><td><div><table><tr><td><div>127.0.1.1</div></td></tr><tr><td><div>::1</div></td></tr><tr><td><div>larrea-lmde</div></td></tr><tr><td><div>::ffff:127.0.0.1</div></td></tr><tr><td><div>127.0.0.1</div></td></tr></table></div></td></tr><tr><td style="font-weight:bold;vertical-align:top;">web2py_version</td><td style="vertical-align:top;">:</td><td><div>2.8.2-stable+timestamp.2013.11.28.13.54.07</div></td></tr></table></div></td></tr><tr><td style="font-weight:bold;vertical-align:top;">is_https</td><td style="vertical-align:top;">:</td><td><div>False</div></td></tr><tr><td style="font-weight:bold;vertical-align:top;">is_local</td><td style="vertical-align:top;">:</td><td><div>True</div></td></tr><tr><td style="font-weight:bold;vertical-align:top;">is_restful</td><td style="vertical-align:top;">:</td><td><div>False</div></td></tr><tr><td style="font-weight:bold;vertical-align:top;">now</td><td style="vertical-align:top;">:</td><td><div>datetime.datetime(2014, 1, 22, 17, 45, 31, 239729)</div></td></tr><tr><td style="font-weight:bold;vertical-align:top;">raw_args</td><td style="vertical-align:top;">:</td><td><div></div></td></tr><tr><td style="font-weight:bold;vertical-align:top;">raw_extension</td><td style="vertical-align:top;">:</td><td><div>None</div></td></tr><tr><td style="font-weight:bold;vertical-align:top;">url</td><td style="vertical-align:top;">:</td><td><div>/SEACAT_ingresos/default</div></td></tr><tr><td style="font-weight:bold;vertical-align:top;">utcnow</td><td style="vertical-align:top;">:</td><td><div>datetime.datetime(2014, 1, 22, 20, 45, 31, 239754)</div></td></tr><tr><td style="font-weight:bold;vertical-align:top;">uuid</td><td style="vertical-align:top;">:</td><td><div>SEACAT_ingresos/127.0.0.1.2014-01-22.17-45-31.314307d8-a958-4079-8afd-b0a04a2d2cbd</div></td></tr><tr><td style="font-weight:bold;vertical-align:top;">wsgi</td><td style="vertical-align:top;">:</td><td><div>&lt;gluon.main.LazyWSGI object at 0x7faf282082d0&gt;</div></td></tr></table></div>'
tRp62
sS'frames'
p63
(lp64
(dp65
S'file'
p66
S'/home/leo/Dropbox/web2py/gluon/restricted.py'
p67
sS'dump'
p68
(dp69
S'environment'
p70
S"{'A': <class 'gluon.html.A'>, 'ANY_OF': <class 'gluon.validators.ANY_OF'>, 'Auth': <class 'gluon.tools.Auth'>, 'B': <class 'gluon.html.B'>, 'BEAUTIFY': <class 'gluon.html.BEAUTIFY'>, 'BODY': <class 'gluon.html.BODY'>, 'BR': <class 'gluon.html.BR'>, 'BUTTON': <class 'gluon.html.BUTTON'>, 'CAT': <class 'gluon.html.CAT'>, 'CENTER': <class 'gluon.html.CENTER'>, ...}"
p71
sS'ccode'
p72
S'<code object <module> at 0x7faf202bd5b0, file "/...lications/SEACAT_ingresos/models/db.py", line 12>'
p73
ssS'lnum'
p74
I217
sS'lines'
p75
(dp76
I212
S'    try:'
p77
sI213
S'        if isinstance(code, types.CodeType):'
p78
sI214
S'            ccode = code'
p79
sI215
S'        else:'
p80
sI216
S'            ccode = compile2(code, layer)'
p81
sI217
S'        exec ccode in environment'
p82
sI218
S'    except HTTP:'
p83
sI219
S'        raise'
p84
sI220
S'    except RestrictedError:'
p85
sI221
S'        # do not encapsulate (obfuscate) the original RestrictedError'
p86
ssS'call'
p87
S"(code='# -*- coding: utf-8 -*-\\n\\n#######################...ble auditing\\n# auth.enable_record_versioning(db)\\n', environment={'A': <class 'gluon.html.A'>, 'ANY_OF': <class 'gluon.validators.ANY_OF'>, 'Auth': <class 'gluon.tools.Auth'>, 'B': <class 'gluon.html.B'>, 'BEAUTIFY': <class 'gluon.html.BEAUTIFY'>, 'BODY': <class 'gluon.html.BODY'>, 'BR': <class 'gluon.html.BR'>, 'BUTTON': <class 'gluon.html.BUTTON'>, 'CAT': <class 'gluon.html.CAT'>, 'CENTER': <class 'gluon.html.CENTER'>, ...}, layer='/home/leo/Dropbox/web2py/applications/SEACAT_ingresos/models/db.py')"
p88
sS'func'
p89
S'restricted'
p90
sa(dp91
g66
S'/home/leo/Dropbox/web2py/applications/SEACAT_ingresos/models/db.py'
p92
sg68
(dp93
S'Field'
p94
S"<class 'gluon.dal.Field'>"
p95
sS'T'
S'<gluon.languages.translator object>'
p96
sS'label'
p97
S'undefined'
p98
ssg74
I166
sg75
(dp99
I161
S"db.define_table('date',"
p100
sI162
S'                Field(\'type\', required=True, requires=IS_IN_SET(DATE_TYPE), label=T("Date Type")),'
p101
sI163
S'                Field(\'date\', \'date\', required=True, requires=IS_DATE(), label=T("Date")),'
p102
sI164
S'                Field(\'start_time\', \'time\', requires=IS_EMPTY_OR(IS_TIME()), label=T("Start Time")),'
p103
sI165
S'                Field(\'end_time\', \'time\', requires=IS_EMPTY_OR(IS_TIME()), label=T("End Time")),'
p104
sI166
S'                Field(\'description\', label=T("Description"))'
p105
sI167
S'                )'
p106
sI168
S''
sI169
S'## configure email'
p107
sI170
S'mail = auth.settings.mailer'
p108
ssg87
S'()'
p109
sg89
S'<module>'
p110
sa(dp111
g66
S'/home/leo/Dropbox/web2py/gluon/dal.py'
p112
sg68
(dp113
S'fields'
p114
S'(<gluon.dal.Field object>, <gluon.dal.Field object>, <gluon.dal.Field object>, <gluon.dal.Field object>, <gluon.dal.Field object>)'
p115
sS'self'
p116
S'<DAL uri="postgres:******@wspio1.pioix.edu.ar/seacat">'
p117
sS'args'
p118
g21
sS'tablename'
p119
S"'date'"
p120
sS'table'
p121
g98
sS'self.lazy_define_table'
p122
S'<bound method DAL.lazy_define_table of <DAL uri="postgres:******@wspio1.pioix.edu.ar/seacat">>'
p123
ssg74
I8139
sg75
(dp124
I8134
S'                    % (tablename,invalid_args))'
p125
sI8135
S'        if self._lazy_tables and not tablename in self._LAZY_TABLES:'
p126
sI8136
S'            self._LAZY_TABLES[tablename] = (tablename,fields,args)'
p127
sI8137
S'            table = None'
p128
sI8138
S'        else:'
p129
sI8139
S'            table = self.lazy_define_table(tablename,*fields,**args)'
p130
sI8140
S'        if not tablename in self.tables:'
p131
sI8141
S'            self.tables.append(tablename)'
p132
sI8142
S'        return table'
p133
sI8143
S''
ssg87
S'(self=<DAL uri="postgres:******@wspio1.pioix.edu.ar/seacat">, tablename=\'date\', *fields=(<gluon.dal.Field object>, <gluon.dal.Field object>, <gluon.dal.Field object>, <gluon.dal.Field object>, <gluon.dal.Field object>), **args={})'
p134
sg89
S'define_table'
p135
sa(dp136
g66
S'/home/leo/Dropbox/web2py/gluon/dal.py'
p137
sg68
(dp138
S'polymodel'
p139
S'None'
p140
ssg74
I8176
sg75
(dp141
I8171
S'            try:'
p142
sI8172
S'                GLOBAL_LOCKER.acquire()'
p143
sI8173
S'                self._lastsql = self._adapter.create_table('
p144
sI8174
S'                    table,migrate=migrate,'
p145
sI8175
S'                    fake_migrate=fake_migrate,'
p146
sI8176
S'                    polymodel=polymodel)'
p147
sI8177
S'            finally:'
p148
sI8178
S'                GLOBAL_LOCKER.release()'
p149
sI8179
S'        else:'
p150
sI8180
S'            table._dbt = None'
p151
ssg87
S'(self=<DAL uri="postgres:******@wspio1.pioix.edu.ar/seacat">, tablename=\'date\', *fields=(<gluon.dal.Field object>, <gluon.dal.Field object>, <gluon.dal.Field object>, <gluon.dal.Field object>, <gluon.dal.Field object>), **args={})'
p152
sg89
S'lazy_define_table'
p153
sa(dp154
g66
S'/home/leo/Dropbox/web2py/gluon/dal.py'
p155
sg68
(dp156
S'query'
p157
S"'CREATE TABLE date(\\n    id SERIAL PRIMARY KEY,\\n  ...   end_time TIME,\\n    description VARCHAR(512)\\n);'"
p158
sS'self'
p159
S'<gluon.dal.PostgreSQLAdapter object>'
p160
sS'table'
p161
S'<Table date (id,type,date,start_time,end_time,description)>'
p162
sS'self.create_sequence_and_triggers'
p163
S'<bound method PostgreSQLAdapter.create_sequence_...triggers of <gluon.dal.PostgreSQLAdapter object>>'
p164
ssg74
I1058
sg75
(dp165
I1056
S'                            query), table)'
p166
sI1057
S'            if not fake_migrate:'
p167
sI1058
S'                self.create_sequence_and_triggers(query,table)'
p168
sI1059
S'                table._db.commit()'
p169
sI1060
S'                # Postgres geom fields are added now,'
p170
sI1061
S'                # after the table has been created'
p171
sI1062
S'                for query in postcreation_fields:'
p172
sI1053
S'            if table._dbt:'
p173
sI1054
S"                self.log('timestamp: %s\\n%s\\n'"
p174
sI1055
S'                         % (datetime.datetime.today().isoformat(),'
p175
ssg87
S'(self=<gluon.dal.PostgreSQLAdapter object>, table=<Table date (id,type,date,start_time,end_time,description)>, migrate=True, fake_migrate=False, polymodel=None)'
p176
sg89
S'create_table'
p177
sa(dp178
g66
S'/home/leo/Dropbox/web2py/gluon/dal.py'
p179
sg68
(dp180
S'query'
p181
S"'CREATE TABLE date(\\n    id SERIAL PRIMARY KEY,\\n  ...   end_time TIME,\\n    description VARCHAR(512)\\n);'"
p182
sS'self'
p183
S'<gluon.dal.PostgreSQLAdapter object>'
p184
sS'self.execute'
p185
S'<bound method PostgreSQLAdapter.execute of <gluon.dal.PostgreSQLAdapter object>>'
p186
ssg74
I2745
sg75
(dp187
I2740
S'    def create_sequence_and_triggers(self, query, table, **args):'
p188
sI2741
S'        # following lines should only be executed if table._sequence_name does not exist'
p189
sI2742
S"        # self.execute('CREATE SEQUENCE %s;' % table._sequence_name)"
p190
sI2743
S'        # self.execute("ALTER TABLE %s ALTER COLUMN %s SET DEFAULT NEXTVAL(\'%s\');" \\'
p191
sI2744
S'        #              % (table._tablename, table._fieldname, table._sequence_name))'
p192
sI2745
S'        self.execute(query)'
p193
sI2746
S''
sI2747
S"    REGEX_URI = re.compile('^(?P<user>[^:@]+)(\\:(?P<password>[^@]*))?@(?P<host>[^\\:@]+)(\\:(?P<port>[0-9]+))?/(?P<db>[^\\?]+)(\\?sslmode=(?P<sslmode>.+))?$')"
p194
sI2748
S''
sI2749
S"    def __init__(self,db,uri,pool_size=0,folder=None,db_codec ='UTF-8',"
p195
ssg87
S"(self=<gluon.dal.PostgreSQLAdapter object>, query='CREATE TABLE date(\\n    id SERIAL PRIMARY KEY,\\n  ...   end_time TIME,\\n    description VARCHAR(512)\\n);', table=<Table date (id,type,date,start_time,end_time,description)>, **args={})"
p196
sg89
S'create_sequence_and_triggers'
p197
sa(dp198
g66
S'/home/leo/Dropbox/web2py/gluon/dal.py'
p199
sg68
(dp200
S'a'
S"('CREATE TABLE date(\\n    id SERIAL PRIMARY KEY,\\n  ...   end_time TIME,\\n    description VARCHAR(512)\\n);',)"
p201
sS'self'
p202
S'<gluon.dal.PostgreSQLAdapter object>'
p203
sS'b'
g21
sS'self.log_execute'
p204
S'<bound method PostgreSQLAdapter.log_execute of <gluon.dal.PostgreSQLAdapter object>>'
p205
ssg74
I1916
sg75
(dp206
I1920
S'        if isinstance(obj, CALLABLETYPES):'
p207
sI1911
S'        self.db._timings.append((command,time.time()-t0))'
p208
sI1912
S'        del self.db._timings[:-TIMINGSSIZE]'
p209
sI1913
S'        return ret'
p210
sI1914
S''
sI1915
S'    def execute(self, *a, **b):'
p211
sI1916
S'        return self.log_execute(*a, **b)'
p212
sI1917
S''
sI1918
S'    def represent(self, obj, fieldtype):'
p213
sI1919
S'        field_is_type = fieldtype.startswith'
p214
ssg87
S"(self=<gluon.dal.PostgreSQLAdapter object>, *a=('CREATE TABLE date(\\n    id SERIAL PRIMARY KEY,\\n  ...   end_time TIME,\\n    description VARCHAR(512)\\n);',), **b={})"
p215
sg89
S'execute'
p216
sa(dp217
g66
S'/home/leo/Dropbox/web2py/gluon/dal.py'
p218
sg68
(dp219
S'a'
S"('CREATE TABLE date(\\n    id SERIAL PRIMARY KEY,\\n  ...   end_time TIME,\\n    description VARCHAR(512)\\n);',)"
p220
sS'b'
g21
sS'self'
p221
S'<gluon.dal.PostgreSQLAdapter object>'
p222
sS'ret'
p223
g98
sS'self.cursor'
p224
S'<gluon.contrib.pg8000.dbapi.CursorWrapper object>'
p225
sS'command'
p226
S"'CREATE TABLE date(\\n    id SERIAL PRIMARY KEY,\\n  ...   end_time TIME,\\n    description VARCHAR(512)\\n);'"
p227
sS'self.cursor.execute'
p228
S'<bound method CursorWrapper._fn of <gluon.contrib.pg8000.dbapi.CursorWrapper object>>'
p229
ssg74
I1910
sg75
(dp230
I1905
S'            command = self.filter_sql_command(command)'
p231
sI1906
S'        if self.db._debug:'
p232
sI1907
S"            LOGGER.debug('SQL: %s' % command)"
p233
sI1908
S'        self.db._lastsql = command'
p234
sI1909
S'        t0 = time.time()'
p235
sI1910
S'        ret = self.cursor.execute(command, *a[1:], **b)'
p236
sI1911
S'        self.db._timings.append((command,time.time()-t0))'
p237
sI1912
S'        del self.db._timings[:-TIMINGSSIZE]'
p238
sI1913
S'        return ret'
p239
sI1914
S''
ssg87
S"(self=<gluon.dal.PostgreSQLAdapter object>, *a=('CREATE TABLE date(\\n    id SERIAL PRIMARY KEY,\\n  ...   end_time TIME,\\n    description VARCHAR(512)\\n);',), **b={})"
p240
sg89
S'log_execute'
p241
sa(dp242
g66
S'/home/leo/Dropbox/web2py/gluon/contrib/pg8000/dbapi.py'
p243
sg68
(dp244
S'self'
p245
S'<gluon.contrib.pg8000.dbapi.CursorWrapper object>'
p246
sS'args'
p247
S"('CREATE TABLE date(\\n    id SERIAL PRIMARY KEY,\\n  ...   end_time TIME,\\n    description VARCHAR(512)\\n);',)"
p248
sS'fn'
p249
S'<function execute>'
p250
sS'kwargs'
p251
g21
ssg74
I246
sg75
(dp252
I241
S''
sI242
S'def require_open_cursor(fn):'
p253
sI243
S'    def _fn(self, *args, **kwargs):'
p254
sI244
S'        if self.cursor == None:'
p255
sI245
S'            raise CursorClosedError()'
p256
sI246
S'        return fn(self, *args, **kwargs)'
p257
sI247
S'    return _fn'
p258
sI248
S''
sI249
S'##'
p259
sI250
S'# The class of object returned by the {@link #ConnectionWrapper.cursor cursor method}.'
p260
ssg87
S"(self=<gluon.contrib.pg8000.dbapi.CursorWrapper object>, *args=('CREATE TABLE date(\\n    id SERIAL PRIMARY KEY,\\n  ...   end_time TIME,\\n    description VARCHAR(512)\\n);',), **kwargs={})"
p261
sg89
S'_fn'
p262
sa(dp263
g66
S'/home/leo/Dropbox/web2py/gluon/contrib/pg8000/dbapi.py'
p264
sg68
(dp265
S'self._execute'
p266
S'<bound method CursorWrapper._execute of <gluon.contrib.pg8000.dbapi.CursorWrapper object>>'
p267
sS'self'
p268
S'<gluon.contrib.pg8000.dbapi.CursorWrapper object>'
p269
sS'args'
p270
S'()'
p271
sS'operation'
p272
S"'CREATE TABLE date(\\n    id SERIAL PRIMARY KEY,\\n  ...   end_time TIME,\\n    description VARCHAR(512)\\n);'"
p273
ssg74
I317
sg75
(dp274
I320
S'        new_query, new_args = convert_paramstyle(paramstyle, operation, args)'
p275
sI321
S'        try:'
p276
sI312
S'    @require_open_cursor'
p277
sI313
S'    def execute(self, operation, args=()):'
p278
sI314
S'        if not self._connection.in_transaction:'
p279
sI315
S'            self._connection.begin()'
p280
sI316
S'        self._override_rowcount = None'
p281
sI317
S'        self._execute(operation, args)'
p282
sI318
S''
sI319
S'    def _execute(self, operation, args=()):'
p283
ssg87
S"(self=<gluon.contrib.pg8000.dbapi.CursorWrapper object>, operation='CREATE TABLE date(\\n    id SERIAL PRIMARY KEY,\\n  ...   end_time TIME,\\n    description VARCHAR(512)\\n);', args=())"
p284
sg89
g216
sa(dp285
g66
S'/home/leo/Dropbox/web2py/gluon/contrib/pg8000/dbapi.py'
p286
sg68
(dp287
S'new_args'
p288
S'()'
p289
sS'self.cursor'
p290
S'<gluon.contrib.pg8000.interface.Cursor object>'
p291
sS'self'
p292
S'<gluon.contrib.pg8000.dbapi.CursorWrapper object>'
p293
sS'new_query'
p294
S"'CREATE TABLE date(\\n    id SERIAL PRIMARY KEY,\\n  ...   end_time TIME,\\n    description VARCHAR(512)\\n);'"
p295
sS'self.cursor.execute'
p296
S'<bound method Cursor.execute of <gluon.contrib.pg8000.interface.Cursor object>>'
p297
ssg74
I322
sg75
(dp298
I320
S'        new_query, new_args = convert_paramstyle(paramstyle, operation, args)'
p299
sI321
S'        try:'
p300
sI322
S'            self.cursor.execute(new_query, *new_args)'
p301
sI323
S'        except ConnectionClosedError:'
p302
sI324
S"            # can't rollback in this case"
p303
sI325
S'            raise'
p304
sI326
S'        except:'
p305
sI317
S'        self._execute(operation, args)'
p306
sI318
S''
sI319
S'    def _execute(self, operation, args=()):'
p307
ssg87
S"(self=<gluon.contrib.pg8000.dbapi.CursorWrapper object>, operation='CREATE TABLE date(\\n    id SERIAL PRIMARY KEY,\\n  ...   end_time TIME,\\n    description VARCHAR(512)\\n);', args=())"
p308
sg89
S'_execute'
p309
sa(dp310
g66
S'/home/leo/Dropbox/web2py/gluon/contrib/pg8000/interface.py'
p311
sg68
(dp312
S'self._stmt.execute'
p313
S'<bound method PreparedStatement.execute of <gluo...ntrib.pg8000.interface.PreparedStatement object>>'
p314
sS'kwargs'
p315
g21
sS'self'
p316
S'<gluon.contrib.pg8000.interface.Cursor object>'
p317
sS'args'
p318
S'()'
p319
sS'self._stmt'
p320
S'<gluon.contrib.pg8000.interface.PreparedStatement object>'
p321
ssg74
I399
sg75
(dp322
I394
S'                ## print "SimpleQuery:", query'
p323
sI395
S'                self._stmt = SimpleStatement(self.connection, query)'
p324
sI396
S'            else:'
p325
sI397
S'                # use PostgreSQL Extended Query Protocol'
p326
sI398
S'                self._stmt = PreparedStatement(self.connection, query, statement_name="", *[{"type": type(x), "value": x} for x in args])'
p327
sI399
S'            self._stmt.execute(*args, **kwargs)'
p328
sI400
S'        finally:'
p329
sI401
S'            self.connection._unnamed_prepared_statement_lock.release()'
p330
sI402
S''
sI403
S'    ##'
p331
ssg87
S"(self=<gluon.contrib.pg8000.interface.Cursor object>, query='CREATE TABLE date(\\n    id SERIAL PRIMARY KEY,\\n  ...   end_time TIME,\\n    description VARCHAR(512)\\n);', *args=(), **kwargs={})"
p332
sg89
g216
sa(dp333
g66
S'/home/leo/Dropbox/web2py/gluon/contrib/pg8000/interface.py'
p334
sg68
(dp335
S'kwargs.get'
p336
S'<built-in method get of dict object>'
p337
sS'args'
p338
S'()'
p339
sS'self.c'
p340
S'<gluon.contrib.pg8000.protocol.Connection object>'
p341
sS'self'
p342
S'<gluon.contrib.pg8000.interface.PreparedStatement object>'
p343
sS'cmd'
p344
g98
sS'self._row_desc'
p345
S'None'
p346
sS'self.c.bind'
p347
S'<bound method Connection._fn of <gluon.contrib.pg8000.protocol.Connection object>>'
p348
sS'self._statement_name'
p349
S"''"
p350
sS'self._parse_row_desc'
p351
S'(None, [])'
p352
sS'kwargs'
p353
g21
sS'self._portal_name'
p354
S"'pg8000_portal_2635'"
p355
ssg74
I169
sg75
(dp356
I164
S'                self._ongoing_row_count = 0'
p357
sI165
S'            if self._portal_name != None:'
p358
sI166
S'                self.c.close_portal(self._portal_name)'
p359
sI167
S'            self._command_complete = False'
p360
sI168
S'            self._portal_name = "pg8000_portal_%s" % self._statement_number'
p361
sI169
S'            self._row_desc, cmd = self.c.bind(self._portal_name, self._statement_name, args, self._parse_row_desc, kwargs.get("stream"))'
p362
sI170
S'            if self._row_desc:'
p363
sI171
S'                # We execute our cursor right away to fill up our cache.  This'
p364
sI172
S'                # prevents the cursor from being destroyed, apparently, by a rogue'
p365
sI173
S'                # Sync between Bind and Execute.  Since it is quite likely that'
p366
ssg87
S'(self=<gluon.contrib.pg8000.interface.PreparedStatement object>, *args=(), **kwargs={})'
p367
sg89
g216
sa(dp368
g66
S'/home/leo/Dropbox/web2py/gluon/contrib/pg8000/protocol.py'
p369
sg68
(dp370
S'self'
p371
S'<gluon.contrib.pg8000.protocol.Connection object>'
p372
sS'args'
p373
S"('pg8000_portal_2635', '', (), (None, []), None)"
p374
sS'fn'
p375
S'<function bind>'
p376
sS'kwargs'
p377
g21
ssg74
I943
sg75
(dp378
I938
S''
sI939
S'def sync_on_error(fn):'
p379
sI940
S'    def _fn(self, *args, **kwargs):'
p380
sI941
S'        try:'
p381
sI942
S'            self._sock_lock.acquire()'
p382
sI943
S'            return fn(self, *args, **kwargs)'
p383
sI944
S'        except:'
p384
sI945
S'            self._sync()'
p385
sI946
S'            raise'
p386
sI947
S'        finally:'
p387
ssg87
S"(self=<gluon.contrib.pg8000.protocol.Connection object>, *args=('pg8000_portal_2635', '', (), (None, []), None), **kwargs={})"
p388
sg89
g262
sa(dp389
g66
S'/home/leo/Dropbox/web2py/gluon/contrib/pg8000/protocol.py'
p390
sg68
(dp391
S'reader.handle_messages'
p392
S'<bound method MessageReader.handle_messages of <gluon.contrib.pg8000.protocol.MessageReader object>>'
p393
sS'reader'
p394
S'<gluon.contrib.pg8000.protocol.MessageReader object>'
p395
ssg74
I1142
sg75
(dp396
I1137
S''
sI1138
S'        # Return the new row desc, since it will have the format types we'
p397
sI1139
S'        # asked the server for'
p398
sI1140
S'        reader.add_message(RowDescription, lambda msg: (msg, None))'
p399
sI1141
S''
sI1142
S'        return reader.handle_messages()'
p400
sI1143
S''
sI1144
S'    def _copy_in_response(self, copyin, fileobj, old_reader):'
p401
sI1145
S'        if fileobj == None:'
p402
sI1146
S'            raise CopyQueryWithoutStreamError()'
p403
ssg87
S"(self=<gluon.contrib.pg8000.protocol.Connection object>, portal='pg8000_portal_2635', statement='', params=(), parse_data=(None, []), copy_stream=None)"
p404
sg89
S'bind'
p405
sa(dp406
g66
S'/home/leo/Dropbox/web2py/gluon/contrib/pg8000/protocol.py'
p407
sg68
(dp408
S'msg'
p409
S'<gluon.contrib.pg8000.protocol.NoData object>'
p410
sS'handler'
p411
S'<bound method Connection._bind_nodata of <gluon.contrib.pg8000.protocol.Connection object>>'
p412
sS'retval'
p413
S'0'
sS'args'
p414
S"('pg8000_portal_2635', <gluon.contrib.pg8000.protocol.MessageReader object>, None)"
p415
sS'kwargs'
p416
g21
ssg74
I911
sg75
(dp417
I906
S'            msg = self._conn._read_message()'
p418
sI907
S'            msg_handled = False'
p419
sI908
S'            for (msg_class, handler, args, kwargs) in self._msgs:'
p420
sI909
S'                if isinstance(msg, msg_class):'
p421
sI910
S'                    msg_handled = True'
p422
sI911
S'                    retval = handler(msg, *args, **kwargs)'
p423
sI912
S'                    if retval:'
p424
sI913
S'                        # The handler returned a true value, meaning that the'
p425
sI914
S'                        # message loop should be aborted.'
p426
sI915
S'                        if exc != None:'
p427
ssg87
S'(self=<gluon.contrib.pg8000.protocol.MessageReader object>)'
p428
sg89
S'handle_messages'
p429
sa(dp430
g66
S'/home/leo/Dropbox/web2py/gluon/contrib/pg8000/protocol.py'
p431
sg68
(dp432
S'reader.handle_messages'
p433
S'<bound method MessageReader.handle_messages of <gluon.contrib.pg8000.protocol.MessageReader object>>'
p434
sS'reader'
p435
S'<gluon.contrib.pg8000.protocol.MessageReader object>'
p436
ssg74
I1181
sg75
(dp437
I1184
S''
sI1185
S'    @sync_on_error'
p438
sI1176
S'        reader.add_message(CopyOutResponse, self._copy_out_response, copy_stream, reader)'
p439
sI1177
S'        reader.add_message(CopyInResponse, self._copy_in_response, copy_stream, reader)'
p440
sI1178
S"        reader.add_message(CommandComplete, lambda msg, out: out.setdefault('msg', msg) and False, output)"
p441
sI1179
S'        reader.add_message(ReadyForQuery, lambda msg: 1)'
p442
sI1180
S'        reader.delay_raising_exception = True'
p443
sI1181
S'        reader.handle_messages()'
p444
sI1182
S''
sI1183
S"        old_reader.return_value((None, output['msg']))"
p445
ssg87
S"(self=<gluon.contrib.pg8000.protocol.Connection object>, msg=<gluon.contrib.pg8000.protocol.NoData object>, portal='pg8000_portal_2635', old_reader=<gluon.contrib.pg8000.protocol.MessageReader object>, copy_stream=None)"
p446
sg89
S'_bind_nodata'
p447
sa(dp448
g66
S'/home/leo/Dropbox/web2py/gluon/contrib/pg8000/protocol.py'
p449
sg68
(dp450
S'exc'
p451
S"ProgrammingError('ERROR', '42P07', 'la relaci\\xc3\\xb3n \\xc2\\xabdate\\xc2\\xbb ya existe')"
p452
ssg74
I916
sg75
(dp453
I911
S'                    retval = handler(msg, *args, **kwargs)'
p454
sI912
S'                    if retval:'
p455
sI913
S'                        # The handler returned a true value, meaning that the'
p456
sI914
S'                        # message loop should be aborted.'
p457
sI915
S'                        if exc != None:'
p458
sI916
S'                            raise exc'
p459
sI917
S'                        return retval'
p460
sI918
S'                    elif hasattr(self, "_retval"):'
p461
sI919
S'                        # The handler told us to return -- used for non-true'
p462
sI920
S'                        # return values'
p463
ssg87
S'(self=<gluon.contrib.pg8000.protocol.MessageReader object>)'
p464
sg89
g429
sasS'pyver'
p465
S'Python 2.7.5+: /usr/bin/python (prefix: /usr)'
p466
sS'session'
p467
g61
(S's\x1a\x0f\x00\x00<div><table><tr><td style="font-weight:bold;vertical-align:top;">auth</td><td style="vertical-align:top;">:</td><td><div><table><tr><td style="font-weight:bold;vertical-align:top;">expiration</td><td style="vertical-align:top;">:</td><td><div>3600</div></td></tr><tr><td style="font-weight:bold;vertical-align:top;">hmac_key</td><td style="vertical-align:top;">:</td><td><div>8382779a-cbaf-43ff-834f-3ae499652622</div></td></tr><tr><td style="font-weight:bold;vertical-align:top;">last_visit</td><td style="vertical-align:top;">:</td><td><div>datetime.datetime(2014, 1, 22, 17, 45, 31, 239729)</div></td></tr><tr><td style="font-weight:bold;vertical-align:top;">remember</td><td style="vertical-align:top;">:</td><td><div>False</div></td></tr><tr><td style="font-weight:bold;vertical-align:top;">user</td><td style="vertical-align:top;">:</td><td><div><table><tr><td style="font-weight:bold;vertical-align:top;">created_by</td><td style="vertical-align:top;">:</td><td><div>None</div></td></tr><tr><td style="font-weight:bold;vertical-align:top;">created_on</td><td style="vertical-align:top;">:</td><td><div>None</div></td></tr><tr><td style="font-weight:bold;vertical-align:top;">email</td><td style="vertical-align:top;">:</td><td><div>colomboleandro@pioix.edu.ar</div></td></tr><tr><td style="font-weight:bold;vertical-align:top;">first_name</td><td style="vertical-align:top;">:</td><td><div>Leandro</div></td></tr><tr><td style="font-weight:bold;vertical-align:top;">gender</td><td style="vertical-align:top;">:</td><td><div>Masculino</div></td></tr><tr><td style="font-weight:bold;vertical-align:top;">id</td><td style="vertical-align:top;">:</td><td><div>1L</div></td></tr><tr><td style="font-weight:bold;vertical-align:top;">is_active</td><td style="vertical-align:top;">:</td><td><div>True</div></td></tr><tr><td style="font-weight:bold;vertical-align:top;">last_login</td><td style="vertical-align:top;">:</td><td><div>datetime.datetime(2014, 1, 22, 15, 42, 51)</div></td></tr><tr><td style="font-weight:bold;vertical-align:top;">last_name</td><td style="vertical-align:top;">:</td><td><div>Colombo Vi\xc3\xb1a</div></td></tr><tr><td style="font-weight:bold;vertical-align:top;">middle_name</td><td style="vertical-align:top;">:</td><td><div>Enrique</div></td></tr><tr><td style="font-weight:bold;vertical-align:top;">modified_by</td><td style="vertical-align:top;">:</td><td><div>1L</div></td></tr><tr><td style="font-weight:bold;vertical-align:top;">modified_on</td><td style="vertical-align:top;">:</td><td><div>datetime.datetime(2014, 1, 22, 15, 42, 51)</div></td></tr><tr><td style="font-weight:bold;vertical-align:top;">obs</td><td style="vertical-align:top;">:</td><td><div></div></td></tr><tr><td style="font-weight:bold;vertical-align:top;">registration_id</td><td style="vertical-align:top;">:</td><td><div></div></td></tr><tr><td style="font-weight:bold;vertical-align:top;">registration_key</td><td style="vertical-align:top;">:</td><td><div></div></td></tr><tr><td style="font-weight:bold;vertical-align:top;">reset_password_key</td><td style="vertical-align:top;">:</td><td><div></div></td></tr></table></div></td></tr><tr><td style="font-weight:bold;vertical-align:top;">user_groups</td><td style="vertical-align:top;">:</td><td><div><table><tr><td style="font-weight:bold;vertical-align:top;">1</td><td style="vertical-align:top;">:</td><td><div>root</div></td></tr></table></div></td></tr></table></div></td></tr><tr><td style="font-weight:bold;vertical-align:top;">flash</td><td style="vertical-align:top;">:</td><td><div>None</div></td></tr><tr><td style="font-weight:bold;vertical-align:top;">last_orderby</td><td style="vertical-align:top;">:</td><td><div>None</div></td></tr><tr><td style="font-weight:bold;vertical-align:top;">last_query</td><td style="vertical-align:top;">:</td><td><div>db.auth_cas.id&gt;0</div></td></tr></table></div>'
tRp468
sS'etype'
p469
S"<class 'gluon.contrib.pg8000.errors.ProgrammingError'>"
p470
sS'date'
p471
S'Wed Jan 22 17:45:31 2014'
p472
sS'response'
p473
g61
(S's\x05\x17\x00\x00<div><table><tr><td style="font-weight:bold;vertical-align:top;">body</td><td style="vertical-align:top;">:</td><td><div>&lt;cStringIO.StringO object at 0x7faf243e8ae8&gt;</div></td></tr><tr><td style="font-weight:bold;vertical-align:top;">cookies</td><td style="vertical-align:top;">:</td><td><div><table><tr><td style="font-weight:bold;vertical-align:top;">session_id_seacat_ingresos</td><td style="vertical-align:top;">:</td><td><div>127.0.0.1-dccda76f-8e66-42cb-af3f-52b73eb8e7da<table><tr><td style="font-weight:bold;vertical-align:top;">comment</td><td style="vertical-align:top;">:</td><td><div></div></td></tr><tr><td style="font-weight:bold;vertical-align:top;">domain</td><td style="vertical-align:top;">:</td><td><div></div></td></tr><tr><td style="font-weight:bold;vertical-align:top;">expires</td><td style="vertical-align:top;">:</td><td><div></div></td></tr><tr><td style="font-weight:bold;vertical-align:top;">httponly</td><td style="vertical-align:top;">:</td><td><div></div></td></tr><tr><td style="font-weight:bold;vertical-align:top;">max-age</td><td style="vertical-align:top;">:</td><td><div></div></td></tr><tr><td style="font-weight:bold;vertical-align:top;">path</td><td style="vertical-align:top;">:</td><td><div>/</div></td></tr><tr><td style="font-weight:bold;vertical-align:top;">secure</td><td style="vertical-align:top;">:</td><td><div></div></td></tr><tr><td style="font-weight:bold;vertical-align:top;">version</td><td style="vertical-align:top;">:</td><td><div></div></td></tr></table></div></td></tr></table></div></td></tr><tr><td style="font-weight:bold;vertical-align:top;">delimiters</td><td style="vertical-align:top;">:</td><td><div><table><tr><td><div>{{</div></td></tr><tr><td><div>}}</div></td></tr></table></div></td></tr><tr><td style="font-weight:bold;vertical-align:top;">files</td><td style="vertical-align:top;">:</td><td><div><table></table></div></td></tr><tr><td style="font-weight:bold;vertical-align:top;">flash</td><td style="vertical-align:top;">:</td><td><div></div></td></tr><tr><td style="font-weight:bold;vertical-align:top;">generic_patterns</td><td style="vertical-align:top;">:</td><td><div><table><tr><td><div>*</div></td></tr></table></div></td></tr><tr><td style="font-weight:bold;vertical-align:top;">headers</td><td style="vertical-align:top;">:</td><td><div><table><tr><td style="font-weight:bold;vertical-align:top;">X-Powered-By</td><td style="vertical-align:top;">:</td><td><div>web2py</div></td></tr></table></div></td></tr><tr><td style="font-weight:bold;vertical-align:top;">menu</td><td style="vertical-align:top;">:</td><td><div><table></table></div></td></tr><tr><td style="font-weight:bold;vertical-align:top;">meta</td><td style="vertical-align:top;">:</td><td><div><table></table></div></td></tr><tr><td style="font-weight:bold;vertical-align:top;">models_to_run</td><td style="vertical-align:top;">:</td><td><div><table><tr><td><div>^\\w+\\.py$</div></td></tr><tr><td><div>^default/\\w+\\.py$</div></td></tr><tr><td><div>^default/index/\\w+\\.py$</div></td></tr></table></div></td></tr><tr><td style="font-weight:bold;vertical-align:top;">postprocessing</td><td style="vertical-align:top;">:</td><td><div><table></table></div></td></tr><tr><td style="font-weight:bold;vertical-align:top;">session_client</td><td style="vertical-align:top;">:</td><td><div>127.0.0.1</div></td></tr><tr><td style="font-weight:bold;vertical-align:top;">session_cookie_compression_level</td><td style="vertical-align:top;">:</td><td><div>None</div></td></tr><tr><td style="font-weight:bold;vertical-align:top;">session_cookie_expires</td><td style="vertical-align:top;">:</td><td><div>None</div></td></tr><tr><td style="font-weight:bold;vertical-align:top;">session_cookie_key</td><td style="vertical-align:top;">:</td><td><div>None</div></td></tr><tr><td style="font-weight:bold;vertical-align:top;">session_data_name</td><td style="vertical-align:top;">:</td><td><div>session_data_seacat_ingresos</div></td></tr><tr><td style="font-weight:bold;vertical-align:top;">session_file</td><td style="vertical-align:top;">:</td><td><div>&lt;open file &#x27;/home/leo/Dropbox/web2py/applications/SEACAT_ingresos/sessions/127.0.0.1-dccda76f-8e66-42cb-af3f-52b73eb8e7da&#x27;, mode &#x27;rb+&#x27; at 0x7faf349c6ed0&gt;</div></td></tr><tr><td style="font-weight:bold;vertical-align:top;">session_filename</td><td style="vertical-align:top;">:</td><td><div>/home/leo/Dropbox/web2py/applications/SEACAT_ingresos/sessions/127.0.0.1-dccda76f-8e66-42cb-af3f-52b73eb8e7da</div></td></tr><tr><td style="font-weight:bold;vertical-align:top;">session_hash</td><td style="vertical-align:top;">:</td><td><div>37d31f76af48dddd334213e4b217c9ac</div></td></tr><tr><td style="font-weight:bold;vertical-align:top;">session_id</td><td style="vertical-align:top;">:</td><td><div>127.0.0.1-dccda76f-8e66-42cb-af3f-52b73eb8e7da</div></td></tr><tr><td style="font-weight:bold;vertical-align:top;">session_id_name</td><td style="vertical-align:top;">:</td><td><div>session_id_seacat_ingresos</div></td></tr><tr><td style="font-weight:bold;vertical-align:top;">session_locked</td><td style="vertical-align:top;">:</td><td><div>True</div></td></tr><tr><td style="font-weight:bold;vertical-align:top;">session_masterapp</td><td style="vertical-align:top;">:</td><td><div>SEACAT_ingresos</div></td></tr><tr><td style="font-weight:bold;vertical-align:top;">session_new</td><td style="vertical-align:top;">:</td><td><div>False</div></td></tr><tr><td style="font-weight:bold;vertical-align:top;">session_storage_type</td><td style="vertical-align:top;">:</td><td><div>file</div></td></tr><tr><td style="font-weight:bold;vertical-align:top;">status</td><td style="vertical-align:top;">:</td><td><div>200</div></td></tr><tr><td style="font-weight:bold;vertical-align:top;">view</td><td style="vertical-align:top;">:</td><td><div>default/index.html</div></td></tr></table></div>'
tRp474
sS'locals'
p475
(dp476
S'exc'
p477
S"ProgrammingError('ERROR', '42P07', 'la relaci\\xc3\\xb3n \\xc2\\xabdate\\xc2\\xbb ya existe')"
p478
sS'msg_class'
p479
S"<class 'gluon.contrib.pg8000.protocol.ReadyForQuery'>"
p480
sS'self'
p481
S'<gluon.contrib.pg8000.protocol.MessageReader object>'
p482
sg46
S'()'
p483
sS'handler'
p484
S'<function <lambda>>'
p485
sS'kwargs'
p486
g21
sS'msg'
p487
S'<ReadyForQuery Idle in Failed Transaction>'
p488
sS'msg_handled'
p489
S'True'
p490
sS'retval'
p491
S'1'
sssS'traceback'
p492
S'Traceback (most recent call last):\n  File "/home/leo/Dropbox/web2py/gluon/restricted.py", line 217, in restricted\n    exec ccode in environment\n  File "/home/leo/Dropbox/web2py/applications/SEACAT_ingresos/models/db.py", line 166, in <module>\n    Field(\'description\', label=T("Description"))\n  File "/home/leo/Dropbox/web2py/gluon/dal.py", line 8139, in define_table\n    table = self.lazy_define_table(tablename,*fields,**args)\n  File "/home/leo/Dropbox/web2py/gluon/dal.py", line 8176, in lazy_define_table\n    polymodel=polymodel)\n  File "/home/leo/Dropbox/web2py/gluon/dal.py", line 1058, in create_table\n    self.create_sequence_and_triggers(query,table)\n  File "/home/leo/Dropbox/web2py/gluon/dal.py", line 2745, in create_sequence_and_triggers\n    self.execute(query)\n  File "/home/leo/Dropbox/web2py/gluon/dal.py", line 1916, in execute\n    return self.log_execute(*a, **b)\n  File "/home/leo/Dropbox/web2py/gluon/dal.py", line 1910, in log_execute\n    ret = self.cursor.execute(command, *a[1:], **b)\n  File "/home/leo/Dropbox/web2py/gluon/contrib/pg8000/dbapi.py", line 246, in _fn\n    return fn(self, *args, **kwargs)\n  File "/home/leo/Dropbox/web2py/gluon/contrib/pg8000/dbapi.py", line 317, in execute\n    self._execute(operation, args)\n  File "/home/leo/Dropbox/web2py/gluon/contrib/pg8000/dbapi.py", line 322, in _execute\n    self.cursor.execute(new_query, *new_args)\n  File "/home/leo/Dropbox/web2py/gluon/contrib/pg8000/interface.py", line 399, in execute\n    self._stmt.execute(*args, **kwargs)\n  File "/home/leo/Dropbox/web2py/gluon/contrib/pg8000/interface.py", line 169, in execute\n    self._row_desc, cmd = self.c.bind(self._portal_name, self._statement_name, args, self._parse_row_desc, kwargs.get("stream"))\n  File "/home/leo/Dropbox/web2py/gluon/contrib/pg8000/protocol.py", line 943, in _fn\n    return fn(self, *args, **kwargs)\n  File "/home/leo/Dropbox/web2py/gluon/contrib/pg8000/protocol.py", line 1142, in bind\n    return reader.handle_messages()\n  File "/home/leo/Dropbox/web2py/gluon/contrib/pg8000/protocol.py", line 911, in handle_messages\n    retval = handler(msg, *args, **kwargs)\n  File "/home/leo/Dropbox/web2py/gluon/contrib/pg8000/protocol.py", line 1181, in _bind_nodata\n    reader.handle_messages()\n  File "/home/leo/Dropbox/web2py/gluon/contrib/pg8000/protocol.py", line 916, in handle_messages\n    raise exc\nProgrammingError: (\'ERROR\', \'42P07\', \'la relaci\\xc3\\xb3n \\xc2\\xabdate\\xc2\\xbb ya existe\')\n'
p493
s.