(dp1
S'output'
p2
S"<type 'exceptions.TypeError'> %d format: a number is required, not str"
p3
sS'layer'
p4
S'D:\\Usuarios\\Leo\\Mis Documentos\\Dropbox\\web2py\\applications\\SEACAT_ingresos\\views\\admin/general_dates_list.html'
p5
sS'code'
p6
S'response.write(\'<!--[if HTML5]><![endif]-->\\r\\n<!DOCTYPE html>\\r\\n<!-- paulirish.com/2008/conditional-stylesheets-vs-css-hacks-answer-neither/ -->\\r\\n<!--[if lt IE 7]><html class="ie ie6 ie-lte9 ie-lte8 ie-lte7 no-js" lang="\', escape=False)\nresponse.write(T.accepted_language or \'en\')\nresponse.write(\'"> <![endif]-->\\r\\n<!--[if IE 7]><html class="ie ie7 ie-lte9 ie-lte8 ie-lte7 no-js" lang="\', escape=False)\nresponse.write(T.accepted_language or \'en\')\nresponse.write(\'"> <![endif]-->\\r\\n<!--[if IE 8]><html class="ie ie8 ie-lte9 ie-lte8 no-js" lang="\', escape=False)\nresponse.write(T.accepted_language or \'en\')\nresponse.write(\'"> <![endif]-->\\r\\n<!--[if IE 9]><html class="ie9 ie-lte9 no-js" lang="\', escape=False)\nresponse.write(T.accepted_language or \'en\')\nresponse.write(\'"> <![endif]-->\\r\\n<!--[if (gt IE 9)|!(IE)]><!--> <html class="no-js" lang="\', escape=False)\nresponse.write(T.accepted_language or \'en\')\nresponse.write(\'"> <!--<![endif]-->\\r\\n<head>\\r\\n<title>\', escape=False)\nresponse.write(response.title or request.application)\nresponse.write(\'</title>\\r\\n  <!--[if !HTML5]>\\r\\n      <meta http-equiv="X-UA-Compatible" content="IE=edge\', escape=False)\nresponse.write(not request.is_local and \',chrome=1\' or \'\')\nresponse.write(\'">\\r\\n  <![endif]-->\\r\\n  <!-- www.phpied.com/conditional-comments-block-downloads/ -->\\r\\n  <!-- Always force latest IE rendering engine\\r\\n       (even in intranet) & Chrome Frame\\r\\n       Remove this if you use the .htaccess -->\\r\\n\\t   \\r\\n  <meta charset="utf-8" />\\r\\n\\r\\n  <!-- http://dev.w3.org/html5/markup/meta.name.html -->\\r\\n  <meta name="application-name" content="\', escape=False)\nresponse.write(request.application)\nresponse.write(\'" />\\r\\n\\r\\n  <!-- Speaking of Google, don\\\'t forget to set your site up:\\r\\n       http://google.com/webmasters -->\\r\\n  <meta name="google-site-verification" content="" />\\r\\n\\r\\n  <!--  Mobile Viewport Fix\\r\\n        j.mp/mobileviewport & davidbcalhoun.com/2010/viewport-metatag\\r\\n        device-width: Occupy full width of the screen in its current orientation\\r\\n        initial-scale = 1.0 retains dimensions instead of zooming out if page height > device height\\r\\n        user-scalable = yes allows the user to zoom in -->\\r\\n  <meta name="viewport" content="width=device-width, initial-scale=1.0" />\\r\\n\\r\\n  <link rel="shortcut icon" href="\', escape=False)\nresponse.write(URL(\'static\',\'images/favicon.ico\'))\nresponse.write(\'" type="image/x-icon">\\r\\n  <link rel="apple-touch-icon" href="\', escape=False)\nresponse.write(URL(\'static\',\'images/favicon.png\'))\nresponse.write(\'">\\r\\n\\r\\n  <!-- All JavaScript at the bottom, except for Modernizr which enables\\r\\n       HTML5 elements & feature detects -->\\r\\n  <script src="\', escape=False)\nresponse.write(URL(\'static\',\'js/modernizr.custom.js\'))\nresponse.write(\'"></script>\\r\\n\\r\\n  <!-- include stylesheets -->\\r\\n  \', escape=False)\nresponse.files.append(URL(\'static\',\'css/web2py.css\'))\nresponse.files.append(URL(\'static\',\'css/bootstrap.min.css\'))\nresponse.files.append(URL(\'static\',\'css/bootstrap-responsive.min.css\'))\nresponse.files.append(URL(\'static\',\'css/web2py_bootstrap.css\'))\nresponse.write(\'\\r\\n\\r\\n  \', escape=False)\nresponse.write(\'<script type="text/javascript"><!--\\r\\n    // These variables are used by the web2py_ajax_init function in web2py_ajax.js (which is loaded below).\\r\\n    var w2p_ajax_confirm_message = "\', escape=False)\nresponse.write(T(\'Are you sure you want to delete this object?\'))\nresponse.write(\'";\\r\\n    var w2p_ajax_date_format = "\', escape=False)\nresponse.write(DATE_FORMAT)\nresponse.write(\'";\\r\\n    var w2p_ajax_datetime_format = "\', escape=False)\nresponse.write(TIME_FORMAT+" "+DATE_FORMAT)\nresponse.write(\'";\\r\\n    var ajax_error_500 = \\\'\', escape=False)\nresponse.write(XML(T(\'An error occured, please %s the page\') % A(T(\'reload\'), _href=URL(args=request.args, vars=request.get_vars))))\nresponse.write("\'\\r\\n    //--></script>\\r\\n", escape=False)\nresponse.files.insert(0,URL(\'static\',\'js/jquery.js\'))\nresponse.files.insert(1,URL(\'static\',\'css/calendar.css\'))\nresponse.files.insert(2,URL(\'static\',\'js/calendar-es.js\'))\nresponse.files.insert(3,URL(\'static\',\'js/web2py.js\'))\nresponse.include_meta()\nresponse.include_files()\nresponse.write(\'\\r\\n\', escape=False)\nresponse.write(\'\\r\\n\\r\\n  \', escape=False)\n# using sidebars need to know what sidebar you want to use\nleft_sidebar_enabled = globals().get(\'left_sidebar_enabled\',False)\nright_sidebar_enabled = globals().get(\'right_sidebar_enabled\',False)\nmiddle_columns = {0:\'span12\',1:\'span9\',2:\'span6\'}[\n(left_sidebar_enabled and 1 or 0)+(right_sidebar_enabled and 1 or 0)]\nresponse.write(\'\\r\\n\\r\\n  <!-- uncomment here to load jquery-ui\\r\\n       <link rel="stylesheet" href="http://ajax.googleapis.com/ajax/libs/jqueryui/1.8.16/themes/base/jquery-ui.css" type="text/css" media="all" />\\r\\n       <script src="http://ajax.googleapis.com/ajax/libs/jqueryui/1.8.16/jquery-ui.min.js" type="text/javascript"></script>\\r\\n       uncomment to load jquery-ui //-->\\r\\n  <noscript><link href="\', escape=False)\nresponse.write(URL(\'static\', \'css/web2py_bootstrap_nojs.css\'))\nresponse.write(\'" rel="stylesheet" type="text/css" /></noscript>\\r\\n  \', escape=False)\nresponse.write(\'\\r\\n</head>\\r\\n\\r\\n\\r\\n<body>\\r\\n  <!-- Navbar ================================================== -->\\r\\n  <!--\', escape=False)\n#if auth.is_logged_in():\nresponse.write(\'-->\\r\\n  <div class="navbar navbar-inverse navbar-fixed-top">\\r\\n    <div class="flash">\', escape=False)\nresponse.write(response.flash or \'\')\nresponse.write(\'</div>\\r\\n    <div class="navbar-inner">\\r\\n      <div class="container">\\r\\n        <!-- the next tag is necessary for bootstrap menus, do not remove -->\\r\\n        <button type="button" class="btn btn-navbar" data-toggle="collapse" data-target=".nav-collapse">\\r\\n          <span class="icon-bar"></span>\\r\\n          <span class="icon-bar"></span>\\r\\n          <span class="icon-bar"></span>\\r\\n        </button>\\r\\n\\t\', escape=False)\nresponse.write(response.logo or \'\')\nresponse.write(\'\\r\\n          <!-- \', escape=False)\n#If the language is Spanish and the user is Female we say "Bienvenida", else "Bienvenido"\nresponse.write(\' -->\\r\\n          \', escape=False)\nnavbar = auth.navbar(mode="default")\nresponse.write(\'\\r\\n          \', escape=False)\nif auth.is_logged_in() and T.accepted_language == \'es\' and auth.user.gender == T("Female"):\n    response.write(\'\\r\\n          \', escape=False)\n    navbar = auth.navbar(prefix=\'Bienvenida\', mode="dropdown")\n    response.write(\'\\r\\n          \', escape=False)\nelse:\n    response.write(\'\\r\\n          \', escape=False)\n    navbar = auth.navbar(mode="dropdown")\n    response.write(\'\\r\\n          \', escape=False)\n    pass\nresponse.write(\'\\r\\n          <!-- \', escape=False)\n# end of navbar spanish personalization\nresponse.write(\' -->\\r\\n          <ul id="navbar" class="nav pull-right">\', escape=False)\nresponse.write(\'auth\' in globals() and navbar or \'\')\nresponse.write(\'</ul>\\r\\n        <div class="nav-collapse">\\r\\n          \', escape=False)\nis_mobile=request.user_agent().is_mobile\nresponse.write(\'\\r\\n          \', escape=False)\nif response.menu:\n    response.write(\'\\r\\n          \', escape=False)\n    response.write(MENU(response.menu, _class=\'mobile-menu nav\' if is_mobile else \'nav\',mobile=is_mobile,li_class=\'dropdown\',ul_class=\'dropdown-menu\'))\n    response.write(\'\\r\\n          \', escape=False)\n    pass\nresponse.write(\'\\r\\n        </div><!--/.nav-collapse -->\\r\\n      </div>\\r\\n    </div>\\r\\n  </div><!--/top navbar -->\\r\\n  <!--\', escape=False)\n#pass\nresponse.write(\'-->\\r\\n  <div class="container">\\r\\n\\r\\n      <!-- Masthead ================================================== -->\\r\\n    <header class="mastheader row" id="header">\\r\\n      <!-- Para que no aparezca ese t\\xc3\\xadtulo FEO\\r\\n        \', escape=False)\nif response.title:\n    response.write(\'\\r\\n        <div class="span12">\\r\\n            <div class="page-header">\\r\\n                <h1>\\r\\n                    \', escape=False)\n    response.write(response.title)\n    response.write(\'\\r\\n                    <small>\', escape=False)\n    response.write(response.subtitle or \'\')\n    response.write(\'</small>\\r\\n                </h1>\\r\\n            </div>\\r\\n        </div>\\r\\n\\t\', escape=False)\n    pass\nresponse.write(\'\\r\\n-->\\r\\n    </header>\\r\\n\\r\\n\\r\\n    <section id="main" class="main row">\\r\\n        \', escape=False)\nif left_sidebar_enabled:\n    response.write(\'\\r\\n        <div class="span3 left-sidebar">\\r\\n            \', escape=False)\n    response.write(\'\\r\\n            <h3>Left Sidebar</h3>\\r\\n            <p></p>\\r\\n            \', escape=False)\n    response.write(\'\\r\\n        </div>\\r\\n        \', escape=False)\n    pass\nresponse.write(\'\\r\\n\\r\\n        <div class="\', escape=False)\nresponse.write(middle_columns)\nresponse.write(\'">\\r\\n            \', escape=False)\nresponse.write(\'\\r\\n            \', escape=False)\nresponse.write(\'\\r\\n<h2>\', escape=False)\nresponse.write(T( request.function.replace(\'_\',\' \').capitalize() ))\nresponse.write(\'</h2>\\r\\n\', escape=False)\nresponse.write(form)\nresponse.write(\'\\r\\n<hr>\\r\\n\', escape=False)\nresponse.write(grid)\nresponse.write(\'\\r\\n\\r\\n<!--<h2>\\r\\n    Response:\\r\\n</h2>\\r\\n\', escape=False)\nresponse.write(BEAUTIFY(response._vars))\nresponse.write(\'\\r\\n<h2>\\r\\n    Form:\\r\\n</h2>\\r\\n\', escape=False)\nresponse.write(BEAUTIFY(form.vars))\nresponse.write(\'\\r\\n<h2>\\r\\n    Request:\\r\\n</h2>\\r\\n\', escape=False)\nresponse.write(BEAUTIFY(request.vars))\nresponse.write(\'\\r\\n-->\\r\\n\', escape=False)\nresponse.write(\'\\r\\n            \', escape=False)\nresponse.write(\'\\r\\n        </div>\\r\\n\\r\\n        \', escape=False)\nif right_sidebar_enabled:\n    response.write(\'\\r\\n        <div class="span3">\\r\\n            \', escape=False)\n    response.write(\'\\r\\n            <h3>Right Sidebar</h3>\\r\\n            <p></p>\\r\\n            \', escape=False)\n    response.write(\'\\r\\n        </div>\\r\\n        \', escape=False)\n    pass\nresponse.write(\'\\r\\n    </section><!--/main-->\\r\\n\\r\\n    <!-- Footer ================================================== -->\\r\\n    <div class="row">\\r\\n        <footer class="footer span12" id="footer">\\r\\n            <div class="footer-content">\\r\\n                \', escape=False)\nresponse.write(\' <!-- this is default footer -->\\r\\n                <div class="copyright pull-left">\', escape=False)\nresponse.write(T(\'Copyright\'))\nresponse.write(\' &#169; \', escape=False)\nresponse.write(request.now.year)\nresponse.write(\'</div>\\r\\n                <div id="poweredBy" class="pull-right">\\r\\n                    \', escape=False)\nresponse.write(T(\'Powered by\'))\nresponse.write(\'\\r\\n                    <a href="http://www.web2py.com/">web2py</a>\\r\\n                </div>\\r\\n                \', escape=False)\nresponse.write(\'\\r\\n            </div>\\r\\n        </footer>\\r\\n    </div>\\r\\n\\r\\n  </div> <!-- /container -->\\r\\n\\r\\n  <!-- The javascript =============================================\\r\\n       (Placed at the end of the document so the pages load faster) -->\\r\\n  <script src="\', escape=False)\nresponse.write(URL(\'static\',\'js/bootstrap.min.js\'))\nresponse.write(\'"></script>\\r\\n  <script src="\', escape=False)\nresponse.write(URL(\'static\',\'js/web2py_bootstrap.js\'))\nresponse.write(\'"></script>\\r\\n  <!--[if lt IE 7 ]>\\r\\n      <script src="\', escape=False)\nresponse.write(URL(\'static\',\'js/dd_belatedpng.js\'))\nresponse.write(\'"></script>\\r\\n      <script> DD_belatedPNG.fix(\\\'img, .png_bg\\\'); //fix any <img> or .png_bg background-images </script>\\r\\n      <![endif]-->\\r\\n  \\r\\n  \', escape=False)\nif response.google_analytics_id:\n    response.write(\'\\r\\n  <script src="\', escape=False)\n    response.write(URL(\'static\',\'js/analytics.min.js\'))\n    response.write(\'"></script>\\r\\n  <script type="text/javascript">\\r\\n  analytics.initialize({\\r\\n    \\\'Google Analytics\\\':{trackingId:\\\'\', escape=False)\n    response.write(response.google_analytics_id)\n    response.write("\'} \\r\\n  });</script>\\r\\n  ", escape=False)\n    pass\nresponse.write(\'\\r\\n  <script src="\', escape=False)\nresponse.write(URL(\'static\',\'js/share.js\',vars=dict(static=URL(\'static\',\'images\'))))\nresponse.write(\'"></script>\\r\\n</body>\\r\\n</html>\\r\\n\', escape=False)'
p7
sS'snapshot'
p8
(dp9
sS'traceback'
p10
S'Traceback (most recent call last):\n  File "D:\\Usuarios\\Leo\\Mis Documentos\\Dropbox\\web2py\\gluon\\restricted.py", line 217, in restricted\n    exec ccode in environment\n  File "D:\\Usuarios\\Leo\\Mis Documentos\\Dropbox\\web2py\\applications\\SEACAT_ingresos\\views\\admin/general_dates_list.html", line 57, in <module>\n  File "D:\\Usuarios\\Leo\\Mis Documentos\\Dropbox\\web2py\\gluon\\languages.py", line 406, in __len__\n    return len(str(self))\n  File "D:\\Usuarios\\Leo\\Mis Documentos\\Dropbox\\web2py\\gluon\\languages.py", line 369, in __str__\n    self.T.translate(self.m, self.s))\n  File "D:\\Usuarios\\Leo\\Mis Documentos\\Dropbox\\web2py\\gluon\\languages.py", line 910, in translate\n    message = self.params_substitution(message, symbols)\n  File "D:\\Usuarios\\Leo\\Mis Documentos\\Dropbox\\web2py\\gluon\\languages.py", line 887, in params_substitution\n    message = message % symbols\nTypeError: %d format: a number is required, not str\n'
p11
s.